 Baimless.xyz

 Timestamp is 5e9ce32d (Sun Apr 19 20:47:57 2020)

 Preferred load address is 10000000

 Start         Length     Name                   Class
 0001:00000000 0001d840H .text$di                CODE
 0001:0001d840 000f5740H .text$mn                CODE
 0001:00112f80 00006310H .text$x                 CODE
 0001:00119290 00000a79H .text$yd                CODE
 0002:00000000 000005c8H .idata$5                DATA
 0002:000005c8 00000004H .00cfg                  DATA
 0002:000005cc 00000004H .CRT$XCA                DATA
 0002:000005d0 00000004H .CRT$XCL                DATA
 0002:000005d4 00000394H .CRT$XCU                DATA
 0002:00000968 00000004H .CRT$XCZ                DATA
 0002:0000096c 00000004H .CRT$XIA                DATA
 0002:00000970 00000004H .CRT$XIC                DATA
 0002:00000974 00000004H .CRT$XIZ                DATA
 0002:00000978 00000004H .CRT$XLA                DATA
 0002:0000097c 00000004H .CRT$XLZ                DATA
 0002:00000980 00000004H .CRT$XPA                DATA
 0002:00000984 00000004H .CRT$XPZ                DATA
 0002:00000988 00000004H .CRT$XTA                DATA
 0002:0000098c 00000014H .CRT$XTZ                DATA
 0002:00000990 00000000H .gfids$y                DATA
 0002:000009a0 00097b10H .rdata                  DATA
 0002:000984b0 00000018H .rdata$T                DATA
 0002:000984c8 000011fcH .rdata$r                DATA
 0002:000996c4 00000608H .rdata$sxdata           DATA
 0002:00099ccc 00000388H .rdata$zzzdbg           DATA
 0002:0009a054 00000004H .rtc$IAA                DATA
 0002:0009a058 00000004H .rtc$IZZ                DATA
 0002:0009a05c 00000004H .rtc$TAA                DATA
 0002:0009a060 00000004H .rtc$TZZ                DATA
 0002:0009a064 00000004H .tls                    DATA
 0002:0009a068 00000004H .tls$                   DATA
 0002:0009a06c 00000004H .tls$ZZZ                DATA
 0002:0009a070 00005cb4H .xdata$x                DATA
 0002:0009fd24 00000000H .edata                  DATA
 0002:0009fd24 000001a4H .idata$2                DATA
 0002:0009fec8 00000014H .idata$3                DATA
 0002:0009fedc 000005c8H .idata$4                DATA
 0002:000a04a4 00002e40H .idata$6                DATA
 0003:00000000 000c2798H .data                   DATA
 0003:000c2798 00000c98H .data$r                 DATA
 0003:000c3430 000bb354H .bss                    DATA
 0004:00000000 00000060H .rsrc$01                DATA
 0004:00000060 00000180H .rsrc$02                DATA

  Address         Publics by Value              Rva+Base       Lib:Object

 0000:00000000       ___volatile_metadata       00000000     <absolute>
 0000:00000000       ___guard_fids_table        00000000     <absolute>
 0000:00000000       ___AbsoluteZero            00000000     <absolute>
 0000:00000000       ___guard_longjmp_count     00000000     <absolute>
 0000:00000000       ___guard_iat_table         00000000     <absolute>
 0000:00000000       ___dynamic_value_reloc_table 00000000     <absolute>
 0000:00000000       ___hybrid_auxiliary_iat    00000000     <absolute>
 0000:00000000       ___hybrid_code_map_count   00000000     <absolute>
 0000:00000000       ___guard_longjmp_table     00000000     <absolute>
 0000:00000000       ___guard_fids_count        00000000     <absolute>
 0000:00000000       ___enclave_config          00000000     <absolute>
 0000:00000000       ___guard_eh_cont_table     00000000     <absolute>
 0000:00000000       ___guard_eh_cont_count     00000000     <absolute>
 0000:00000000       ___guard_iat_count         00000000     <absolute>
 0000:00000000       ___hybrid_code_map         00000000     <absolute>
 0000:0000002c       __tls_array                0000002c     <absolute>
 0000:00000100       ___guard_flags             00000100     <absolute>
 0000:00000182       ___safe_se_handler_count   00000182     <absolute>
 0000:00000000       ___ImageBase               10000000     <linker-defined>
 0001:0001d840       _AllocateBuffer            1001e840 f   buffer.obj
 0001:0001d890       _FreeBuffer                1001e890 f   buffer.obj
 0001:0001d9f0       _InitializeBuffer          1001e9f0 f   buffer.obj
 0001:0001d9f0       ??$_Destroy_range@V?$allocator@H@std@@@std@@YAXPAHQAHAAV?$allocator@H@0@@Z 1001e9f0 f   Controls.obj
 0001:0001d9f0       ??$_Destroy_range@V?$allocator@Uimpact_info@@@std@@@std@@YAXPAUimpact_info@@QAU1@AAV?$allocator@Uimpact_info@@@0@@Z 1001e9f0 f   otheresp.obj
 0001:0001d9f0       ??$_Destroy_range@PAV?$_List_unchecked_iterator@V?$_List_val@U?$_List_simple_types@U?$pair@QADPAD@std@@@std@@@std@@@std@@@std@@YAXPAV?$_List_unchecked_iterator@V?$_List_val@U?$_List_simple_types@U?$pair@QADPAD@std@@@std@@@std@@@0@QAV10@@Z 1001e9f0 f   skinchanger.obj
 0001:0001d9f0       ??$_Destroy_in_place@VColor@@@std@@YAXAAVColor@@@Z 1001e9f0 f   Config.obj
 0001:0001d9f0       ??$_Destroy_in_place@PA_W@std@@YAXAAPA_W@Z 1001e9f0 f   Config.obj
 0001:0001d9f0       ??$_Adl_verify_range@V?$_String_const_iterator@V?$_String_val@U?$_Simple_types@D@std@@@std@@@std@@V12@@std@@YAXABV?$_String_const_iterator@V?$_String_val@U?$_Simple_types@D@std@@@std@@@0@0@Z 1001e9f0 f   Aimbot.obj
 0001:0001d9f0       ??$_Adl_verify_range@PB_WPB_W@std@@YAXABQB_W0@Z 1001e9f0 f   Config.obj
 0001:0001d9f0       ??$_Destroy_in_place@PAU?$_List_node@U?$pair@$$CBV?$basic_string@DU?$char_traits@D@std@@V?$allocator@D@2@@std@@I@std@@PAX@std@@@std@@YAXAAPAU?$_List_node@U?$pair@$$CBV?$basic_string@DU?$char_traits@D@std@@V?$allocator@D@2@@std@@I@std@@PAX@0@@Z 1001e9f0 f   NetvarManager.obj
 0001:0001d9f0       ??$_Destroy_in_place@PAUPlayerRecords@@@std@@YAXAAPAUPlayerRecords@@@Z 1001e9f0 f   LagComp.obj
 0001:0001d9f0       ??$_Destroy_range@V?$allocator@D@std@@@std@@YAXPADQADAAV?$allocator@D@0@@Z 1001e9f0 f   Config.obj
 0001:0001d9f0       ??$_Destroy_range@V?$allocator@I@std@@@std@@YAXPAIQAIAAV?$allocator@I@0@@Z 1001e9f0 f   Config.obj
 0001:0001d9f0       ??$_Adl_verify_range@V?$reverse_iterator@PB_W@std@@V12@@std@@YAXABV?$reverse_iterator@PB_W@0@0@Z 1001e9f0 f   Config.obj
 0001:0001d9f0       ??$destroy@U?$pair@QADPAD@std@@@?$_Default_allocator_traits@V?$allocator@U?$_List_node@U?$pair@QADPAD@std@@PAX@std@@@std@@@std@@SAXAAV?$allocator@U?$_List_node@U?$pair@QADPAD@std@@PAX@std@@@1@QAU?$pair@QADPAD@1@@Z 1001e9f0 f   skinchanger.obj
 0001:0001d9f0       ??$_Adl_verify_range@PADPAD@std@@YAXABQAD0@Z 1001e9f0 f   Config.obj
 0001:0001d9f0       ??$_Adl_verify_range@V?$_Vector_const_iterator@V?$_Vector_val@U?$_Simple_types@H@std@@@std@@@std@@V12@@std@@YAXABV?$_Vector_const_iterator@V?$_Vector_val@U?$_Simple_types@H@std@@@std@@@0@0@Z 1001e9f0 f   Aimbot.obj
 0001:0001d9f0       ??$_Destroy_range@PAPAUPlayerRecords@@@std@@YAXPAPAUPlayerRecords@@QAPAU1@@Z 1001e9f0 f   LagComp.obj
 0001:0001d9f0       ??$_Destroy_in_place@PAU?$_List_node@U?$pair@$$CBV?$basic_string@DU?$char_traits@D@std@@V?$allocator@D@2@@std@@V?$unique_ptr@UNetvarTable@@U?$default_delete@UNetvarTable@@@std@@@2@@std@@PAX@std@@@std@@YAXAAPAU?$_List_node@U?$pair@$$CBV?$basic_string@DU?$char_traits@D@std@@V?$allocator@D@2@@std@@V?$unique_ptr@UNetvarTable@@U?$default_delete@UNetvarTable@@@std@@@2@@std@@PAX@0@@Z 1001e9f0 f   NetvarManager.obj
 0001:0001d9f0       ??$_Adl_verify_range@V?$_String_iterator@V?$_String_val@U?$_Simple_types@D@std@@@std@@@std@@V12@@std@@YAXABV?$_String_iterator@V?$_String_val@U?$_Simple_types@D@std@@@std@@@0@0@Z 1001e9f0 f   Hooks.obj
 0001:0001d9f0       ??$_Destroy_range@PAV?$_List_unchecked_iterator@V?$_List_val@U?$_List_simple_types@U?$pair@$$CBV?$basic_string@DU?$char_traits@D@std@@V?$allocator@D@2@@std@@V?$unique_ptr@UNetvarTable@@U?$default_delete@UNetvarTable@@@std@@@2@@std@@@std@@@std@@@std@@@std@@YAXPAV?$_List_unchecked_iterator@V?$_List_val@U?$_List_simple_types@U?$pair@$$CBV?$basic_string@DU?$char_traits@D@std@@V?$allocator@D@2@@std@@V?$unique_ptr@UNetvarTable@@U?$default_delete@UNetvarTable@@@std@@@2@@std@@@std@@@std@@@0@QAV10@@Z 1001e9f0 f   NetvarManager.obj
 0001:0001d9f0       ??$_Adl_verify_range@PAV?$_List_unchecked_iterator@V?$_List_val@U?$_List_simple_types@U?$pair@$$CBV?$basic_string@DU?$char_traits@D@std@@V?$allocator@D@2@@std@@V?$unique_ptr@UNetvarTable@@U?$default_delete@UNetvarTable@@@std@@@2@@std@@@std@@@std@@@std@@PAV12@@std@@YAXABQAV?$_List_unchecked_iterator@V?$_List_val@U?$_List_simple_types@U?$pair@$$CBV?$basic_string@DU?$char_traits@D@std@@V?$allocator@D@2@@std@@V?$unique_ptr@UNetvarTable@@U?$default_delete@UNetvarTable@@@std@@@2@@std@@@std@@@std@@@0@0@Z 1001e9f0 f   NetvarManager.obj
 0001:0001d9f0       ??$destroy@UPlayerRecords@@@?$_Default_allocator_traits@V?$allocator@UPlayerRecords@@@std@@@std@@SAXAAV?$allocator@UPlayerRecords@@@1@QAUPlayerRecords@@@Z 1001e9f0 f   LagComp.obj
 0001:0001d9f0       ??$_Pocs@V?$allocator@D@std@@@std@@YAXAAV?$allocator@D@0@0@Z 1001e9f0 f   Config.obj
 0001:0001d9f0       ??$destroy@D@?$_Default_allocator_traits@V?$allocator@D@std@@@std@@SAXAAV?$allocator@D@1@QAD@Z 1001e9f0 f   Config.obj
 0001:0001d9f0       ??$_Adl_verify_range@PAV?$_List_unchecked_iterator@V?$_List_val@U?$_List_simple_types@U?$pair@$$CBV?$basic_string@DU?$char_traits@D@std@@V?$allocator@D@2@@std@@I@std@@@std@@@std@@@std@@PAV12@@std@@YAXABQAV?$_List_unchecked_iterator@V?$_List_val@U?$_List_simple_types@U?$pair@$$CBV?$basic_string@DU?$char_traits@D@std@@V?$allocator@D@2@@std@@I@std@@@std@@@std@@@0@0@Z 1001e9f0 f   NetvarManager.obj
 0001:0001d9f0       ??$destroy@Uimpact_info@@@?$_Default_allocator_traits@V?$allocator@Uimpact_info@@@std@@@std@@SAXAAV?$allocator@Uimpact_info@@@1@QAUimpact_info@@@Z 1001e9f0 f   otheresp.obj
 0001:0001d9f0       ??$_Adl_verify_range@V?$_Vector_iterator@V?$_Vector_val@U?$_Simple_types@V?$basic_string@DU?$char_traits@D@std@@V?$allocator@D@2@@std@@@std@@@std@@@std@@V12@@std@@YAXABV?$_Vector_iterator@V?$_Vector_val@U?$_Simple_types@V?$basic_string@DU?$char_traits@D@std@@V?$allocator@D@2@@std@@@std@@@std@@@0@0@Z 1001e9f0 f   Config.obj
 0001:0001d9f0       ??$_Destroy_range@V?$allocator@U?$pair@VVector@@VQAngle@@@std@@@std@@@std@@YAXPAU?$pair@VVector@@VQAngle@@@0@QAU10@AAV?$allocator@U?$pair@VVector@@VQAngle@@@std@@@0@@Z 1001e9f0 f   grenadetracer.obj
 0001:0001d9f0       ??$_Adl_verify_range@PAV?$_List_unchecked_iterator@V?$_List_val@U?$_List_simple_types@U?$pair@QADPAD@std@@@std@@@std@@@std@@PAV12@@std@@YAXABQAV?$_List_unchecked_iterator@V?$_List_val@U?$_List_simple_types@U?$pair@QADPAD@std@@@std@@@std@@@0@0@Z 1001e9f0 f   skinchanger.obj
 0001:0001d9f0       ??$_Adl_verify_range@V?$_Array_iterator@D$0EA@@std@@V12@@std@@YAXABV?$_Array_iterator@D$0EA@@0@0@Z 1001e9f0 f   Config.obj
 0001:0001d9f0       ??$_Pocca@V?$allocator@U?$pair@HPBD@std@@@std@@@std@@YAXAAV?$allocator@U?$pair@HPBD@std@@@0@ABV10@@Z 1001e9f0 f   tab_Skin_Changer.obj
 0001:0001d9f0       ??$_Destroy_range@V?$allocator@Vtrace_info@bullettracers@@@std@@@std@@YAXPAVtrace_info@bullettracers@@QAV12@AAV?$allocator@Vtrace_info@bullettracers@@@0@@Z 1001e9f0 f   bullettracers.obj
 0001:0001d9f0       ??$_Destroy_range@V?$allocator@VVector@@@std@@@std@@YAXPAVVector@@QAV1@AAV?$allocator@VVector@@@0@@Z 1001e9f0 f   grenadetracer.obj
 0001:0001d9f0       ??$_Destroy_range@V?$allocator@Uhitmarker_info@@@std@@@std@@YAXPAUhitmarker_info@@QAU1@AAV?$allocator@Uhitmarker_info@@@0@@Z 1001e9f0 f   otheresp.obj
 0001:0001d9f0       ??$destroy@U?$pair@$$CBHPAVCWindow@@@std@@@?$_Default_allocator_traits@V?$allocator@U?$_Tree_node@U?$pair@$$CBHPAVCWindow@@@std@@PAX@std@@@std@@@std@@SAXAAV?$allocator@U?$_Tree_node@U?$pair@$$CBHPAVCWindow@@@std@@PAX@std@@@1@QAU?$pair@$$CBHPAVCWindow@@@1@@Z 1001e9f0 f   GUI.obj
 0001:0001d9f0       ??$_Destroy_in_place@PAU?$_Tree_node@U?$pair@$$CBV?$basic_string@DU?$char_traits@D@std@@V?$allocator@D@2@@std@@V?$basic_json@Vmap@std@@Vvector@2@V?$basic_string@DU?$char_traits@D@std@@V?$allocator@D@2@@2@_N_J_KNVallocator@2@Uadl_serializer@nlohmann@@@nlohmann@@@std@@PAX@std@@@std@@YAXAAPAU?$_Tree_node@U?$pair@$$CBV?$basic_string@DU?$char_traits@D@std@@V?$allocator@D@2@@std@@V?$basic_json@Vmap@std@@Vvector@2@V?$basic_string@DU?$char_traits@D@std@@V?$allocator@D@2@@2@_N_J_KNVallocator@2@Uadl_serializer@nlohmann@@@nlohmann@@@std@@PAX@0@@Z 1001e9f0 f   Config.obj
 0001:0001d9f0       ??$_Adl_verify_range@PAPAUPlayerRecords@@PAPAU1@@std@@YAXABQAPAUPlayerRecords@@0@Z 1001e9f0 f   LagComp.obj
 0001:0001d9f0       ??$_Adl_verify_range@PBV?$json_ref@V?$basic_json@Vmap@std@@Vvector@2@V?$basic_string@DU?$char_traits@D@std@@V?$allocator@D@2@@2@_N_J_KNVallocator@2@Uadl_serializer@nlohmann@@@nlohmann@@@detail@nlohmann@@PBV123@@std@@YAXABQBV?$json_ref@V?$basic_json@Vmap@std@@Vvector@2@V?$basic_string@DU?$char_traits@D@std@@V?$allocator@D@2@@2@_N_J_KNVallocator@2@Uadl_serializer@nlohmann@@@nlohmann@@@detail@nlohmann@@0@Z 1001e9f0 f   tab_Login.obj
 0001:0001d9f0       ??$_Pocca@V?$allocator@D@std@@@std@@YAXAAV?$allocator@D@0@ABV10@@Z 1001e9f0 f   Config.obj
 0001:0001d9f0       ??$_Destroy_range@V?$allocator@UVertex_t@@@std@@@std@@YAXPAUVertex_t@@QAU1@AAV?$allocator@UVertex_t@@@0@@Z 1001e9f0 f   Visuals.obj
 0001:0001d9f0       ??3@YAXPAXUImNewDummy@@0@Z 1001e9f0 f   imgui.obj
 0001:0001d9f0       ??$_Destroy_in_place@PAU?$_Tree_node@U?$pair@$$CBHPAVCWindow@@@std@@PAX@std@@@std@@YAXAAPAU?$_Tree_node@U?$pair@$$CBHPAVCWindow@@@std@@PAX@0@@Z 1001e9f0 f   GUI.obj
 0001:0001d9f0       ??$_Destroy_range@V?$allocator@PAVDot@@@std@@@std@@YAXPAPAVDot@@QAPAV1@AAV?$allocator@PAVDot@@@0@@Z 1001e9f0 f   Drops+.obj
 0001:0001d9f0       ??$_Destroy_range@V?$allocator@PBD@std@@@std@@YAXPAPBDQAPBDAAV?$allocator@PBD@0@@Z 1001e9f0 f   Hooks.obj
 0001:0001d9f0       ??$_Destroy_range@PAV?$_List_unchecked_iterator@V?$_List_val@U?$_List_simple_types@U?$pair@$$CBV?$basic_string@DU?$char_traits@D@std@@V?$allocator@D@2@@std@@I@std@@@std@@@std@@@std@@@std@@YAXPAV?$_List_unchecked_iterator@V?$_List_val@U?$_List_simple_types@U?$pair@$$CBV?$basic_string@DU?$char_traits@D@std@@V?$allocator@D@2@@std@@I@std@@@std@@@std@@@0@QAV10@@Z 1001e9f0 f   NetvarManager.obj
 0001:0001d9f0       ??$_Destroy_range@V?$allocator@Uwskin@@@std@@@std@@YAXPAUwskin@@QAU1@AAV?$allocator@Uwskin@@@0@@Z 1001e9f0 f   Protobuffs.obj
 0001:0001d9f0       ??$destroy@PAVDot@@@?$_Default_allocator_traits@V?$allocator@PAVDot@@@std@@@std@@SAXAAV?$allocator@PAVDot@@@1@QAPAVDot@@@Z 1001e9f0 f   Drops+.obj
 0001:0001d9f0       ??$_Destroy_in_place@PAD@std@@YAXAAPAD@Z 1001e9f0 f   CFixMove.obj
 0001:0001d9f0       ??$ScanCopyUnescapedString@U?$GenericStringStream@U?$UTF8@D@rapidjson@@@rapidjson@@U12@@?$GenericReader@U?$UTF8@D@rapidjson@@U12@VCrtAllocator@2@@rapidjson@@CAXAAU?$GenericStringStream@U?$UTF8@D@rapidjson@@@1@0@Z 1001e9f0 f   http.obj
 0001:0001d9f0       ??$_Destroy_in_place@PAU?$_List_node@U?$pair@QADPAD@std@@PAX@std@@@std@@YAXAAPAU?$_List_node@U?$pair@QADPAD@std@@PAX@0@@Z 1001e9f0 f   skinchanger.obj
 0001:0001d9f0       ??$_Adl_verify_range@V?$_Deque_iterator@V?$_Deque_val@U?$_Deque_simple_types@UPlayerRecords@@@std@@@std@@@std@@V12@@std@@YAXABV?$_Deque_iterator@V?$_Deque_val@U?$_Deque_simple_types@UPlayerRecords@@@std@@@std@@@0@0@Z 1001e9f0 f   LagComp.obj
 0001:0001d9f0       ??$ScanCopyUnescapedString@U?$GenericStringStream@U?$UTF8@D@rapidjson@@@rapidjson@@V?$StackStream@D@?$GenericReader@U?$UTF8@D@rapidjson@@U12@VCrtAllocator@2@@2@@?$GenericReader@U?$UTF8@D@rapidjson@@U12@VCrtAllocator@2@@rapidjson@@CAXAAU?$GenericStringStream@U?$UTF8@D@rapidjson@@@1@AAV?$StackStream@D@01@@Z 1001e9f0 f   http.obj
 0001:0001d9f0       ?Log@Utils@@SAXABV?$basic_string@DU?$char_traits@D@std@@V?$allocator@D@2@@std@@ZZ 1001e9f0 f   Interfaces.obj
 0001:0001d9f0       ??$destroy@Vsound_info@@@?$_Default_allocator_traits@V?$allocator@Vsound_info@@@std@@@std@@SAXAAV?$allocator@Vsound_info@@@1@QAVsound_info@@@Z 1001e9f0 f   Hooks.obj
 0001:0001d9f0       ??$_Destroy_range@V?$allocator@U?$pair@HPBD@std@@@std@@@std@@YAXPAU?$pair@HPBD@0@QAU10@AAV?$allocator@U?$pair@HPBD@std@@@0@@Z 1001e9f0 f   Config.obj
 0001:0001d9f0       ??$_Adl_verify_range@PAU?$pair@HPBD@std@@PAU12@@std@@YAXABQAU?$pair@HPBD@0@0@Z 1001e9f0 f   tab_Skin_Changer.obj
 0001:0001d9f0       ??$_Destroy_range@V?$allocator@Vsound_info@@@std@@@std@@YAXPAVsound_info@@QAV1@AAV?$allocator@Vsound_info@@@0@@Z 1001e9f0 f   Hooks.obj
 0001:0001d9f0       ?Free@?$MemoryPoolAllocator@VCrtAllocator@rapidjson@@@rapidjson@@SAXPAX@Z 1001e9f0 f   http.obj
 0001:0001d9f0       ??$_Adl_verify_range@V?$_Vector_iterator@V?$_Vector_val@U?$_Simple_types@H@std@@@std@@@std@@V12@@std@@YAXABV?$_Vector_iterator@V?$_Vector_val@U?$_Simple_types@H@std@@@std@@@0@0@Z 1001e9f0 f   Hooks.obj
 0001:0001d9f0       ??$_Pocca@V?$allocator@_W@std@@@std@@YAXAAV?$allocator@_W@0@ABV10@@Z 1001e9f0 f   Config.obj
 0001:0001d9f0       ??$_Destroy_in_place@PAU?$_Tree_node@U?$pair@QAXU?$pair@V?$basic_string@DU?$char_traits@D@std@@V?$allocator@D@2@@std@@V?$vector@V?$basic_string@DU?$char_traits@D@std@@V?$allocator@D@2@@std@@V?$allocator@V?$basic_string@DU?$char_traits@D@std@@V?$allocator@D@2@@std@@@2@@2@@std@@@std@@PAX@std@@@std@@YAXAAPAU?$_Tree_node@U?$pair@QAXU?$pair@V?$basic_string@DU?$char_traits@D@std@@V?$allocator@D@2@@std@@V?$vector@V?$basic_string@DU?$char_traits@D@std@@V?$allocator@D@2@@std@@V?$allocator@V?$basic_string@DU?$char_traits@D@std@@V?$allocator@D@2@@std@@@2@@2@@std@@@std@@PAX@0@@Z 1001e9f0 f   NetvarManager.obj
 0001:0001d9f0       ??$_Destroy_range@V?$allocator@PAVCTab@@@std@@@std@@YAXPAPAVCTab@@QAPAV1@AAV?$allocator@PAVCTab@@@0@@Z 1001e9f0 f   GUI.obj
 0001:0001d9f0       ??$_Destroy_range@V?$allocator@PAVCWindow@@@std@@@std@@YAXPAPAVCWindow@@QAPAV1@AAV?$allocator@PAVCWindow@@@0@@Z 1001e9f0 f   GUI.obj
 0001:0001d9f0       ??$_Adl_verify_range@V?$_Vector_iterator@V?$_Vector_val@U?$_Simple_types@PAVDot@@@std@@@std@@@std@@V12@@std@@YAXABV?$_Vector_iterator@V?$_Vector_val@U?$_Simple_types@PAVDot@@@std@@@std@@@0@0@Z 1001e9f0 f   Drops+.obj
 0001:0001da00       _IsExecutableAddress       1001ea00 f   buffer.obj
 0001:0001da50       ??$?0$$V@?$_Compressed_pair@V?$allocator@_W@std@@V?$_String_val@U?$_Simple_types@_W@std@@@2@$00@std@@QAE@U_Zero_then_variadic_args_t@1@@Z 1001ea50 f i Config.obj
 0001:0001da50       ??$?0$$V@?$_Compressed_pair@V?$allocator@D@std@@V?$_String_val@U?$_Simple_types@D@std@@@2@$00@std@@QAE@U_Zero_then_variadic_args_t@1@@Z 1001ea50 f i CFixMove.obj
 0001:0001da70       ??$?8DU?$char_traits@D@std@@V?$allocator@D@1@@std@@YA_NABV?$basic_string@DU?$char_traits@D@std@@V?$allocator@D@2@@0@0@Z 1001ea70 f i CFixMove.obj
 0001:0001da90       ??$_Allocate@$07U_Default_allocate_traits@std@@$0A@@std@@YAPAXI@Z 1001ea90 f i CFixMove.obj
 0001:0001dad0       ??$_Allocate_manually_vector_aligned@U_Default_allocate_traits@std@@@std@@YAPAXI@Z 1001ead0 f i CFixMove.obj
 0001:0001db40       ??$_Construct_in_place@PAU?$_List_node@U?$pair@QADPAD@std@@PAX@std@@AAPAU12@@std@@YAXAAPAU?$_List_node@U?$pair@QADPAD@std@@PAX@0@0@Z 1001eb40 f i skinchanger.obj
 0001:0001db40       ??$_Construct_in_place@PAU?$_Tree_node@U?$pair@$$CBV?$basic_string@DU?$char_traits@D@std@@V?$allocator@D@2@@std@@V?$basic_json@Vmap@std@@Vvector@2@V?$basic_string@DU?$char_traits@D@std@@V?$allocator@D@2@@2@_N_J_KNVallocator@2@Uadl_serializer@nlohmann@@@nlohmann@@@std@@PAX@std@@AAPAU12@@std@@YAXAAPAU?$_Tree_node@U?$pair@$$CBV?$basic_string@DU?$char_traits@D@std@@V?$allocator@D@2@@std@@V?$basic_json@Vmap@std@@Vvector@2@V?$basic_string@DU?$char_traits@D@std@@V?$allocator@D@2@@2@_N_J_KNVallocator@2@Uadl_serializer@nlohmann@@@nlohmann@@@std@@PAX@0@0@Z 1001eb40 f i Config.obj
 0001:0001db40       ??$_Construct_in_place@PAU?$_List_node@U?$pair@$$CBV?$basic_string@DU?$char_traits@D@std@@V?$allocator@D@2@@std@@I@std@@PAX@std@@AAPAU12@@std@@YAXAAPAU?$_List_node@U?$pair@$$CBV?$basic_string@DU?$char_traits@D@std@@V?$allocator@D@2@@std@@I@std@@PAX@0@0@Z 1001eb40 f i NetvarManager.obj
 0001:0001db40       ??$_Construct_in_place@PAU?$_Tree_node@U?$pair@QAXU?$pair@V?$basic_string@DU?$char_traits@D@std@@V?$allocator@D@2@@std@@V?$vector@V?$basic_string@DU?$char_traits@D@std@@V?$allocator@D@2@@std@@V?$allocator@V?$basic_string@DU?$char_traits@D@std@@V?$allocator@D@2@@std@@@2@@2@@std@@@std@@PAX@std@@ABQAU12@@std@@YAXAAPAU?$_Tree_node@U?$pair@QAXU?$pair@V?$basic_string@DU?$char_traits@D@std@@V?$allocator@D@2@@std@@V?$vector@V?$basic_string@DU?$char_traits@D@std@@V?$allocator@D@2@@std@@V?$allocator@V?$basic_string@DU?$char_traits@D@std@@V?$allocator@D@2@@std@@@2@@2@@std@@@std@@PAX@0@ABQAU10@@Z 1001eb40 f i NetvarManager.obj
 0001:0001db40       ??$_Construct_in_place@PAU?$_List_node@U?$pair@$$CBV?$basic_string@DU?$char_traits@D@std@@V?$allocator@D@2@@std@@I@std@@PAX@std@@ABQAU12@@std@@YAXAAPAU?$_List_node@U?$pair@$$CBV?$basic_string@DU?$char_traits@D@std@@V?$allocator@D@2@@std@@I@std@@PAX@0@ABQAU10@@Z 1001eb40 f i NetvarManager.obj
 0001:0001db40       ??$_Construct_in_place@PAU?$_List_node@U?$pair@QADPAD@std@@PAX@std@@ABQAU12@@std@@YAXAAPAU?$_List_node@U?$pair@QADPAD@std@@PAX@0@ABQAU10@@Z 1001eb40 f i skinchanger.obj
 0001:0001db40       ??$_Construct_in_place@PAU?$_Tree_node@U?$pair@$$CBV?$basic_string@DU?$char_traits@D@std@@V?$allocator@D@2@@std@@V?$basic_json@Vmap@std@@Vvector@2@V?$basic_string@DU?$char_traits@D@std@@V?$allocator@D@2@@2@_N_J_KNVallocator@2@Uadl_serializer@nlohmann@@@nlohmann@@@std@@PAX@std@@ABQAU12@@std@@YAXAAPAU?$_Tree_node@U?$pair@$$CBV?$basic_string@DU?$char_traits@D@std@@V?$allocator@D@2@@std@@V?$basic_json@Vmap@std@@Vvector@2@V?$basic_string@DU?$char_traits@D@std@@V?$allocator@D@2@@2@_N_J_KNVallocator@2@Uadl_serializer@nlohmann@@@nlohmann@@@std@@PAX@0@ABQAU10@@Z 1001eb40 f i Config.obj
 0001:0001db40       ??$_Construct_in_place@PAU?$_Tree_node@U?$pair@$$CBHPAVCWindow@@@std@@PAX@std@@ABQAU12@@std@@YAXAAPAU?$_Tree_node@U?$pair@$$CBHPAVCWindow@@@std@@PAX@0@ABQAU10@@Z 1001eb40 f i GUI.obj
 0001:0001db40       ??$_Construct_in_place@PAU?$_List_node@U?$pair@$$CBV?$basic_string@DU?$char_traits@D@std@@V?$allocator@D@2@@std@@V?$unique_ptr@UNetvarTable@@U?$default_delete@UNetvarTable@@@std@@@2@@std@@PAX@std@@ABQAU12@@std@@YAXAAPAU?$_List_node@U?$pair@$$CBV?$basic_string@DU?$char_traits@D@std@@V?$allocator@D@2@@std@@V?$unique_ptr@UNetvarTable@@U?$default_delete@UNetvarTable@@@std@@@2@@std@@PAX@0@ABQAU10@@Z 1001eb40 f i NetvarManager.obj
 0001:0001db40       ??$_Construct_in_place@PAU?$_List_node@U?$pair@$$CBV?$basic_string@DU?$char_traits@D@std@@V?$allocator@D@2@@std@@V?$unique_ptr@UNetvarTable@@U?$default_delete@UNetvarTable@@@std@@@2@@std@@PAX@std@@AAPAU12@@std@@YAXAAPAU?$_List_node@U?$pair@$$CBV?$basic_string@DU?$char_traits@D@std@@V?$allocator@D@2@@std@@V?$unique_ptr@UNetvarTable@@U?$default_delete@UNetvarTable@@@std@@@2@@std@@PAX@0@0@Z 1001eb40 f i NetvarManager.obj
 0001:0001db40       ??$_Construct_in_place@PA_WABQA_W@std@@YAXAAPA_WABQA_W@Z 1001eb40 f i Config.obj
 0001:0001db40       ??$_Construct_in_place@PADABQAD@std@@YAXAAPADABQAD@Z 1001eb40 f i CFixMove.obj
 0001:0001db80       ??$forward@ABV<lambda_1>@?1???$create@V?$vector@V?$basic_json@Vmap@std@@Vvector@2@V?$basic_string@DU?$char_traits@D@std@@V?$allocator@D@2@@2@_N_J_KNVallocator@2@Uadl_serializer@nlohmann@@@nlohmann@@V?$allocator@V?$basic_json@Vmap@std@@Vvector@2@V?$basic_string@DU?$char_traits@D@std@@V?$allocator@D@2@@2@_N_J_KNVallocator@2@Uadl_serializer@nlohmann@@@nlohmann@@@std@@@std@@ABV12@@?$basic_json@Vmap@std@@Vvector@2@V?$basic_string@DU?$char_traits@D@std@@V?$allocator@D@2@@2@_N_J_KNVallocator@2@Uadl_serializer@nlohmann@@@nlohmann@@CAPAV?$vector@V?$basic_json@Vmap@std@@Vvector@2@V?$basic_string@DU?$char_traits@D@std@@V?$allocator@D@2@@2@_N_J_KNVallocator@2@Uadl_serializer@nlohmann@@@nlohmann@@V?$allocator@V?$basic_json@Vmap@std@@Vvector@2@V?$basic_string@DU?$char_traits@D@std@@V?$allocator@D@2@@2@_N_J_KNVallocator@2@Uadl_serializer@nlohmann@@@nlohmann@@@std@@@std@@ABV45@@Z@@std@@YAABV<lambda_1>@?1???$create@V?$vector@V?$basic_json@Vmap@std@@Vvector@2@V?$basic_string@DU?$char_traits@D@std@@V?$allocator@D@2@@2@_N_J_KNVallocator@2@Uadl_serializer@nlohmann@@@nlohmann@@V?$allocator@V?$basic_json@Vmap@std@@Vvector@2@V?$basic_string@DU?$char_traits@D@std@@V?$allocator@D@2@@2@_N_J_KNVallocator@2@Uadl_serializer@nlohmann@@@nlohmann@@@std@@@std@@ABV12@@?$basic_json@Vmap@std@@Vvector@2@V?$basic_string@DU?$char_traits@D@std@@V?$allocator@D@2@@2@_N_J_KNVallocator@2@Uadl_serializer@nlohmann@@@nlohmann@@CAPAV?$vector@V?$basic_json@Vmap@std@@Vvector@2@V?$basic_string@DU?$char_traits@D@std@@V?$allocator@D@2@@2@_N_J_KNVallocator@2@Uadl_serializer@nlohmann@@@nlohmann@@V?$allocator@V?$basic_json@Vmap@std@@Vvector@2@V?$basic_string@DU?$char_traits@D@std@@V?$allocator@D@2@@2@_N_J_KNVallocator@2@Uadl_serializer@nlohmann@@@nlohmann@@@std@@@0@ABV40@@Z@ABV1?1???$create@V?$vector@V?$basic_json@Vmap@std@@Vvector@2@V?$basic_string@DU?$char_traits@D@std@@V?$allocator@D@2@@2@_N_J_KNVallocator@2@Uadl_serializer@nlohmann@@@nlohmann@@V?$allocator@V?$basic_json@Vmap@std@@Vvector@2@V?$basic_string@DU?$char_traits@D@std@@V?$allocator@D@2@@2@_N_J_KNVallocator@2@Uadl_serializer@nlohmann@@@nlohmann@@@std@@@std@@ABV12@@23@CAPAV40@0@Z@@Z 1001eb80 f i tab_Login.obj
 0001:0001db80       ??$_Kfn@$$CBV?$basic_string@DU?$char_traits@D@std@@V?$allocator@D@2@@std@@I@?$_Umap_traits@V?$basic_string@DU?$char_traits@D@std@@V?$allocator@D@2@@std@@IV?$_Uhash_compare@V?$basic_string@DU?$char_traits@D@std@@V?$allocator@D@2@@std@@U?$hash@V?$basic_string@DU?$char_traits@D@std@@V?$allocator@D@2@@std@@@2@U?$equal_to@V?$basic_string@DU?$char_traits@D@std@@V?$allocator@D@2@@std@@@2@@2@V?$allocator@U?$pair@$$CBV?$basic_string@DU?$char_traits@D@std@@V?$allocator@D@2@@std@@I@std@@@2@$0A@@std@@SAABV?$basic_string@DU?$char_traits@D@std@@V?$allocator@D@2@@1@ABU?$pair@$$CBV?$basic_string@DU?$char_traits@D@std@@V?$allocator@D@2@@std@@I@1@@Z 1001eb80 f i NetvarManager.obj
 0001:0001db80       ??$forward@ABV?$basic_string@DU?$char_traits@D@std@@V?$allocator@D@2@@std@@@std@@YAABV?$basic_string@DU?$char_traits@D@std@@V?$allocator@D@2@@0@ABV10@@Z 1001eb80 f i Config.obj
 0001:0001db80       ??$_Const_cast@$$CBU?$pair@VVector@@VQAngle@@@std@@@std@@YAPAU?$pair@VVector@@VQAngle@@@0@PBU10@@Z 1001eb80 f i grenadetracer.obj
 0001:0001db80       ??$forward@ABVVector@@@std@@YAABVVector@@ABV1@@Z 1001eb80 f i grenadetracer.obj
 0001:0001db80       ??$forward@AAY0N@$$CBD@std@@YAAAY0N@$$CBDAAY0N@$$CBD@Z 1001eb80 f i Config.obj
 0001:0001db80       ??$_Unfancy@I@std@@YAPAIPAI@Z 1001eb80 f i Protobuffs.obj
 0001:0001db80       ??$_Unfancy@V?$basic_json@Vmap@std@@Vvector@2@V?$basic_string@DU?$char_traits@D@std@@V?$allocator@D@2@@2@_N_J_KNVallocator@2@Uadl_serializer@nlohmann@@@nlohmann@@@std@@YAPAV?$basic_json@Vmap@std@@Vvector@2@V?$basic_string@DU?$char_traits@D@std@@V?$allocator@D@2@@2@_N_J_KNVallocator@2@Uadl_serializer@nlohmann@@@nlohmann@@PAV12@@Z 1001eb80 f i Config.obj
 0001:0001db80       ??$move@AAU?$pair@V?$basic_string@DU?$char_traits@D@std@@V?$allocator@D@2@@std@@VColor@@@std@@@std@@YA$$QAU?$pair@V?$basic_string@DU?$char_traits@D@std@@V?$allocator@D@2@@std@@VColor@@@0@AAU10@@Z 1001eb80 f i Visuals.obj
 0001:0001db80       ??$forward@ABV?$allocator@I@std@@@std@@YAABV?$allocator@I@0@ABV10@@Z 1001eb80 f i Protobuffs.obj
 0001:0001db80       ??$forward@AAY06$$CBD@std@@YAAAY06$$CBDAAY06$$CBD@Z 1001eb80 f i Config.obj
 0001:0001db80       ??$forward@AAY0BH@$$CBD@std@@YAAAY0BH@$$CBDAAY0BH@$$CBD@Z 1001eb80 f i Aimbot.obj
 0001:0001db80       ?_Extract@?$_In_place_key_extract_map@V?$basic_string@DU?$char_traits@D@std@@V?$allocator@D@2@@std@@V12@I@std@@SAABV?$basic_string@DU?$char_traits@D@std@@V?$allocator@D@2@@2@ABV32@ABI@Z 1001eb80 f i NetvarManager.obj
 0001:0001db80       ??$move@ABV?$basic_string@DU?$char_traits@D@std@@V?$allocator@D@2@@std@@@std@@YA$$QBV?$basic_string@DU?$char_traits@D@std@@V?$allocator@D@2@@0@ABV10@@Z 1001eb80 f i Interfaces.obj
 0001:0001db80       ??$forward@ABV?$_List_unchecked_iterator@V?$_List_val@U?$_List_simple_types@U?$pair@$$CBV?$basic_string@DU?$char_traits@D@std@@V?$allocator@D@2@@std@@I@std@@@std@@@std@@@std@@@std@@YAABV?$_List_unchecked_iterator@V?$_List_val@U?$_List_simple_types@U?$pair@$$CBV?$basic_string@DU?$char_traits@D@std@@V?$allocator@D@2@@std@@I@std@@@std@@@std@@@0@ABV10@@Z 1001eb80 f i NetvarManager.obj
 0001:0001db80       ??$forward@ABV?$allocator@PBD@std@@@std@@YAABV?$allocator@PBD@0@ABV10@@Z 1001eb80 f i Hooks.obj
 0001:0001db80       ??$_Unfancy@U_Container_proxy@std@@@std@@YAPAU_Container_proxy@0@PAU10@@Z 1001eb80 f i LagComp.obj
 0001:0001db80       ??$addressof@V?$_Tree_val@U?$_Tree_simple_types@U?$pair@$$CBHPAVCWindow@@@std@@@std@@@std@@@std@@YAPAV?$_Tree_val@U?$_Tree_simple_types@U?$pair@$$CBHPAVCWindow@@@std@@@std@@@0@AAV10@@Z 1001eb80 f i GUI.obj
 0001:0001db80       ??$forward@AAPAUNetvarTable@@@std@@YAAAPAUNetvarTable@@AAPAU1@@Z 1001eb80 f i NetvarManager.obj
 0001:0001db80       ??$_Unfancy@Vtrace_info@bullettracers@@@std@@YAPAVtrace_info@bullettracers@@PAV12@@Z 1001eb80 f i bullettracers.obj
 0001:0001db80       ??$forward@ABV?$allocator@_W@std@@@std@@YAABV?$allocator@_W@0@ABV10@@Z 1001eb80 f i Config.obj
 0001:0001db80       ??$forward@ABQAU?$_List_node@U?$pair@$$CBV?$basic_string@DU?$char_traits@D@std@@V?$allocator@D@2@@std@@I@std@@PAX@std@@@std@@YAABQAU?$_List_node@U?$pair@$$CBV?$basic_string@DU?$char_traits@D@std@@V?$allocator@D@2@@std@@I@std@@PAX@0@ABQAU10@@Z 1001eb80 f i NetvarManager.obj
 0001:0001db80       ??$forward@PAU?$_Tree_node@U?$pair@$$CBV?$basic_string@DU?$char_traits@D@std@@V?$allocator@D@2@@std@@V?$basic_json@Vmap@std@@Vvector@2@V?$basic_string@DU?$char_traits@D@std@@V?$allocator@D@2@@2@_N_J_KNVallocator@2@Uadl_serializer@nlohmann@@@nlohmann@@@std@@PAX@std@@@std@@YA$$QAPAU?$_Tree_node@U?$pair@$$CBV?$basic_string@DU?$char_traits@D@std@@V?$allocator@D@2@@std@@V?$basic_json@Vmap@std@@Vvector@2@V?$basic_string@DU?$char_traits@D@std@@V?$allocator@D@2@@2@_N_J_KNVallocator@2@Uadl_serializer@nlohmann@@@nlohmann@@@std@@PAX@0@AAPAU10@@Z 1001eb80 f i Config.obj
 0001:0001db80       ??$forward@UVertex_t@@@std@@YA$$QAUVertex_t@@AAU1@@Z 1001eb80 f i Visuals.obj
 0001:0001db80       ??$forward@V?$tuple@ABQAD@std@@@std@@YA$$QAV?$tuple@ABQAD@0@AAV10@@Z 1001eb80 f i skinchanger.obj
 0001:0001db80       ??$forward@ABUhitmarker_info@@@std@@YAABUhitmarker_info@@ABU1@@Z 1001eb80 f i otheresp.obj
 0001:0001db80       ??$move@AAPAVColor@@@std@@YA$$QAPAVColor@@AAPAV1@@Z 1001eb80 f i Config.obj
 0001:0001db80       ??$forward@AAV?$basic_json@Vmap@std@@Vvector@2@V?$basic_string@DU?$char_traits@D@std@@V?$allocator@D@2@@2@_N_J_KNVallocator@2@Uadl_serializer@nlohmann@@@nlohmann@@@std@@YAAAV?$basic_json@Vmap@std@@Vvector@2@V?$basic_string@DU?$char_traits@D@std@@V?$allocator@D@2@@2@_N_J_KNVallocator@2@Uadl_serializer@nlohmann@@@nlohmann@@AAV12@@Z 1001eb80 f i Config.obj
 0001:0001db80       ??$forward@AAPAV?$map@V?$basic_string@DU?$char_traits@D@std@@V?$allocator@D@2@@std@@V?$basic_json@Vmap@std@@Vvector@2@V?$basic_string@DU?$char_traits@D@std@@V?$allocator@D@2@@2@_N_J_KNVallocator@2@Uadl_serializer@nlohmann@@@nlohmann@@U?$less@X@2@V?$allocator@U?$pair@$$CBV?$basic_string@DU?$char_traits@D@std@@V?$allocator@D@2@@std@@V?$basic_json@Vmap@std@@Vvector@2@V?$basic_string@DU?$char_traits@D@std@@V?$allocator@D@2@@2@_N_J_KNVallocator@2@Uadl_serializer@nlohmann@@@nlohmann@@@std@@@2@@std@@@std@@YAAAPAV?$map@V?$basic_string@DU?$char_traits@D@std@@V?$allocator@D@2@@std@@V?$basic_json@Vmap@std@@Vvector@2@V?$basic_string@DU?$char_traits@D@std@@V?$allocator@D@2@@2@_N_J_KNVallocator@2@Uadl_serializer@nlohmann@@@nlohmann@@U?$less@X@2@V?$allocator@U?$pair@$$CBV?$basic_string@DU?$char_traits@D@std@@V?$allocator@D@2@@std@@V?$basic_json@Vmap@std@@Vvector@2@V?$basic_string@DU?$char_traits@D@std@@V?$allocator@D@2@@2@_N_J_KNVallocator@2@Uadl_serializer@nlohmann@@@nlohmann@@@std@@@2@@0@AAPAV10@@Z 1001eb80 f i Config.obj
 0001:0001db80       ??$forward@AAY0BG@$$CBD@std@@YAAAY0BG@$$CBDAAY0BG@$$CBD@Z 1001eb80 f i Config.obj
 0001:0001db80       ??$_Refancy@PAD$0A@@std@@YAPADPAD@Z 1001eb80 f i Hooks.obj
 0001:0001db80       ??$forward@PAU?$_List_node@U?$pair@QADPAD@std@@PAX@std@@@std@@YA$$QAPAU?$_List_node@U?$pair@QADPAD@std@@PAX@0@AAPAU10@@Z 1001eb80 f i skinchanger.obj
 0001:0001db80       ??$move@AAV?$shared_ptr@U?$output_adapter_protocol@D@detail@nlohmann@@@std@@@std@@YA$$QAV?$shared_ptr@U?$output_adapter_protocol@D@detail@nlohmann@@@0@AAV10@@Z 1001eb80 f i Config.obj
 0001:0001db80       ??$forward@ABV<lambda_1>@?1???$create@V?$basic_string@DU?$char_traits@D@std@@V?$allocator@D@2@@std@@AAY00$$CBD@?$basic_json@Vmap@std@@Vvector@2@V?$basic_string@DU?$char_traits@D@std@@V?$allocator@D@2@@2@_N_J_KNVallocator@2@Uadl_serializer@nlohmann@@@nlohmann@@CAPAV?$basic_string@DU?$char_traits@D@std@@V?$allocator@D@2@@std@@AAY00$$CBD@Z@@std@@YAABV<lambda_1>@?1???$create@V?$basic_string@DU?$char_traits@D@std@@V?$allocator@D@2@@std@@AAY00$$CBD@?$basic_json@Vmap@std@@Vvector@2@V?$basic_string@DU?$char_traits@D@std@@V?$allocator@D@2@@2@_N_J_KNVallocator@2@Uadl_serializer@nlohmann@@@nlohmann@@CAPAV?$basic_string@DU?$char_traits@D@std@@V?$allocator@D@2@@0@AAY00$$CBD@Z@ABV1?1???$create@V?$basic_string@DU?$char_traits@D@std@@V?$allocator@D@2@@std@@AAY00$$CBD@23@CAPAV40@0@Z@@Z 1001eb80 f i Config.obj
 0001:0001db80       ??$forward@ABV<lambda_1>@?1???$create@V?$basic_string@DU?$char_traits@D@std@@V?$allocator@D@2@@std@@AAY04$$CBD@?$basic_json@Vmap@std@@Vvector@2@V?$basic_string@DU?$char_traits@D@std@@V?$allocator@D@2@@2@_N_J_KNVallocator@2@Uadl_serializer@nlohmann@@@nlohmann@@CAPAV?$basic_string@DU?$char_traits@D@std@@V?$allocator@D@2@@std@@AAY04$$CBD@Z@@std@@YAABV<lambda_1>@?1???$create@V?$basic_string@DU?$char_traits@D@std@@V?$allocator@D@2@@std@@AAY04$$CBD@?$basic_json@Vmap@std@@Vvector@2@V?$basic_string@DU?$char_traits@D@std@@V?$allocator@D@2@@2@_N_J_KNVallocator@2@Uadl_serializer@nlohmann@@@nlohmann@@CAPAV?$basic_string@DU?$char_traits@D@std@@V?$allocator@D@2@@0@AAY04$$CBD@Z@ABV1?1???$create@V?$basic_string@DU?$char_traits@D@std@@V?$allocator@D@2@@std@@AAY04$$CBD@23@CAPAV40@0@Z@@Z 1001eb80 f i tab_Login.obj
 0001:0001db80       ??$_Kfn@QADPAD@?$_Umap_traits@PADPADV?$_Uhash_compare@PADU?$hash@PAD@std@@U?$equal_to@PAD@2@@std@@V?$allocator@U?$pair@QADPAD@std@@@2@$0A@@std@@SAABQADABU?$pair@QADPAD@1@@Z 1001eb80 f i skinchanger.obj
 0001:0001db80       ??$_Unfancy_maybe_null@H@std@@YAPAHPAH@Z 1001eb80 f i Hooks.obj
 0001:0001db80       ??$forward@V?$tuple@ABV?$basic_string@DU?$char_traits@D@std@@V?$allocator@D@2@@std@@@std@@@std@@YA$$QAV?$tuple@ABV?$basic_string@DU?$char_traits@D@std@@V?$allocator@D@2@@std@@@0@AAV10@@Z 1001eb80 f i Config.obj
 0001:0001db80       ??$forward@ABV?$allocator@U?$pair@$$CBV?$basic_string@DU?$char_traits@D@std@@V?$allocator@D@2@@std@@V?$unique_ptr@UNetvarTable@@U?$default_delete@UNetvarTable@@@std@@@2@@std@@@std@@@std@@YAABV?$allocator@U?$pair@$$CBV?$basic_string@DU?$char_traits@D@std@@V?$allocator@D@2@@std@@V?$unique_ptr@UNetvarTable@@U?$default_delete@UNetvarTable@@@std@@@2@@std@@@0@ABV10@@Z 1001eb80 f i NetvarManager.obj
 0001:0001db80       ??$move@AAUField@@@std@@YA$$QAUField@@AAU1@@Z 1001eb80 f i Protobuffs.obj
 0001:0001db80       ??$move@AAV?$unique_ptr@UNetvarTable@@U?$default_delete@UNetvarTable@@@std@@@std@@@std@@YA$$QAV?$unique_ptr@UNetvarTable@@U?$default_delete@UNetvarTable@@@std@@@0@AAV10@@Z 1001eb80 f i NetvarManager.obj
 0001:0001db80       ??$forward@PAVC_BaseEntity@@@std@@YA$$QAPAVC_BaseEntity@@AAPAV1@@Z 1001eb80 f i Hooks.obj
 0001:0001db80       ??$forward@AAPA_W@std@@YAAAPA_WAAPA_W@Z 1001eb80 f i grenadetracer.obj
 0001:0001db80       ??$forward@ABV<lambda_1>@?1???$create@V?$basic_string@DU?$char_traits@D@std@@V?$allocator@D@2@@std@@ABV12@@?$basic_json@Vmap@std@@Vvector@2@V?$basic_string@DU?$char_traits@D@std@@V?$allocator@D@2@@2@_N_J_KNVallocator@2@Uadl_serializer@nlohmann@@@nlohmann@@CAPAV?$basic_string@DU?$char_traits@D@std@@V?$allocator@D@2@@std@@ABV45@@Z@@std@@YAABV<lambda_1>@?1???$create@V?$basic_string@DU?$char_traits@D@std@@V?$allocator@D@2@@std@@ABV12@@?$basic_json@Vmap@std@@Vvector@2@V?$basic_string@DU?$char_traits@D@std@@V?$allocator@D@2@@2@_N_J_KNVallocator@2@Uadl_serializer@nlohmann@@@nlohmann@@CAPAV?$basic_string@DU?$char_traits@D@std@@V?$allocator@D@2@@0@ABV40@@Z@ABV1?1???$create@V?$basic_string@DU?$char_traits@D@std@@V?$allocator@D@2@@std@@ABV12@@23@CAPAV40@0@Z@@Z 1001eb80 f i Config.obj
 0001:0001db80       ??$_Refancy@PAPAVDot@@$0A@@std@@YAPAPAVDot@@PAPAV1@@Z 1001eb80 f i Drops+.obj
 0001:0001db80       ??$addressof@$$CBV?$_List_val@U?$_List_simple_types@U?$pair@$$CBV?$basic_string@DU?$char_traits@D@std@@V?$allocator@D@2@@std@@I@std@@@std@@@std@@@std@@YAPBV?$_List_val@U?$_List_simple_types@U?$pair@$$CBV?$basic_string@DU?$char_traits@D@std@@V?$allocator@D@2@@std@@I@std@@@std@@@0@ABV10@@Z 1001eb80 f i NetvarManager.obj
 0001:0001db80       ??$addressof@U?$pair@$$CBHPAVCWindow@@@std@@@std@@YAPAU?$pair@$$CBHPAVCWindow@@@0@AAU10@@Z 1001eb80 f i GUI.obj
 0001:0001db80       ??$forward@AAVConfigFile@@@std@@YAAAVConfigFile@@AAV1@@Z 1001eb80 f i Config.obj
 0001:0001db80       ??$addressof@$$CBV?$_Deque_val@U?$_Deque_simple_types@UPlayerRecords@@@std@@@std@@@std@@YAPBV?$_Deque_val@U?$_Deque_simple_types@UPlayerRecords@@@std@@@0@ABV10@@Z 1001eb80 f i LagComp.obj
 0001:0001db80       ??$addressof@V?$_Vector_val@U?$_Simple_types@VVector@@@std@@@std@@@std@@YAPAV?$_Vector_val@U?$_Simple_types@VVector@@@std@@@0@AAV10@@Z 1001eb80 f i grenadetracer.obj
 0001:0001db80       ??$forward@AAY0L@$$CBD@std@@YAAAY0L@$$CBDAAY0L@$$CBD@Z 1001eb80 f i Config.obj
 0001:0001db80       ??$addressof@V?$basic_string@_WU?$char_traits@_W@std@@V?$allocator@_W@2@@std@@@std@@YAPAV?$basic_string@_WU?$char_traits@_W@std@@V?$allocator@_W@2@@0@AAV10@@Z 1001eb80 f i Config.obj
 0001:0001db80       ??$move@AAPAV_Ref_count_base@std@@@std@@YA$$QAPAV_Ref_count_base@0@AAPAV10@@Z 1001eb80 f i Config.obj
 0001:0001db80       ??$forward@U_Find_file_handle@filesystem@std@@@std@@YA$$QAU_Find_file_handle@filesystem@0@AAU120@@Z 1001eb80 f i Config.obj
 0001:0001db80       ??$forward@ABV<lambda_1>@?1???$create@V?$basic_string@DU?$char_traits@D@std@@V?$allocator@D@2@@std@@AAY0PP@$$CBD@?$basic_json@Vmap@std@@Vvector@2@V?$basic_string@DU?$char_traits@D@std@@V?$allocator@D@2@@2@_N_J_KNVallocator@2@Uadl_serializer@nlohmann@@@nlohmann@@CAPAV?$basic_string@DU?$char_traits@D@std@@V?$allocator@D@2@@std@@AAY0PP@$$CBD@Z@@std@@YAABV<lambda_1>@?1???$create@V?$basic_string@DU?$char_traits@D@std@@V?$allocator@D@2@@std@@AAY0PP@$$CBD@?$basic_json@Vmap@std@@Vvector@2@V?$basic_string@DU?$char_traits@D@std@@V?$allocator@D@2@@2@_N_J_KNVallocator@2@Uadl_serializer@nlohmann@@@nlohmann@@CAPAV?$basic_string@DU?$char_traits@D@std@@V?$allocator@D@2@@0@AAY0PP@$$CBD@Z@ABV1?1???$create@V?$basic_string@DU?$char_traits@D@std@@V?$allocator@D@2@@std@@AAY0PP@$$CBD@23@CAPAV40@0@Z@@Z 1001eb80 f i tab_Login.obj
 0001:0001db80       ??$_Kfn@$$CBV?$basic_string@DU?$char_traits@D@std@@V?$allocator@D@2@@std@@V?$unique_ptr@UNetvarTable@@U?$default_delete@UNetvarTable@@@std@@@2@@?$_Umap_traits@V?$basic_string@DU?$char_traits@D@std@@V?$allocator@D@2@@std@@V?$unique_ptr@UNetvarTable@@U?$default_delete@UNetvarTable@@@std@@@2@V?$_Uhash_compare@V?$basic_string@DU?$char_traits@D@std@@V?$allocator@D@2@@std@@U?$hash@V?$basic_string@DU?$char_traits@D@std@@V?$allocator@D@2@@std@@@2@U?$equal_to@V?$basic_string@DU?$char_traits@D@std@@V?$allocator@D@2@@std@@@2@@2@V?$allocator@U?$pair@$$CBV?$basic_string@DU?$char_traits@D@std@@V?$allocator@D@2@@std@@V?$unique_ptr@UNetvarTable@@U?$default_delete@UNetvarTable@@@std@@@2@@std@@@2@$0A@@std@@SAABV?$basic_string@DU?$char_traits@D@std@@V?$allocator@D@2@@1@ABU?$pair@$$CBV?$basic_string@DU?$char_traits@D@std@@V?$allocator@D@2@@std@@V?$unique_ptr@UNetvarTable@@U?$default_delete@UNetvarTable@@@std@@@2@@1@@Z 1001eb80 f i NetvarManager.obj
 0001:0001db80       ??$forward@V?$allocator@H@std@@@std@@YA$$QAV?$allocator@H@0@AAV10@@Z 1001eb80 f i Hooks.obj
 0001:0001db80       ??$addressof@V?$basic_stringbuf@_WU?$char_traits@_W@std@@V?$allocator@_W@2@@std@@@std@@YAPAV?$basic_stringbuf@_WU?$char_traits@_W@std@@V?$allocator@_W@2@@0@AAV10@@Z 1001eb80 f i Hooks.obj
 0001:0001db80       ??$forward@V?$_List_iterator@V?$_List_val@U?$_List_simple_types@U?$pair@$$CBV?$basic_string@DU?$char_traits@D@std@@V?$allocator@D@2@@std@@V?$unique_ptr@UNetvarTable@@U?$default_delete@UNetvarTable@@@std@@@2@@std@@@std@@@std@@@std@@@std@@YA$$QAV?$_List_iterator@V?$_List_val@U?$_List_simple_types@U?$pair@$$CBV?$basic_string@DU?$char_traits@D@std@@V?$allocator@D@2@@std@@V?$unique_ptr@UNetvarTable@@U?$default_delete@UNetvarTable@@@std@@@2@@std@@@std@@@std@@@0@AAV10@@Z 1001eb80 f i NetvarManager.obj
 0001:0001db80       ??$forward@AAH@std@@YAAAHAAH@Z 1001eb80 f i Config.obj
 0001:0001db80       ??$addressof@$$CBV?$vector@U?$pair@HPBD@std@@V?$allocator@U?$pair@HPBD@std@@@2@@std@@@std@@YAPBV?$vector@U?$pair@HPBD@std@@V?$allocator@U?$pair@HPBD@std@@@2@@0@ABV10@@Z 1001eb80 f i tab_Skin_Changer.obj
 0001:0001db80       ??$move@AAVVector@@@std@@YA$$QAVVector@@AAV1@@Z 1001eb80 f i grenadetracer.obj
 0001:0001db80       ??$forward@ABV<lambda_1>@?1???$create@V?$vector@V?$basic_json@Vmap@std@@Vvector@2@V?$basic_string@DU?$char_traits@D@std@@V?$allocator@D@2@@2@_N_J_KNVallocator@2@Uadl_serializer@nlohmann@@@nlohmann@@V?$allocator@V?$basic_json@Vmap@std@@Vvector@2@V?$basic_string@DU?$char_traits@D@std@@V?$allocator@D@2@@2@_N_J_KNVallocator@2@Uadl_serializer@nlohmann@@@nlohmann@@@std@@@std@@$$V@?$basic_json@Vmap@std@@Vvector@2@V?$basic_string@DU?$char_traits@D@std@@V?$allocator@D@2@@2@_N_J_KNVallocator@2@Uadl_serializer@nlohmann@@@nlohmann@@CAPAV?$vector@V?$basic_json@Vmap@std@@Vvector@2@V?$basic_string@DU?$char_traits@D@std@@V?$allocator@D@2@@2@_N_J_KNVallocator@2@Uadl_serializer@nlohmann@@@nlohmann@@V?$allocator@V?$basic_json@Vmap@std@@Vvector@2@V?$basic_string@DU?$char_traits@D@std@@V?$allocator@D@2@@2@_N_J_KNVallocator@2@Uadl_serializer@nlohmann@@@nlohmann@@@std@@@std@@XZ@@std@@YAABV<lambda_1>@?1???$create@V?$vector@V?$basic_json@Vmap@std@@Vvector@2@V?$basic_string@DU?$char_traits@D@std@@V?$allocator@D@2@@2@_N_J_KNVallocator@2@Uadl_serializer@nlohmann@@@nlohmann@@V?$allocator@V?$basic_json@Vmap@std@@Vvector@2@V?$basic_string@DU?$char_traits@D@std@@V?$allocator@D@2@@2@_N_J_KNVallocator@2@Uadl_serializer@nlohmann@@@nlohmann@@@std@@@std@@$$V@?$basic_json@Vmap@std@@Vvector@2@V?$basic_string@DU?$char_traits@D@std@@V?$allocator@D@2@@2@_N_J_KNVallocator@2@Uadl_serializer@nlohmann@@@nlohmann@@CAPAV?$vector@V?$basic_json@Vmap@std@@Vvector@2@V?$basic_string@DU?$char_traits@D@std@@V?$allocator@D@2@@2@_N_J_KNVallocator@2@Uadl_serializer@nlohmann@@@nlohmann@@V?$allocator@V?$basic_json@Vmap@std@@Vvector@2@V?$basic_string@DU?$char_traits@D@std@@V?$allocator@D@2@@2@_N_J_KNVallocator@2@Uadl_serializer@nlohmann@@@nlohmann@@@std@@@0@XZ@ABV1?1???$create@V?$vector@V?$basic_json@Vmap@std@@Vvector@2@V?$basic_string@DU?$char_traits@D@std@@V?$allocator@D@2@@2@_N_J_KNVallocator@2@Uadl_serializer@nlohmann@@@nlohmann@@V?$allocator@V?$basic_json@Vmap@std@@Vvector@2@V?$basic_string@DU?$char_traits@D@std@@V?$allocator@D@2@@2@_N_J_KNVallocator@2@Uadl_serializer@nlohmann@@@nlohmann@@@std@@@std@@$$V@23@CAPAV40@XZ@@Z 1001eb80 f i Config.obj
 0001:0001db80       ??$forward@V?$allocator@V?$basic_string@DU?$char_traits@D@std@@V?$allocator@D@2@@std@@@std@@@std@@YA$$QAV?$allocator@V?$basic_string@DU?$char_traits@D@std@@V?$allocator@D@2@@std@@@0@AAV10@@Z 1001eb80 f i Config.obj
 0001:0001db80       ??$forward@ABU?$less@X@std@@@std@@YAABU?$less@X@0@ABU10@@Z 1001eb80 f i Config.obj
 0001:0001db80       ??$forward@ABV?$json_ref@V?$basic_json@Vmap@std@@Vvector@2@V?$basic_string@DU?$char_traits@D@std@@V?$allocator@D@2@@2@_N_J_KNVallocator@2@Uadl_serializer@nlohmann@@@nlohmann@@@detail@nlohmann@@@std@@YAABV?$json_ref@V?$basic_json@Vmap@std@@Vvector@2@V?$basic_string@DU?$char_traits@D@std@@V?$allocator@D@2@@2@_N_J_KNVallocator@2@Uadl_serializer@nlohmann@@@nlohmann@@@detail@nlohmann@@ABV123@@Z 1001eb80 f i tab_Login.obj
 0001:0001db80       ??$addressof@PAD@std@@YAPAPADAAPAD@Z 1001eb80 f i CFixMove.obj
 0001:0001db80       ??$move@AAUnotify_data_t@@@std@@YA$$QAUnotify_data_t@@AAU1@@Z 1001eb80 f i notifies.obj
 0001:0001db80       ??$forward@ABV?$allocator@D@std@@@std@@YAABV?$allocator@D@0@ABV10@@Z 1001eb80 f i Config.obj
 0001:0001db80       ?_Extract@?$_In_place_key_extract_map@V?$basic_string@DU?$char_traits@D@std@@V?$allocator@D@2@@std@@V12@V?$unique_ptr@UNetvarTable@@U?$default_delete@UNetvarTable@@@std@@@2@@std@@SAABV?$basic_string@DU?$char_traits@D@std@@V?$allocator@D@2@@2@ABV32@ABV?$unique_ptr@UNetvarTable@@U?$default_delete@UNetvarTable@@@std@@@2@@Z 1001eb80 f i NetvarManager.obj
 0001:0001db80       ??$forward@AAY0BI@$$CBD@std@@YAAAY0BI@$$CBDAAY0BI@$$CBD@Z 1001eb80 f i Config.obj
 0001:0001db80       ??$forward@PBV?$json_ref@V?$basic_json@Vmap@std@@Vvector@2@V?$basic_string@DU?$char_traits@D@std@@V?$allocator@D@2@@2@_N_J_KNVallocator@2@Uadl_serializer@nlohmann@@@nlohmann@@@detail@nlohmann@@@std@@YA$$QAPBV?$json_ref@V?$basic_json@Vmap@std@@Vvector@2@V?$basic_string@DU?$char_traits@D@std@@V?$allocator@D@2@@2@_N_J_KNVallocator@2@Uadl_serializer@nlohmann@@@nlohmann@@@detail@nlohmann@@AAPBV123@@Z 1001eb80 f i tab_Login.obj
 0001:0001db80       ??$move@AAW4value_t@detail@nlohmann@@@std@@YA$$QAW4value_t@detail@nlohmann@@AAW4123@@Z 1001eb80 f i Config.obj
 0001:0001db80       ??$addressof@V?$_List_val@U?$_List_simple_types@U?$pair@$$CBV?$basic_string@DU?$char_traits@D@std@@V?$allocator@D@2@@std@@I@std@@@std@@@std@@@std@@YAPAV?$_List_val@U?$_List_simple_types@U?$pair@$$CBV?$basic_string@DU?$char_traits@D@std@@V?$allocator@D@2@@std@@I@std@@@std@@@0@AAV10@@Z 1001eb80 f i NetvarManager.obj
 0001:0001db80       ??$forward@AAY00$$CBD@std@@YAAAY00$$CBDAAY00$$CBD@Z 1001eb80 f i Config.obj
 0001:0001db80       ??$forward@ABQA_W@std@@YAABQA_WABQA_W@Z 1001eb80 f i Config.obj
 0001:0001db80       ??$forward@AAY0BB@$$CBD@std@@YAAAY0BB@$$CBDAAY0BB@$$CBD@Z 1001eb80 f i Config.obj
 0001:0001db80       ??$_Unfancy@PBD@std@@YAPAPBDPAPBD@Z 1001eb80 f i Hooks.obj
 0001:0001db80       ??$_Kfn@$$CBV?$basic_string@DU?$char_traits@D@std@@V?$allocator@D@2@@std@@V?$basic_json@Vmap@std@@Vvector@2@V?$basic_string@DU?$char_traits@D@std@@V?$allocator@D@2@@2@_N_J_KNVallocator@2@Uadl_serializer@nlohmann@@@nlohmann@@@?$_Tmap_traits@V?$basic_string@DU?$char_traits@D@std@@V?$allocator@D@2@@std@@V?$basic_json@Vmap@std@@Vvector@2@V?$basic_string@DU?$char_traits@D@std@@V?$allocator@D@2@@2@_N_J_KNVallocator@2@Uadl_serializer@nlohmann@@@nlohmann@@U?$less@X@2@V?$allocator@U?$pair@$$CBV?$basic_string@DU?$char_traits@D@std@@V?$allocator@D@2@@std@@V?$basic_json@Vmap@std@@Vvector@2@V?$basic_string@DU?$char_traits@D@std@@V?$allocator@D@2@@2@_N_J_KNVallocator@2@Uadl_serializer@nlohmann@@@nlohmann@@@std@@@2@$0A@@std@@SAABV?$basic_string@DU?$char_traits@D@std@@V?$allocator@D@2@@1@ABU?$pair@$$CBV?$basic_string@DU?$char_traits@D@std@@V?$allocator@D@2@@std@@V?$basic_json@Vmap@std@@Vvector@2@V?$basic_string@DU?$char_traits@D@std@@V?$allocator@D@2@@2@_N_J_KNVallocator@2@Uadl_serializer@nlohmann@@@nlohmann@@@1@@Z 1001eb80 f i Config.obj
 0001:0001db80       ??$forward@PAVDot@@@std@@YA$$QAPAVDot@@AAPAV1@@Z 1001eb80 f i Drops+.obj
 0001:0001db80       ??$_Unfancy@UField@@@std@@YAPAUField@@PAU1@@Z 1001eb80 f i Protobuffs.obj
 0001:0001db80       ??$addressof@V?$basic_filebuf@DU?$char_traits@D@std@@@std@@@std@@YAPAV?$basic_filebuf@DU?$char_traits@D@std@@@0@AAV10@@Z 1001eb80 f i Config.obj
 0001:0001db80       ??$forward@AB_N@std@@YAAB_NAB_N@Z 1001eb80 f i Config.obj
 0001:0001db80       ??$_Unfancy@V?$basic_string@DU?$char_traits@D@std@@V?$allocator@D@2@@std@@@std@@YAPAV?$basic_string@DU?$char_traits@D@std@@V?$allocator@D@2@@0@PAV10@@Z 1001eb80 f i Config.obj
 0001:0001db80       ??$addressof@V?$_Vector_val@U?$_Simple_types@U?$pair@VVector@@VQAngle@@@std@@@std@@@std@@@std@@YAPAV?$_Vector_val@U?$_Simple_types@U?$pair@VVector@@VQAngle@@@std@@@std@@@0@AAV10@@Z 1001eb80 f i grenadetracer.obj
 0001:0001db80       ??$forward@AAPAV?$vector@V?$basic_json@Vmap@std@@Vvector@2@V?$basic_string@DU?$char_traits@D@std@@V?$allocator@D@2@@2@_N_J_KNVallocator@2@Uadl_serializer@nlohmann@@@nlohmann@@V?$allocator@V?$basic_json@Vmap@std@@Vvector@2@V?$basic_string@DU?$char_traits@D@std@@V?$allocator@D@2@@2@_N_J_KNVallocator@2@Uadl_serializer@nlohmann@@@nlohmann@@@std@@@std@@@std@@YAAAPAV?$vector@V?$basic_json@Vmap@std@@Vvector@2@V?$basic_string@DU?$char_traits@D@std@@V?$allocator@D@2@@2@_N_J_KNVallocator@2@Uadl_serializer@nlohmann@@@nlohmann@@V?$allocator@V?$basic_json@Vmap@std@@Vvector@2@V?$basic_string@DU?$char_traits@D@std@@V?$allocator@D@2@@2@_N_J_KNVallocator@2@Uadl_serializer@nlohmann@@@nlohmann@@@std@@@0@AAPAV10@@Z 1001eb80 f i Config.obj
 0001:0001db80       ??$move@AAUPlayerRecords@@@std@@YA$$QAUPlayerRecords@@AAU1@@Z 1001eb80 f i LagComp.obj
 0001:0001db80       ??$move@AAPB_W@std@@YA$$QAPB_WAAPB_W@Z 1001eb80 f i Config.obj
 0001:0001db80       ??$_Unfancy@V?$vector@UField@@V?$allocator@UField@@@std@@@std@@@std@@YAPAV?$vector@UField@@V?$allocator@UField@@@std@@@0@PAV10@@Z 1001eb80 f i Protobuffs.obj
 0001:0001db80       ??$forward@AAY0BD@$$CBD@std@@YAAAY0BD@$$CBDAAY0BD@$$CBD@Z 1001eb80 f i Config.obj
 0001:0001db80       ??$_Unfancy@VConfigFile@@@std@@YAPAVConfigFile@@PAV1@@Z 1001eb80 f i Config.obj
 0001:0001db80       ??$forward@AAY0PP@$$CBD@std@@YAAAY0PP@$$CBDAAY0PP@$$CBD@Z 1001eb80 f i tab_Login.obj
 0001:0001db80       ??$move@AAH@std@@YA$$QAHAAH@Z 1001eb80 f i Aimbot.obj
 0001:0001db80       ??$move@AAV?$shared_ptr@Uinput_adapter_protocol@detail@nlohmann@@@std@@@std@@YA$$QAV?$shared_ptr@Uinput_adapter_protocol@detail@nlohmann@@@0@AAV10@@Z 1001eb80 f i Config.obj
 0001:0001db80       ??$addressof@VColor@@@std@@YAPAVColor@@AAV1@@Z 1001eb80 f i Config.obj
 0001:0001db80       ??$forward@ABUimpact_info@@@std@@YAABUimpact_info@@ABU1@@Z 1001eb80 f i otheresp.obj
 0001:0001db80       ??$forward@AAUVertex_t@@@std@@YAAAUVertex_t@@AAU1@@Z 1001eb80 f i Visuals.obj
 0001:0001db80       ??$addressof@PA_W@std@@YAPAPA_WAAPA_W@Z 1001eb80 f i Config.obj
 0001:0001db80       ??$forward@V?$allocator@UField@@@std@@@std@@YA$$QAV?$allocator@UField@@@0@AAV10@@Z 1001eb80 f i Protobuffs.obj
 0001:0001db80       ??$move@AAV?$shared_ptr@Vinput_stream_adapter@detail@nlohmann@@@std@@@std@@YA$$QAV?$shared_ptr@Vinput_stream_adapter@detail@nlohmann@@@0@AAV10@@Z 1001eb80 f i Config.obj
 0001:0001db80       ??$move@AAV?$allocator@_W@std@@@std@@YA$$QAV?$allocator@_W@0@AAV10@@Z 1001eb80 f i Config.obj
 0001:0001db80       ??$forward@AAPAVNetvarDatabase@@@std@@YAAAPAVNetvarDatabase@@AAPAV1@@Z 1001eb80 f i NetvarManager.obj
 0001:0001db80       ??$forward@_N@std@@YA$$QA_NAA_N@Z 1001eb80 f i Config.obj
 0001:0001db80       ??$addressof@Vinput_stream_adapter@detail@nlohmann@@@std@@YAPAVinput_stream_adapter@detail@nlohmann@@AAV123@@Z 1001eb80 f i Config.obj
 0001:0001db80       ??$addressof@$$CBV?$_Vector_val@U?$_Simple_types@H@std@@@std@@@std@@YAPBV?$_Vector_val@U?$_Simple_types@H@std@@@0@ABV10@@Z 1001eb80 f i Aimbot.obj
 0001:0001db80       ??$forward@AA_N@std@@YAAA_NAA_N@Z 1001eb80 f i Config.obj
 0001:0001db80       ??$forward@V?$tuple@$$QAV?$basic_string@DU?$char_traits@D@std@@V?$allocator@D@2@@std@@@std@@@std@@YA$$QAV?$tuple@$$QAV?$basic_string@DU?$char_traits@D@std@@V?$allocator@D@2@@std@@@0@AAV10@@Z 1001eb80 f i Config.obj
 0001:0001db80       ??$addressof@$$CBV?$_Vector_val@U?$_Simple_types@V?$basic_json@Vmap@std@@Vvector@2@V?$basic_string@DU?$char_traits@D@std@@V?$allocator@D@2@@2@_N_J_KNVallocator@2@Uadl_serializer@nlohmann@@@nlohmann@@@std@@@std@@@std@@YAPBV?$_Vector_val@U?$_Simple_types@V?$basic_json@Vmap@std@@Vvector@2@V?$basic_string@DU?$char_traits@D@std@@V?$allocator@D@2@@2@_N_J_KNVallocator@2@Uadl_serializer@nlohmann@@@nlohmann@@@std@@@0@ABV10@@Z 1001eb80 f i Config.obj
 0001:0001db80       ??$forward@AAY02$$CBD@std@@YAAAY02$$CBDAAY02$$CBD@Z 1001eb80 f i Visuals.obj
 0001:0001db80       ??$forward@V?$allocator@V?$basic_json@Vmap@std@@Vvector@2@V?$basic_string@DU?$char_traits@D@std@@V?$allocator@D@2@@2@_N_J_KNVallocator@2@Uadl_serializer@nlohmann@@@nlohmann@@@std@@@std@@YA$$QAV?$allocator@V?$basic_json@Vmap@std@@Vvector@2@V?$basic_string@DU?$char_traits@D@std@@V?$allocator@D@2@@2@_N_J_KNVallocator@2@Uadl_serializer@nlohmann@@@nlohmann@@@0@AAV10@@Z 1001eb80 f i tab_Login.obj
 0001:0001db80       ??$addressof@V?$_Deque_val@U?$_Deque_simple_types@UPlayerRecords@@@std@@@std@@@std@@YAPAV?$_Deque_val@U?$_Deque_simple_types@UPlayerRecords@@@std@@@0@AAV10@@Z 1001eb80 f i Aimbot.obj
 0001:0001db80       ??$forward@AAM@std@@YAAAMAAM@Z 1001eb80 f i Config.obj
 0001:0001db80       ??$addressof@PAU?$_List_node@U?$pair@$$CBV?$basic_string@DU?$char_traits@D@std@@V?$allocator@D@2@@std@@V?$unique_ptr@UNetvarTable@@U?$default_delete@UNetvarTable@@@std@@@2@@std@@PAX@std@@@std@@YAPAPAU?$_List_node@U?$pair@$$CBV?$basic_string@DU?$char_traits@D@std@@V?$allocator@D@2@@std@@V?$unique_ptr@UNetvarTable@@U?$default_delete@UNetvarTable@@@std@@@2@@std@@PAX@0@AAPAU10@@Z 1001eb80 f i NetvarManager.obj
 0001:0001db80       ??$forward@H@std@@YA$$QAHAAH@Z 1001eb80 f i Config.obj
 0001:0001db80       ??$forward@VConfigFile@@@std@@YA$$QAVConfigFile@@AAV1@@Z 1001eb80 f i Config.obj
 0001:0001db80       ??$addressof@V?$_Vector_val@U?$_Simple_types@Vsound_info@@@std@@@std@@@std@@YAPAV?$_Vector_val@U?$_Simple_types@Vsound_info@@@std@@@0@AAV10@@Z 1001eb80 f i Hooks.obj
 0001:0001db80       ??$_Refancy@PBD$0A@@std@@YAPBDPBD@Z 1001eb80 f i Aimbot.obj
 0001:0001db80       ??$forward@U_Creator@_Dir_enum_impl@filesystem@std@@@std@@YA$$QAU_Creator@_Dir_enum_impl@filesystem@0@AAU1230@@Z 1001eb80 f i Config.obj
 0001:0001db80       ??$move@AAV?$tuple@$$QAV?$basic_string@DU?$char_traits@D@std@@V?$allocator@D@2@@std@@@std@@@std@@YA$$QAV?$tuple@$$QAV?$basic_string@DU?$char_traits@D@std@@V?$allocator@D@2@@std@@@0@AAV10@@Z 1001eb80 f i Config.obj
 0001:0001db80       ?_Extract@?$_In_place_key_extract_map@V?$basic_string@DU?$char_traits@D@std@@V?$allocator@D@2@@std@@V12@V?$basic_json@Vmap@std@@Vvector@2@V?$basic_string@DU?$char_traits@D@std@@V?$allocator@D@2@@2@_N_J_KNVallocator@2@Uadl_serializer@nlohmann@@@nlohmann@@@std@@SAABV?$basic_string@DU?$char_traits@D@std@@V?$allocator@D@2@@2@ABV32@ABV?$basic_json@Vmap@std@@Vvector@2@V?$basic_string@DU?$char_traits@D@std@@V?$allocator@D@2@@2@_N_J_KNVallocator@2@Uadl_serializer@nlohmann@@@nlohmann@@@Z 1001eb80 f i Config.obj
 0001:0001db80       ??$addressof@PAU?$_Tree_node@U?$pair@$$CBHPAVCWindow@@@std@@PAX@std@@@std@@YAPAPAU?$_Tree_node@U?$pair@$$CBHPAVCWindow@@@std@@PAX@0@AAPAU10@@Z 1001eb80 f i GUI.obj
 0001:0001db80       ?select_on_container_copy_construction@?$_Default_allocator_traits@V?$allocator@_W@std@@@std@@SA?AV?$allocator@_W@2@ABV32@@Z 1001eb80 f i Config.obj
 0001:0001db80       ??$forward@U_Zero_then_variadic_args_t@std@@@std@@YA$$QAU_Zero_then_variadic_args_t@0@AAU10@@Z 1001eb80 f i Config.obj
 0001:0001db80       ??$addressof@V?$_Vector_val@U?$_Simple_types@VConfigFile@@@std@@@std@@@std@@YAPAV?$_Vector_val@U?$_Simple_types@VConfigFile@@@std@@@0@AAV10@@Z 1001eb80 f i Config.obj
 0001:0001db80       ??$forward@AAY0BK@$$CBD@std@@YAAAY0BK@$$CBDAAY0BK@$$CBD@Z 1001eb80 f i NetvarManager.obj
 0001:0001db80       ??$addressof@$$CBV?$basic_string@DU?$char_traits@D@std@@V?$allocator@D@2@@std@@@std@@YAPBV?$basic_string@DU?$char_traits@D@std@@V?$allocator@D@2@@0@ABV10@@Z 1001eb80 f i Config.obj
 0001:0001db80       ??$forward@AAY0PP@D@std@@YAAAY0PP@DAAY0PP@D@Z 1001eb80 f i tab_Login.obj
 0001:0001db80       ?select_on_container_copy_construction@?$_Default_allocator_traits@V?$allocator@V?$basic_json@Vmap@std@@Vvector@2@V?$basic_string@DU?$char_traits@D@std@@V?$allocator@D@2@@2@_N_J_KNVallocator@2@Uadl_serializer@nlohmann@@@nlohmann@@@std@@@std@@SA?AV?$allocator@V?$basic_json@Vmap@std@@Vvector@2@V?$basic_string@DU?$char_traits@D@std@@V?$allocator@D@2@@2@_N_J_KNVallocator@2@Uadl_serializer@nlohmann@@@nlohmann@@@2@ABV32@@Z 1001eb80 f i tab_Login.obj
 0001:0001db80       ??$forward@D@std@@YA$$QADAAD@Z 1001eb80 f i Config.obj
 0001:0001db80       ??$addressof@$$CBV?$_List_val@U?$_List_simple_types@U?$pair@$$CBV?$basic_string@DU?$char_traits@D@std@@V?$allocator@D@2@@std@@V?$unique_ptr@UNetvarTable@@U?$default_delete@UNetvarTable@@@std@@@2@@std@@@std@@@std@@@std@@YAPBV?$_List_val@U?$_List_simple_types@U?$pair@$$CBV?$basic_string@DU?$char_traits@D@std@@V?$allocator@D@2@@std@@V?$unique_ptr@UNetvarTable@@U?$default_delete@UNetvarTable@@@std@@@2@@std@@@std@@@0@ABV10@@Z 1001eb80 f i NetvarManager.obj
 0001:0001db80       ??$move@AAV?$basic_ofstream@DU?$char_traits@D@std@@@std@@@std@@YA$$QAV?$basic_ofstream@DU?$char_traits@D@std@@@0@AAV10@@Z 1001eb80 f i Interfaces.obj
 0001:0001db80       ??$forward@ABV?$allocator@Uwskin@@@std@@@std@@YAABV?$allocator@Uwskin@@@0@ABV10@@Z 1001eb80 f i Protobuffs.obj
 0001:0001db80       ??$forward@ABQAU?$_Tree_node@U?$pair@$$CBHPAVCWindow@@@std@@PAX@std@@@std@@YAABQAU?$_Tree_node@U?$pair@$$CBHPAVCWindow@@@std@@PAX@0@ABQAU10@@Z 1001eb80 f i GUI.obj
 0001:0001db80       ??$move@AAV?$tuple@ABV?$basic_string@DU?$char_traits@D@std@@V?$allocator@D@2@@std@@@std@@@std@@YA$$QAV?$tuple@ABV?$basic_string@DU?$char_traits@D@std@@V?$allocator@D@2@@std@@@0@AAV10@@Z 1001eb80 f i Config.obj
 0001:0001db80       ??$addressof@U?$pair@$$CBV?$basic_string@DU?$char_traits@D@std@@V?$allocator@D@2@@std@@I@std@@@std@@YAPAU?$pair@$$CBV?$basic_string@DU?$char_traits@D@std@@V?$allocator@D@2@@std@@I@0@AAU10@@Z 1001eb80 f i NetvarManager.obj
 0001:0001db80       ??$addressof@V?$basic_string@DU?$char_traits@D@std@@V?$allocator@D@2@@std@@@std@@YAPAV?$basic_string@DU?$char_traits@D@std@@V?$allocator@D@2@@0@AAV10@@Z 1001eb80 f i Config.obj
 0001:0001db80       ??$forward@U?$default_delete@UNetvarTable@@@std@@@std@@YA$$QAU?$default_delete@UNetvarTable@@@0@AAU10@@Z 1001eb80 f i NetvarManager.obj
 0001:0001db80       ??$forward@ABV<lambda_1>@?1???$create@V?$map@V?$basic_string@DU?$char_traits@D@std@@V?$allocator@D@2@@std@@V?$basic_json@Vmap@std@@Vvector@2@V?$basic_string@DU?$char_traits@D@std@@V?$allocator@D@2@@2@_N_J_KNVallocator@2@Uadl_serializer@nlohmann@@@nlohmann@@U?$less@X@2@V?$allocator@U?$pair@$$CBV?$basic_string@DU?$char_traits@D@std@@V?$allocator@D@2@@std@@V?$basic_json@Vmap@std@@Vvector@2@V?$basic_string@DU?$char_traits@D@std@@V?$allocator@D@2@@2@_N_J_KNVallocator@2@Uadl_serializer@nlohmann@@@nlohmann@@@std@@@2@@std@@$$V@?$basic_json@Vmap@std@@Vvector@2@V?$basic_string@DU?$char_traits@D@std@@V?$allocator@D@2@@2@_N_J_KNVallocator@2@Uadl_serializer@nlohmann@@@nlohmann@@CAPAV?$map@V?$basic_string@DU?$char_traits@D@std@@V?$allocator@D@2@@std@@V?$basic_json@Vmap@std@@Vvector@2@V?$basic_string@DU?$char_traits@D@std@@V?$allocator@D@2@@2@_N_J_KNVallocator@2@Uadl_serializer@nlohmann@@@nlohmann@@U?$less@X@2@V?$allocator@U?$pair@$$CBV?$basic_string@DU?$char_traits@D@std@@V?$allocator@D@2@@std@@V?$basic_json@Vmap@std@@Vvector@2@V?$basic_string@DU?$char_traits@D@std@@V?$allocator@D@2@@2@_N_J_KNVallocator@2@Uadl_serializer@nlohmann@@@nlohmann@@@std@@@2@@std@@XZ@@std@@YAABV<lambda_1>@?1???$create@V?$map@V?$basic_string@DU?$char_traits@D@std@@V?$allocator@D@2@@std@@V?$basic_json@Vmap@std@@Vvector@2@V?$basic_string@DU?$char_traits@D@std@@V?$allocator@D@2@@2@_N_J_KNVallocator@2@Uadl_serializer@nlohmann@@@nlohmann@@U?$less@X@2@V?$allocator@U?$pair@$$CBV?$basic_string@DU?$char_traits@D@std@@V?$allocator@D@2@@std@@V?$basic_json@Vmap@std@@Vvector@2@V?$basic_string@DU?$char_traits@D@std@@V?$allocator@D@2@@2@_N_J_KNVallocator@2@Uadl_serializer@nlohmann@@@nlohmann@@@std@@@2@@std@@$$V@?$basic_json@Vmap@std@@Vvector@2@V?$basic_string@DU?$char_traits@D@std@@V?$allocator@D@2@@2@_N_J_KNVallocator@2@Uadl_serializer@nlohmann@@@nlohmann@@CAPAV?$map@V?$basic_string@DU?$char_traits@D@std@@V?$allocator@D@2@@std@@V?$basic_json@Vmap@std@@Vvector@2@V?$basic_string@DU?$char_traits@D@std@@V?$allocator@D@2@@2@_N_J_KNVallocator@2@Uadl_serializer@nlohmann@@@nlohmann@@U?$less@X@2@V?$allocator@U?$pair@$$CBV?$basic_string@DU?$char_traits@D@std@@V?$allocator@D@2@@std@@V?$basic_json@Vmap@std@@Vvector@2@V?$basic_string@DU?$char_traits@D@std@@V?$allocator@D@2@@2@_N_J_KNVallocator@2@Uadl_serializer@nlohmann@@@nlohmann@@@std@@@2@@0@XZ@ABV1?1???$create@V?$map@V?$basic_string@DU?$char_traits@D@std@@V?$allocator@D@2@@std@@V?$basic_json@Vmap@std@@Vvector@2@V?$basic_string@DU?$char_traits@D@std@@V?$allocator@D@2@@2@_N_J_KNVallocator@2@Uadl_serializer@nlohmann@@@nlohmann@@U?$less@X@2@V?$allocator@U?$pair@$$CBV?$basic_string@DU?$char_traits@D@std@@V?$allocator@D@2@@std@@V?$basic_json@Vmap@std@@Vvector@2@V?$basic_string@DU?$char_traits@D@std@@V?$allocator@D@2@@2@_N_J_KNVallocator@2@Uadl_serializer@nlohmann@@@nlohmann@@@std@@@2@@std@@$$V@23@CAPAV40@XZ@@Z 1001eb80 f i Config.obj
 0001:0001db80       ??$forward@ABV?$basic_json@Vmap@std@@Vvector@2@V?$basic_string@DU?$char_traits@D@std@@V?$allocator@D@2@@2@_N_J_KNVallocator@2@Uadl_serializer@nlohmann@@@nlohmann@@@std@@YAABV?$basic_json@Vmap@std@@Vvector@2@V?$basic_string@DU?$char_traits@D@std@@V?$allocator@D@2@@2@_N_J_KNVallocator@2@Uadl_serializer@nlohmann@@@nlohmann@@ABV12@@Z 1001eb80 f i Config.obj
 0001:0001db80       ??$forward@AAY0BL@$$CBD@std@@YAAAY0BL@$$CBDAAY0BL@$$CBD@Z 1001eb80 f i Drop.obj
 0001:0001db80       ??$addressof@PAU?$_List_node@U?$pair@QADPAD@std@@PAX@std@@@std@@YAPAPAU?$_List_node@U?$pair@QADPAD@std@@PAX@0@AAPAU10@@Z 1001eb80 f i skinchanger.obj
 0001:0001db80       ??$_Unfancy@Unotify_data_t@@@std@@YAPAUnotify_data_t@@PAU1@@Z 1001eb80 f i notifies.obj
 0001:0001db80       ?select_on_container_copy_construction@?$_Default_allocator_traits@V?$allocator@D@std@@@std@@SA?AV?$allocator@D@2@ABV32@@Z 1001eb80 f i Config.obj
 0001:0001db80       ??$addressof@U?$pair@QAXU?$pair@V?$basic_string@DU?$char_traits@D@std@@V?$allocator@D@2@@std@@V?$vector@V?$basic_string@DU?$char_traits@D@std@@V?$allocator@D@2@@std@@V?$allocator@V?$basic_string@DU?$char_traits@D@std@@V?$allocator@D@2@@std@@@2@@2@@std@@@std@@@std@@YAPAU?$pair@QAXU?$pair@V?$basic_string@DU?$char_traits@D@std@@V?$allocator@D@2@@std@@V?$vector@V?$basic_string@DU?$char_traits@D@std@@V?$allocator@D@2@@std@@V?$allocator@V?$basic_string@DU?$char_traits@D@std@@V?$allocator@D@2@@std@@@2@@2@@std@@@0@AAU10@@Z 1001eb80 f i NetvarManager.obj
 0001:0001db80       ??$_Convert_size@I@std@@YAII@Z 1001eb80 f i CFixMove.obj
 0001:0001db80       ??$forward@U?$default_delete@VNetvarDatabase@@@std@@@std@@YA$$QAU?$default_delete@VNetvarDatabase@@@0@AAU10@@Z 1001eb80 f i NetvarManager.obj
 0001:0001db80       ??$_Unfancy@UVertex_t@@@std@@YAPAUVertex_t@@PAU1@@Z 1001eb80 f i Visuals.obj
 0001:0001db80       ??$forward@ABV?$allocator@V?$basic_json@Vmap@std@@Vvector@2@V?$basic_string@DU?$char_traits@D@std@@V?$allocator@D@2@@2@_N_J_KNVallocator@2@Uadl_serializer@nlohmann@@@nlohmann@@@std@@@std@@YAABV?$allocator@V?$basic_json@Vmap@std@@Vvector@2@V?$basic_string@DU?$char_traits@D@std@@V?$allocator@D@2@@2@_N_J_KNVallocator@2@Uadl_serializer@nlohmann@@@nlohmann@@@0@ABV10@@Z 1001eb80 f i tab_Login.obj
 0001:0001db80       ??$move@AAV?$allocator@D@std@@@std@@YA$$QAV?$allocator@D@0@AAV10@@Z 1001eb80 f i Config.obj
 0001:0001db80       ??$move@AATjson_value@?$basic_json@Vmap@std@@Vvector@2@V?$basic_string@DU?$char_traits@D@std@@V?$allocator@D@2@@2@_N_J_KNVallocator@2@Uadl_serializer@nlohmann@@@nlohmann@@@std@@YA$$QATjson_value@?$basic_json@Vmap@std@@Vvector@2@V?$basic_string@DU?$char_traits@D@std@@V?$allocator@D@2@@2@_N_J_KNVallocator@2@Uadl_serializer@nlohmann@@@nlohmann@@AAT123@@Z 1001eb80 f i Config.obj
 0001:0001db80       ??$_Unfancy@D@std@@YAPADPAD@Z 1001eb80 f i CFixMove.obj
 0001:0001db80       ??$_Unfancy@VVector@@@std@@YAPAVVector@@PAV1@@Z 1001eb80 f i grenadetracer.obj
 0001:0001db80       ??$move@AAV?$_Func_class@X$$V@std@@@std@@YA$$QAV?$_Func_class@X$$V@0@AAV10@@Z 1001eb80 f i Input.obj
 0001:0001db80       ??$forward@U?$less@X@std@@@std@@YA$$QAU?$less@X@0@AAU10@@Z 1001eb80 f i tab_Login.obj
 0001:0001db80       ??$forward@AAPAV?$basic_string@DU?$char_traits@D@std@@V?$allocator@D@2@@std@@@std@@YAAAPAV?$basic_string@DU?$char_traits@D@std@@V?$allocator@D@2@@0@AAPAV10@@Z 1001eb80 f i Config.obj
 0001:0001db80       ??$forward@ABV<lambda_1>@?1???$create@V?$basic_string@DU?$char_traits@D@std@@V?$allocator@D@2@@std@@V12@@?$basic_json@Vmap@std@@Vvector@2@V?$basic_string@DU?$char_traits@D@std@@V?$allocator@D@2@@2@_N_J_KNVallocator@2@Uadl_serializer@nlohmann@@@nlohmann@@CAPAV?$basic_string@DU?$char_traits@D@std@@V?$allocator@D@2@@std@@$$QAV45@@Z@@std@@YAABV<lambda_1>@?1???$create@V?$basic_string@DU?$char_traits@D@std@@V?$allocator@D@2@@std@@V12@@?$basic_json@Vmap@std@@Vvector@2@V?$basic_string@DU?$char_traits@D@std@@V?$allocator@D@2@@2@_N_J_KNVallocator@2@Uadl_serializer@nlohmann@@@nlohmann@@CAPAV?$basic_string@DU?$char_traits@D@std@@V?$allocator@D@2@@0@$$QAV40@@Z@ABV1?1???$create@V?$basic_string@DU?$char_traits@D@std@@V?$allocator@D@2@@std@@V12@@23@CAPAV40@0@Z@@Z 1001eb80 f i Config.obj
 0001:0001db80       ??$forward@ABUpiecewise_construct_t@std@@@std@@YAABUpiecewise_construct_t@0@ABU10@@Z 1001eb80 f i Config.obj
 0001:0001db80       ??$addressof@V?$_Vector_val@U?$_Simple_types@Uimpact_info@@@std@@@std@@@std@@YAPAV?$_Vector_val@U?$_Simple_types@Uimpact_info@@@std@@@0@AAV10@@Z 1001eb80 f i otheresp.obj
 0001:0001db80       ??$forward@ABH@std@@YAABHABH@Z 1001eb80 f i Controls.obj
 0001:0001db80       ??$forward@AAVQAngle@@@std@@YAAAVQAngle@@AAV1@@Z 1001eb80 f i grenadetracer.obj
 0001:0001db80       ??$_Unfancy@_W@std@@YAPA_WPA_W@Z 1001eb80 f i Config.obj
 0001:0001db80       ??$forward@ABQAU?$_List_node@U?$pair@QADPAD@std@@PAX@std@@@std@@YAABQAU?$_List_node@U?$pair@QADPAD@std@@PAX@0@ABQAU10@@Z 1001eb80 f i skinchanger.obj
 0001:0001db80       ??$forward@AAPAU?$_List_node@U?$pair@$$CBV?$basic_string@DU?$char_traits@D@std@@V?$allocator@D@2@@std@@V?$unique_ptr@UNetvarTable@@U?$default_delete@UNetvarTable@@@std@@@2@@std@@PAX@std@@@std@@YAAAPAU?$_List_node@U?$pair@$$CBV?$basic_string@DU?$char_traits@D@std@@V?$allocator@D@2@@std@@V?$unique_ptr@UNetvarTable@@U?$default_delete@UNetvarTable@@@std@@@2@@std@@PAX@0@AAPAU10@@Z 1001eb80 f i NetvarManager.obj
 0001:0001db80       ??$addressof@$$CBV?$_String_val@U?$_Simple_types@D@std@@@std@@@std@@YAPBV?$_String_val@U?$_Simple_types@D@std@@@0@ABV10@@Z 1001eb80 f i Config.obj
 0001:0001db80       ??$forward@AAY07$$CBD@std@@YAAAY07$$CBDAAY07$$CBD@Z 1001eb80 f i Config.obj
 0001:0001db80       ??$addressof@_W@std@@YAPA_WAA_W@Z 1001eb80 f i Hooks.obj
 0001:0001db80       ??$forward@U_One_then_variadic_args_t@std@@@std@@YA$$QAU_One_then_variadic_args_t@0@AAU10@@Z 1001eb80 f i tab_Login.obj
 0001:0001db80       ??$forward@AAY03$$CBD@std@@YAAAY03$$CBDAAY03$$CBD@Z 1001eb80 f i Config.obj
 0001:0001db80       ??$addressof@V?$unique_ptr@VNetvarDatabase@@U?$default_delete@VNetvarDatabase@@@std@@@std@@@std@@YAPAV?$unique_ptr@VNetvarDatabase@@U?$default_delete@VNetvarDatabase@@@std@@@0@AAV10@@Z 1001eb80 f i NetvarManager.obj
 0001:0001db80       ??$addressof@V?$_String_val@U?$_Simple_types@D@std@@@std@@@std@@YAPAV?$_String_val@U?$_Simple_types@D@std@@@0@AAV10@@Z 1001eb80 f i Config.obj
 0001:0001db80       ??$move@AAD@std@@YA$$QADAAD@Z 1001eb80 f i Config.obj
 0001:0001db80       ??$forward@AAY0BF@$$CBD@std@@YAAAY0BF@$$CBDAAY0BF@$$CBD@Z 1001eb80 f i Config.obj
 0001:0001db80       ??$forward@V?$allocator@UVertex_t@@@std@@@std@@YA$$QAV?$allocator@UVertex_t@@@0@AAV10@@Z 1001eb80 f i Visuals.obj
 0001:0001db80       ??$_Unfancy@PAVDot@@@std@@YAPAPAVDot@@PAPAV1@@Z 1001eb80 f i Drops+.obj
 0001:0001db80       ??$move@AAV?$allocator@V?$basic_string@DU?$char_traits@D@std@@V?$allocator@D@2@@std@@@std@@@std@@YA$$QAV?$allocator@V?$basic_string@DU?$char_traits@D@std@@V?$allocator@D@2@@std@@@0@AAV10@@Z 1001eb80 f i Config.obj
 0001:0001db80       ??$forward@U?$pair@V?$basic_string@DU?$char_traits@D@std@@V?$allocator@D@2@@std@@VColor@@@std@@@std@@YA$$QAU?$pair@V?$basic_string@DU?$char_traits@D@std@@V?$allocator@D@2@@std@@VColor@@@0@AAU10@@Z 1001eb80 f i Visuals.obj
 0001:0001db80       ??$forward@ABU?$less@H@std@@@std@@YAABU?$less@H@0@ABU10@@Z 1001eb80 f i GUI.obj
 0001:0001db80       ??$forward@ABQAU?$_List_node@U?$pair@$$CBV?$basic_string@DU?$char_traits@D@std@@V?$allocator@D@2@@std@@V?$unique_ptr@UNetvarTable@@U?$default_delete@UNetvarTable@@@std@@@2@@std@@PAX@std@@@std@@YAABQAU?$_List_node@U?$pair@$$CBV?$basic_string@DU?$char_traits@D@std@@V?$allocator@D@2@@std@@V?$unique_ptr@UNetvarTable@@U?$default_delete@UNetvarTable@@@std@@@2@@std@@PAX@0@ABQAU10@@Z 1001eb80 f i NetvarManager.obj
 0001:0001db80       ??$forward@VVector@@@std@@YA$$QAVVector@@AAV1@@Z 1001eb80 f i grenadetracer.obj
 0001:0001db80       ??$forward@AAY05$$CBD@std@@YAAAY05$$CBDAAY05$$CBD@Z 1001eb80 f i Config.obj
 0001:0001db80       ??$forward@U?$pair@VVector@@VQAngle@@@std@@@std@@YA$$QAU?$pair@VVector@@VQAngle@@@0@AAU10@@Z 1001eb80 f i grenadetracer.obj
 0001:0001db80       ??$_Unfancy@UKit_t@@@std@@YAPAUKit_t@@PAU1@@Z 1001eb80 f i kit_parser.obj
 0001:0001db80       ??$move@AAV?$allocator@H@std@@@std@@YA$$QAV?$allocator@H@0@AAV10@@Z 1001eb80 f i Hooks.obj
 0001:0001db80       ??$forward@AAPAU?$_List_node@U?$pair@$$CBV?$basic_string@DU?$char_traits@D@std@@V?$allocator@D@2@@std@@I@std@@PAX@std@@@std@@YAAAPAU?$_List_node@U?$pair@$$CBV?$basic_string@DU?$char_traits@D@std@@V?$allocator@D@2@@std@@I@std@@PAX@0@AAPAU10@@Z 1001eb80 f i NetvarManager.obj
 0001:0001db80       ??$addressof@V?$_List_val@U?$_List_simple_types@U?$pair@$$CBV?$basic_string@DU?$char_traits@D@std@@V?$allocator@D@2@@std@@V?$unique_ptr@UNetvarTable@@U?$default_delete@UNetvarTable@@@std@@@2@@std@@@std@@@std@@@std@@YAPAV?$_List_val@U?$_List_simple_types@U?$pair@$$CBV?$basic_string@DU?$char_traits@D@std@@V?$allocator@D@2@@std@@V?$unique_ptr@UNetvarTable@@U?$default_delete@UNetvarTable@@@std@@@2@@std@@@std@@@0@AAV10@@Z 1001eb80 f i NetvarManager.obj
 0001:0001db80       ??$forward@ABV?$vector@V?$basic_json@Vmap@std@@Vvector@2@V?$basic_string@DU?$char_traits@D@std@@V?$allocator@D@2@@2@_N_J_KNVallocator@2@Uadl_serializer@nlohmann@@@nlohmann@@V?$allocator@V?$basic_json@Vmap@std@@Vvector@2@V?$basic_string@DU?$char_traits@D@std@@V?$allocator@D@2@@2@_N_J_KNVallocator@2@Uadl_serializer@nlohmann@@@nlohmann@@@std@@@std@@@std@@YAABV?$vector@V?$basic_json@Vmap@std@@Vvector@2@V?$basic_string@DU?$char_traits@D@std@@V?$allocator@D@2@@2@_N_J_KNVallocator@2@Uadl_serializer@nlohmann@@@nlohmann@@V?$allocator@V?$basic_json@Vmap@std@@Vvector@2@V?$basic_string@DU?$char_traits@D@std@@V?$allocator@D@2@@2@_N_J_KNVallocator@2@Uadl_serializer@nlohmann@@@nlohmann@@@std@@@0@ABV10@@Z 1001eb80 f i tab_Login.obj
 0001:0001db80       ??$forward@AAU?$pair@$$CBV?$basic_string@DU?$char_traits@D@std@@V?$allocator@D@2@@std@@V?$basic_json@Vmap@std@@Vvector@2@V?$basic_string@DU?$char_traits@D@std@@V?$allocator@D@2@@2@_N_J_KNVallocator@2@Uadl_serializer@nlohmann@@@nlohmann@@@std@@@std@@YAAAU?$pair@$$CBV?$basic_string@DU?$char_traits@D@std@@V?$allocator@D@2@@std@@V?$basic_json@Vmap@std@@Vvector@2@V?$basic_string@DU?$char_traits@D@std@@V?$allocator@D@2@@2@_N_J_KNVallocator@2@Uadl_serializer@nlohmann@@@nlohmann@@@0@AAU10@@Z 1001eb80 f i tab_Login.obj
 0001:0001db80       ??$forward@AAPAU?$_Tree_node@U?$pair@$$CBV?$basic_string@DU?$char_traits@D@std@@V?$allocator@D@2@@std@@V?$basic_json@Vmap@std@@Vvector@2@V?$basic_string@DU?$char_traits@D@std@@V?$allocator@D@2@@2@_N_J_KNVallocator@2@Uadl_serializer@nlohmann@@@nlohmann@@@std@@PAX@std@@@std@@YAAAPAU?$_Tree_node@U?$pair@$$CBV?$basic_string@DU?$char_traits@D@std@@V?$allocator@D@2@@std@@V?$basic_json@Vmap@std@@Vvector@2@V?$basic_string@DU?$char_traits@D@std@@V?$allocator@D@2@@2@_N_J_KNVallocator@2@Uadl_serializer@nlohmann@@@nlohmann@@@std@@PAX@0@AAPAU10@@Z 1001eb80 f i Config.obj
 0001:0001db80       ??$forward@UField@@@std@@YA$$QAUField@@AAU1@@Z 1001eb80 f i Protobuffs.obj
 0001:0001db80       ??$addressof@PAU?$_List_node@U?$pair@$$CBV?$basic_string@DU?$char_traits@D@std@@V?$allocator@D@2@@std@@I@std@@PAX@std@@@std@@YAPAPAU?$_List_node@U?$pair@$$CBV?$basic_string@DU?$char_traits@D@std@@V?$allocator@D@2@@std@@I@std@@PAX@0@AAPAU10@@Z 1001eb80 f i NetvarManager.obj
 0001:0001db80       ??$move@AAVConfigFile@@@std@@YA$$QAVConfigFile@@AAV1@@Z 1001eb80 f i Config.obj
 0001:0001db80       ??$_Unfancy@UPlayerRecords@@@std@@YAPAUPlayerRecords@@PAU1@@Z 1001eb80 f i LagComp.obj
 0001:0001db80       ??$addressof@V?$_Vector_val@U?$_Simple_types@V?$basic_string@DU?$char_traits@D@std@@V?$allocator@D@2@@std@@@std@@@std@@@std@@YAPAV?$_Vector_val@U?$_Simple_types@V?$basic_string@DU?$char_traits@D@std@@V?$allocator@D@2@@std@@@std@@@0@AAV10@@Z 1001eb80 f i Config.obj
 0001:0001db80       ??$forward@AAI@std@@YAAAIAAI@Z 1001eb80 f i NetvarManager.obj
 0001:0001db80       ??$addressof@U?$pair@$$CBV?$basic_string@DU?$char_traits@D@std@@V?$allocator@D@2@@std@@V?$unique_ptr@UNetvarTable@@U?$default_delete@UNetvarTable@@@std@@@2@@std@@@std@@YAPAU?$pair@$$CBV?$basic_string@DU?$char_traits@D@std@@V?$allocator@D@2@@std@@V?$unique_ptr@UNetvarTable@@U?$default_delete@UNetvarTable@@@std@@@2@@0@AAU10@@Z 1001eb80 f i NetvarManager.obj
 0001:0001db80       ??$addressof@PAU?$_Tree_node@U?$pair@$$CBV?$basic_string@DU?$char_traits@D@std@@V?$allocator@D@2@@std@@V?$basic_json@Vmap@std@@Vvector@2@V?$basic_string@DU?$char_traits@D@std@@V?$allocator@D@2@@2@_N_J_KNVallocator@2@Uadl_serializer@nlohmann@@@nlohmann@@@std@@PAX@std@@@std@@YAPAPAU?$_Tree_node@U?$pair@$$CBV?$basic_string@DU?$char_traits@D@std@@V?$allocator@D@2@@std@@V?$basic_json@Vmap@std@@Vvector@2@V?$basic_string@DU?$char_traits@D@std@@V?$allocator@D@2@@2@_N_J_KNVallocator@2@Uadl_serializer@nlohmann@@@nlohmann@@@std@@PAX@0@AAPAU10@@Z 1001eb80 f i Config.obj
 0001:0001db80       ??$_Unfancy@U?$pair@V?$basic_string@DU?$char_traits@D@std@@V?$allocator@D@2@@std@@VColor@@@std@@@std@@YAPAU?$pair@V?$basic_string@DU?$char_traits@D@std@@V?$allocator@D@2@@std@@VColor@@@0@PAU10@@Z 1001eb80 f i Visuals.obj
 0001:0001db80       ??$forward@AAY08$$CBD@std@@YAAAY08$$CBDAAY08$$CBD@Z 1001eb80 f i Config.obj
 0001:0001db80       ??$forward@AAV?$basic_string@DU?$char_traits@D@std@@V?$allocator@D@2@@std@@@std@@YAAAV?$basic_string@DU?$char_traits@D@std@@V?$allocator@D@2@@0@AAV10@@Z 1001eb80 f i Config.obj
 0001:0001db80       ??$forward@AAY0BE@$$CBD@std@@YAAAY0BE@$$CBDAAY0BE@$$CBD@Z 1001eb80 f i Config.obj
 0001:0001db80       ??$move@AAVtrace_info@bullettracers@@@std@@YA$$QAVtrace_info@bullettracers@@AAV12@@Z 1001eb80 f i bullettracers.obj
 0001:0001db80       ??$_Unfancy@Uimpact_info@@@std@@YAPAUimpact_info@@PAU1@@Z 1001eb80 f i otheresp.obj
 0001:0001db80       ??$forward@ABV<lambda_1>@?1???$create@V?$map@V?$basic_string@DU?$char_traits@D@std@@V?$allocator@D@2@@std@@V?$basic_json@Vmap@std@@Vvector@2@V?$basic_string@DU?$char_traits@D@std@@V?$allocator@D@2@@2@_N_J_KNVallocator@2@Uadl_serializer@nlohmann@@@nlohmann@@U?$less@X@2@V?$allocator@U?$pair@$$CBV?$basic_string@DU?$char_traits@D@std@@V?$allocator@D@2@@std@@V?$basic_json@Vmap@std@@Vvector@2@V?$basic_string@DU?$char_traits@D@std@@V?$allocator@D@2@@2@_N_J_KNVallocator@2@Uadl_serializer@nlohmann@@@nlohmann@@@std@@@2@@std@@ABV12@@?$basic_json@Vmap@std@@Vvector@2@V?$basic_string@DU?$char_traits@D@std@@V?$allocator@D@2@@2@_N_J_KNVallocator@2@Uadl_serializer@nlohmann@@@nlohmann@@CAPAV?$map@V?$basic_string@DU?$char_traits@D@std@@V?$allocator@D@2@@std@@V?$basic_json@Vmap@std@@Vvector@2@V?$basic_string@DU?$char_traits@D@std@@V?$allocator@D@2@@2@_N_J_KNVallocator@2@Uadl_serializer@nlohmann@@@nlohmann@@U?$less@X@2@V?$allocator@U?$pair@$$CBV?$basic_string@DU?$char_traits@D@std@@V?$allocator@D@2@@std@@V?$basic_json@Vmap@std@@Vvector@2@V?$basic_string@DU?$char_traits@D@std@@V?$allocator@D@2@@2@_N_J_KNVallocator@2@Uadl_serializer@nlohmann@@@nlohmann@@@std@@@2@@std@@ABV45@@Z@@std@@YAABV<lambda_1>@?1???$create@V?$map@V?$basic_string@DU?$char_traits@D@std@@V?$allocator@D@2@@std@@V?$basic_json@Vmap@std@@Vvector@2@V?$basic_string@DU?$char_traits@D@std@@V?$allocator@D@2@@2@_N_J_KNVallocator@2@Uadl_serializer@nlohmann@@@nlohmann@@U?$less@X@2@V?$allocator@U?$pair@$$CBV?$basic_string@DU?$char_traits@D@std@@V?$allocator@D@2@@std@@V?$basic_json@Vmap@std@@Vvector@2@V?$basic_string@DU?$char_traits@D@std@@V?$allocator@D@2@@2@_N_J_KNVallocator@2@Uadl_serializer@nlohmann@@@nlohmann@@@std@@@2@@std@@ABV12@@?$basic_json@Vmap@std@@Vvector@2@V?$basic_string@DU?$char_traits@D@std@@V?$allocator@D@2@@2@_N_J_KNVallocator@2@Uadl_serializer@nlohmann@@@nlohmann@@CAPAV?$map@V?$basic_string@DU?$char_traits@D@std@@V?$allocator@D@2@@std@@V?$basic_json@Vmap@std@@Vvector@2@V?$basic_string@DU?$char_traits@D@std@@V?$allocator@D@2@@2@_N_J_KNVallocator@2@Uadl_serializer@nlohmann@@@nlohmann@@U?$less@X@2@V?$allocator@U?$pair@$$CBV?$basic_string@DU?$char_traits@D@std@@V?$allocator@D@2@@std@@V?$basic_json@Vmap@std@@Vvector@2@V?$basic_string@DU?$char_traits@D@std@@V?$allocator@D@2@@2@_N_J_KNVallocator@2@Uadl_serializer@nlohmann@@@nlohmann@@@std@@@2@@0@ABV40@@Z@ABV1?1???$create@V?$map@V?$basic_string@DU?$char_traits@D@std@@V?$allocator@D@2@@std@@V?$basic_json@Vmap@std@@Vvector@2@V?$basic_string@DU?$char_traits@D@std@@V?$allocator@D@2@@2@_N_J_KNVallocator@2@Uadl_serializer@nlohmann@@@nlohmann@@U?$less@X@2@V?$allocator@U?$pair@$$CBV?$basic_string@DU?$char_traits@D@std@@V?$allocator@D@2@@std@@V?$basic_json@Vmap@std@@Vvector@2@V?$basic_string@DU?$char_traits@D@std@@V?$allocator@D@2@@2@_N_J_KNVallocator@2@Uadl_serializer@nlohmann@@@nlohmann@@@std@@@2@@std@@ABV12@@23@CAPAV40@0@Z@@Z 1001eb80 f i tab_Login.obj
 0001:0001db80       ??$addressof@D@std@@YAPADAAD@Z 1001eb80 f i Config.obj
 0001:0001db80       ??$forward@Vtrace_info@bullettracers@@@std@@YA$$QAVtrace_info@bullettracers@@AAV12@@Z 1001eb80 f i bullettracers.obj
 0001:0001db80       ??$move@AAVsound_info@@@std@@YA$$QAVsound_info@@AAV1@@Z 1001eb80 f i Hooks.obj
 0001:0001db80       ??$addressof@V?$_List_unchecked_iterator@V?$_List_val@U?$_List_simple_types@U?$pair@$$CBV?$basic_string@DU?$char_traits@D@std@@V?$allocator@D@2@@std@@V?$unique_ptr@UNetvarTable@@U?$default_delete@UNetvarTable@@@std@@@2@@std@@@std@@@std@@@std@@@std@@YAPAV?$_List_unchecked_iterator@V?$_List_val@U?$_List_simple_types@U?$pair@$$CBV?$basic_string@DU?$char_traits@D@std@@V?$allocator@D@2@@std@@V?$unique_ptr@UNetvarTable@@U?$default_delete@UNetvarTable@@@std@@@2@@std@@@std@@@std@@@0@AAV10@@Z 1001eb80 f i NetvarManager.obj
 0001:0001db80       ??$addressof@$$CBV?$_String_val@U?$_Simple_types@_W@std@@@std@@@std@@YAPBV?$_String_val@U?$_Simple_types@_W@std@@@0@ABV10@@Z 1001eb80 f i Config.obj
 0001:0001db80       ?select_on_container_copy_construction@?$_Default_allocator_traits@V?$allocator@V?$basic_string@DU?$char_traits@D@std@@V?$allocator@D@2@@std@@@std@@@std@@SA?AV?$allocator@V?$basic_string@DU?$char_traits@D@std@@V?$allocator@D@2@@std@@@2@ABV32@@Z 1001eb80 f i NetvarManager.obj
 0001:0001db80       ??$forward@V?$unique_ptr@UNetvarTable@@U?$default_delete@UNetvarTable@@@std@@@std@@@std@@YA$$QAV?$unique_ptr@UNetvarTable@@U?$default_delete@UNetvarTable@@@std@@@0@AAV10@@Z 1001eb80 f i NetvarManager.obj
 0001:0001db80       ??$_Const_cast@$$CBVConfigFile@@@std@@YAPAVConfigFile@@PBV1@@Z 1001eb80 f i Config.obj
 0001:0001db80       ??$addressof@$$CBV?$_Tree_val@U?$_Tree_simple_types@U?$pair@$$CBV?$basic_string@DU?$char_traits@D@std@@V?$allocator@D@2@@std@@V?$basic_json@Vmap@std@@Vvector@2@V?$basic_string@DU?$char_traits@D@std@@V?$allocator@D@2@@2@_N_J_KNVallocator@2@Uadl_serializer@nlohmann@@@nlohmann@@@std@@@std@@@std@@@std@@YAPBV?$_Tree_val@U?$_Tree_simple_types@U?$pair@$$CBV?$basic_string@DU?$char_traits@D@std@@V?$allocator@D@2@@std@@V?$basic_json@Vmap@std@@Vvector@2@V?$basic_string@DU?$char_traits@D@std@@V?$allocator@D@2@@2@_N_J_KNVallocator@2@Uadl_serializer@nlohmann@@@nlohmann@@@std@@@std@@@0@ABV10@@Z 1001eb80 f i Config.obj
 0001:0001db80       ??$_Unfancy@$$CBD@std@@YAPBDPBD@Z 1001eb80 f i Aimbot.obj
 0001:0001db80       ??$forward@V?$basic_json@Vmap@std@@Vvector@2@V?$basic_string@DU?$char_traits@D@std@@V?$allocator@D@2@@2@_N_J_KNVallocator@2@Uadl_serializer@nlohmann@@@nlohmann@@@std@@YA$$QAV?$basic_json@Vmap@std@@Vvector@2@V?$basic_string@DU?$char_traits@D@std@@V?$allocator@D@2@@2@_N_J_KNVallocator@2@Uadl_serializer@nlohmann@@@nlohmann@@AAV12@@Z 1001eb80 f i Config.obj
 0001:0001db80       ??$forward@ABQAD@std@@YAABQADABQAD@Z 1001eb80 f i CFixMove.obj
 0001:0001db80       ??$addressof@V?$vector@V?$basic_string@DU?$char_traits@D@std@@V?$allocator@D@2@@std@@V?$allocator@V?$basic_string@DU?$char_traits@D@std@@V?$allocator@D@2@@std@@@2@@std@@@std@@YAPAV?$vector@V?$basic_string@DU?$char_traits@D@std@@V?$allocator@D@2@@std@@V?$allocator@V?$basic_string@DU?$char_traits@D@std@@V?$allocator@D@2@@std@@@2@@0@AAV10@@Z 1001eb80 f i tab_Misc.obj
 0001:0001db80       ??$addressof@V?$_List_unchecked_iterator@V?$_List_val@U?$_List_simple_types@U?$pair@$$CBV?$basic_string@DU?$char_traits@D@std@@V?$allocator@D@2@@std@@I@std@@@std@@@std@@@std@@@std@@YAPAV?$_List_unchecked_iterator@V?$_List_val@U?$_List_simple_types@U?$pair@$$CBV?$basic_string@DU?$char_traits@D@std@@V?$allocator@D@2@@std@@I@std@@@std@@@std@@@0@AAV10@@Z 1001eb80 f i NetvarManager.obj
 0001:0001db80       ??$addressof@$$CBV?$codecvt@DDU_Mbstatet@@@std@@@std@@YAPBV?$codecvt@DDU_Mbstatet@@@0@ABV10@@Z 1001eb80 f i Config.obj
 0001:0001db80       ??$addressof@$$CBV?$basic_string@_WU?$char_traits@_W@std@@V?$allocator@_W@2@@std@@@std@@YAPBV?$basic_string@_WU?$char_traits@_W@std@@V?$allocator@_W@2@@0@ABV10@@Z 1001eb80 f i Config.obj
 0001:0001db80       ??$_Get_unwrapped@AAV?$reverse_iterator@PB_W@std@@@std@@YAAAV?$reverse_iterator@PB_W@0@AAV10@@Z 1001eb80 f i Config.obj
 0001:0001db80       ??$forward@V?$_Tree_iterator@V?$_Tree_val@U?$_Tree_simple_types@U?$pair@$$CBV?$basic_string@DU?$char_traits@D@std@@V?$allocator@D@2@@std@@V?$basic_json@Vmap@std@@Vvector@2@V?$basic_string@DU?$char_traits@D@std@@V?$allocator@D@2@@2@_N_J_KNVallocator@2@Uadl_serializer@nlohmann@@@nlohmann@@@std@@@std@@@std@@@std@@@std@@YA$$QAV?$_Tree_iterator@V?$_Tree_val@U?$_Tree_simple_types@U?$pair@$$CBV?$basic_string@DU?$char_traits@D@std@@V?$allocator@D@2@@std@@V?$basic_json@Vmap@std@@Vvector@2@V?$basic_string@DU?$char_traits@D@std@@V?$allocator@D@2@@2@_N_J_KNVallocator@2@Uadl_serializer@nlohmann@@@nlohmann@@@std@@@std@@@std@@@0@AAV10@@Z 1001eb80 f i Config.obj
 0001:0001db80       ??$move@AAV?$basic_json@Vmap@std@@Vvector@2@V?$basic_string@DU?$char_traits@D@std@@V?$allocator@D@2@@2@_N_J_KNVallocator@2@Uadl_serializer@nlohmann@@@nlohmann@@@std@@YA$$QAV?$basic_json@Vmap@std@@Vvector@2@V?$basic_string@DU?$char_traits@D@std@@V?$allocator@D@2@@2@_N_J_KNVallocator@2@Uadl_serializer@nlohmann@@@nlohmann@@AAV12@@Z 1001eb80 f i Config.obj
 0001:0001db80       ?select_on_container_copy_construction@?$_Default_allocator_traits@V?$allocator@UVertex_t@@@std@@@std@@SA?AV?$allocator@UVertex_t@@@2@ABV32@@Z 1001eb80 f i Visuals.obj
 0001:0001db80       ??$move@AAV?$allocator@VConfigFile@@@std@@@std@@YA$$QAV?$allocator@VConfigFile@@@0@AAV10@@Z 1001eb80 f i Config.obj
 0001:0001db80       ??$forward@AAY0O@$$CBD@std@@YAAAY0O@$$CBDAAY0O@$$CBD@Z 1001eb80 f i Config.obj
 0001:0001db80       ??$forward@ABV?$allocator@U?$pair@$$CBV?$basic_string@DU?$char_traits@D@std@@V?$allocator@D@2@@std@@I@std@@@std@@@std@@YAABV?$allocator@U?$pair@$$CBV?$basic_string@DU?$char_traits@D@std@@V?$allocator@D@2@@std@@I@std@@@0@ABV10@@Z 1001eb80 f i NetvarManager.obj
 0001:0001db80       ??$forward@V?$allocator@VConfigFile@@@std@@@std@@YA$$QAV?$allocator@VConfigFile@@@0@AAV10@@Z 1001eb80 f i Config.obj
 0001:0001db80       ??$forward@V?$vector@UField@@V?$allocator@UField@@@std@@@std@@@std@@YA$$QAV?$vector@UField@@V?$allocator@UField@@@std@@@0@AAV10@@Z 1001eb80 f i Protobuffs.obj
 0001:0001db80       ??$_Unfancy@H@std@@YAPAHPAH@Z 1001eb80 f i Controls.obj
 0001:0001db80       ??$forward@AAY09$$CBD@std@@YAAAY09$$CBDAAY09$$CBD@Z 1001eb80 f i Config.obj
 0001:0001db80       ??$_Refancy@PAH$0A@@std@@YAPAHPAH@Z 1001eb80 f i Aimbot.obj
 0001:0001db80       ??$move@AAU?$pair@VVector@@VQAngle@@@std@@@std@@YA$$QAU?$pair@VVector@@VQAngle@@@0@AAU10@@Z 1001eb80 f i grenadetracer.obj
 0001:0001db80       ??$move@AAV?$vector@UField@@V?$allocator@UField@@@std@@@std@@@std@@YA$$QAV?$vector@UField@@V?$allocator@UField@@@std@@@0@AAV10@@Z 1001eb80 f i Protobuffs.obj
 0001:0001db80       ??$_Unfancy_maybe_null@UVertex_t@@@std@@YAPAUVertex_t@@PAU1@@Z 1001eb80 f i Visuals.obj
 0001:0001db80       ??$forward@ABW4directory_options@filesystem@std@@@std@@YAABW4directory_options@filesystem@0@ABW4120@@Z 1001eb80 f i Config.obj
 0001:0001db80       ??$forward@ABU?$pair@HPBD@std@@@std@@YAABU?$pair@HPBD@0@ABU10@@Z 1001eb80 f i Config.obj
 0001:0001db80       ??$move@AAU_Creator@_Dir_enum_impl@filesystem@std@@@std@@YA$$QAU_Creator@_Dir_enum_impl@filesystem@0@AAU1230@@Z 1001eb80 f i Config.obj
 0001:0001db80       ??$move@AAPAU_Recursive_dir_enum_impl@filesystem@std@@@std@@YA$$QAPAU_Recursive_dir_enum_impl@filesystem@0@AAPAU120@@Z 1001eb80 f i Config.obj
 0001:0001db80       ??$_Unfancy@U_Find_file_handle@filesystem@std@@@std@@YAPAU_Find_file_handle@filesystem@0@PAU120@@Z 1001eb80 f i Config.obj
 0001:0001db80       ??$addressof@U?$pair@QADPAD@std@@@std@@YAPAU?$pair@QADPAD@0@AAU10@@Z 1001eb80 f i skinchanger.obj
 0001:0001db80       ??$forward@ABUPlayerRecords@@@std@@YAABUPlayerRecords@@ABU1@@Z 1001eb80 f i LagComp.obj
 0001:0001db80       ??$forward@AAY0M@$$CBD@std@@YAAAY0M@$$CBDAAY0M@$$CBD@Z 1001eb80 f i Config.obj
 0001:0001db80       ??$addressof@U_Recursive_dir_enum_impl@filesystem@std@@@std@@YAPAU_Recursive_dir_enum_impl@filesystem@0@AAU120@@Z 1001eb80 f i Config.obj
 0001:0001db80       ??$_Unfancy@UGrenadeInfo_t@@@std@@YAPAUGrenadeInfo_t@@PAU1@@Z 1001eb80 f i GrenadeHelperAPI.obj
 0001:0001db80       ??$forward@M@std@@YA$$QAMAAM@Z 1001eb80 f i skinchanger.obj
 0001:0001db80       ??$forward@AAPAV_Facet_base@std@@@std@@YAAAPAV_Facet_base@0@AAPAV10@@Z 1001eb80 f i Config.obj
 0001:0001db80       ??$addressof@V?$_Vector_val@U?$_Simple_types@PAVDot@@@std@@@std@@@std@@YAPAV?$_Vector_val@U?$_Simple_types@PAVDot@@@std@@@0@AAV10@@Z 1001eb80 f i Drops+.obj
 0001:0001db80       ??$forward@AAY01$$CBD@std@@YAAAY01$$CBDAAY01$$CBD@Z 1001eb80 f i Visuals.obj
 0001:0001db80       ??$addressof@$$CBU?$pair@$$CBV?$basic_string@DU?$char_traits@D@std@@V?$allocator@D@2@@std@@V?$basic_json@Vmap@std@@Vvector@2@V?$basic_string@DU?$char_traits@D@std@@V?$allocator@D@2@@2@_N_J_KNVallocator@2@Uadl_serializer@nlohmann@@@nlohmann@@@std@@@std@@YAPBU?$pair@$$CBV?$basic_string@DU?$char_traits@D@std@@V?$allocator@D@2@@std@@V?$basic_json@Vmap@std@@Vvector@2@V?$basic_string@DU?$char_traits@D@std@@V?$allocator@D@2@@2@_N_J_KNVallocator@2@Uadl_serializer@nlohmann@@@nlohmann@@@0@ABU10@@Z 1001eb80 f i Config.obj
 0001:0001db80       ??$addressof@U_Container_proxy@std@@@std@@YAPAU_Container_proxy@0@AAU10@@Z 1001eb80 f i LagComp.obj
 0001:0001db80       ??$forward@ABV<lambda_1>@?1???$create@V?$vector@V?$basic_json@Vmap@std@@Vvector@2@V?$basic_string@DU?$char_traits@D@std@@V?$allocator@D@2@@2@_N_J_KNVallocator@2@Uadl_serializer@nlohmann@@@nlohmann@@V?$allocator@V?$basic_json@Vmap@std@@Vvector@2@V?$basic_string@DU?$char_traits@D@std@@V?$allocator@D@2@@2@_N_J_KNVallocator@2@Uadl_serializer@nlohmann@@@nlohmann@@@std@@@std@@PBV?$json_ref@V?$basic_json@Vmap@std@@Vvector@2@V?$basic_string@DU?$char_traits@D@std@@V?$allocator@D@2@@2@_N_J_KNVallocator@2@Uadl_serializer@nlohmann@@@nlohmann@@@detail@nlohmann@@PBV345@@?$basic_json@Vmap@std@@Vvector@2@V?$basic_string@DU?$char_traits@D@std@@V?$allocator@D@2@@2@_N_J_KNVallocator@2@Uadl_serializer@nlohmann@@@nlohmann@@CAPAV?$vector@V?$basic_json@Vmap@std@@Vvector@2@V?$basic_string@DU?$char_traits@D@std@@V?$allocator@D@2@@2@_N_J_KNVallocator@2@Uadl_serializer@nlohmann@@@nlohmann@@V?$allocator@V?$basic_json@Vmap@std@@Vvector@2@V?$basic_string@DU?$char_traits@D@std@@V?$allocator@D@2@@2@_N_J_KNVallocator@2@Uadl_serializer@nlohmann@@@nlohmann@@@std@@@std@@$$QAPBV?$json_ref@V?$basic_json@Vmap@std@@Vvector@2@V?$basic_string@DU?$char_traits@D@std@@V?$allocator@D@2@@2@_N_J_KNVallocator@2@Uadl_serializer@nlohmann@@@nlohmann@@@detail@3@0@Z@@std@@YAABV<lambda_1>@?1???$create@V?$vector@V?$basic_json@Vmap@std@@Vvector@2@V?$basic_string@DU?$char_traits@D@std@@V?$allocator@D@2@@2@_N_J_KNVallocator@2@Uadl_serializer@nlohmann@@@nlohmann@@V?$allocator@V?$basic_json@Vmap@std@@Vvector@2@V?$basic_string@DU?$char_traits@D@std@@V?$allocator@D@2@@2@_N_J_KNVallocator@2@Uadl_serializer@nlohmann@@@nlohmann@@@std@@@std@@PBV?$json_ref@V?$basic_json@Vmap@std@@Vvector@2@V?$basic_string@DU?$char_traits@D@std@@V?$allocator@D@2@@2@_N_J_KNVallocator@2@Uadl_serializer@nlohmann@@@nlohmann@@@detail@nlohmann@@PBV345@@?$basic_json@Vmap@std@@Vvector@2@V?$basic_string@DU?$char_traits@D@std@@V?$allocator@D@2@@2@_N_J_KNVallocator@2@Uadl_serializer@nlohmann@@@nlohmann@@CAPAV?$vector@V?$basic_json@Vmap@std@@Vvector@2@V?$basic_string@DU?$char_traits@D@std@@V?$allocator@D@2@@2@_N_J_KNVallocator@2@Uadl_serializer@nlohmann@@@nlohmann@@V?$allocator@V?$basic_json@Vmap@std@@Vvector@2@V?$basic_string@DU?$char_traits@D@std@@V?$allocator@D@2@@2@_N_J_KNVallocator@2@Uadl_serializer@nlohmann@@@nlohmann@@@std@@@0@$$QAPBV?$json_ref@V?$basic_json@Vmap@std@@Vvector@2@V?$basic_string@DU?$char_traits@D@std@@V?$allocator@D@2@@2@_N_J_KNVallocator@2@Uadl_serializer@nlohmann@@@nlohmann@@@detail@3@0@Z@ABV1?1???$create@V?$vector@V?$basic_json@Vmap@std@@Vvector@2@V?$basic_string@DU?$char_traits@D@std@@V?$allocator@D@2@@2@_N_J_KNVallocator@2@Uadl_serializer@nlohmann@@@nlohmann@@V?$allocator@V?$basic_json@Vmap@std@@Vvector@2@V?$basic_string@DU?$char_traits@D@std@@V?$allocator@D@2@@2@_N_J_KNVallocator@2@Uadl_serializer@nlohmann@@@nlohmann@@@std@@@std@@PBV?$json_ref@V?$basic_json@Vmap@std@@Vvector@2@V?$basic_string@DU?$char_traits@D@std@@V?$allocator@D@2@@2@_N_J_KNVallocator@2@Uadl_serializer@nlohmann@@@nlohmann@@@detail@nlohmann@@PBV345@@23@CAPAV40@00@Z@@Z 1001eb80 f i tab_Login.obj
 0001:0001db80       ??$_Unfancy@Uwskin@@@std@@YAPAUwskin@@PAU1@@Z 1001eb80 f i Protobuffs.obj
 0001:0001db80       ??$move@AAV?$allocator@UField@@@std@@@std@@YA$$QAV?$allocator@UField@@@0@AAV10@@Z 1001eb80 f i Protobuffs.obj
 0001:0001db80       ??$addressof@PAU?$_Tree_node@U?$pair@QAXU?$pair@V?$basic_string@DU?$char_traits@D@std@@V?$allocator@D@2@@std@@V?$vector@V?$basic_string@DU?$char_traits@D@std@@V?$allocator@D@2@@std@@V?$allocator@V?$basic_string@DU?$char_traits@D@std@@V?$allocator@D@2@@std@@@2@@2@@std@@@std@@PAX@std@@@std@@YAPAPAU?$_Tree_node@U?$pair@QAXU?$pair@V?$basic_string@DU?$char_traits@D@std@@V?$allocator@D@2@@std@@V?$vector@V?$basic_string@DU?$char_traits@D@std@@V?$allocator@D@2@@std@@V?$allocator@V?$basic_string@DU?$char_traits@D@std@@V?$allocator@D@2@@std@@@2@@2@@std@@@std@@PAX@0@AAPAU10@@Z 1001eb80 f i NetvarManager.obj
 0001:0001db80       ??$_Unfancy@U_event@@@std@@YAPAU_event@@PAU1@@Z 1001eb80 f i Visuals.obj
 0001:0001db80       ??$move@AAV?$shared_ptr@V?$output_stream_adapter@D@detail@nlohmann@@@std@@@std@@YA$$QAV?$shared_ptr@V?$output_stream_adapter@D@detail@nlohmann@@@0@AAV10@@Z 1001eb80 f i Config.obj
 0001:0001db80       ??$forward@ABV?$_List_unchecked_iterator@V?$_List_val@U?$_List_simple_types@U?$pair@QADPAD@std@@@std@@@std@@@std@@@std@@YAABV?$_List_unchecked_iterator@V?$_List_val@U?$_List_simple_types@U?$pair@QADPAD@std@@@std@@@std@@@0@ABV10@@Z 1001eb80 f i skinchanger.obj
 0001:0001db80       ??$move@AAV?$shared_ptr@U_Recursive_dir_enum_impl@filesystem@std@@@std@@@std@@YA$$QAV?$shared_ptr@U_Recursive_dir_enum_impl@filesystem@std@@@0@AAV10@@Z 1001eb80 f i Config.obj
 0001:0001db80       ??$forward@V?$allocator@_W@std@@@std@@YA$$QAV?$allocator@_W@0@AAV10@@Z 1001eb80 f i Config.obj
 0001:0001db80       ??$_Unfancy@Uhitmarker_info@@@std@@YAPAUhitmarker_info@@PAU1@@Z 1001eb80 f i otheresp.obj
 0001:0001db80       ??$addressof@V?$_String_val@U?$_Simple_types@_W@std@@@std@@@std@@YAPAV?$_String_val@U?$_Simple_types@_W@std@@@0@AAV10@@Z 1001eb80 f i Config.obj
 0001:0001db80       ??$_Unfancy@U?$pair@VVector@@VQAngle@@@std@@@std@@YAPAU?$pair@VVector@@VQAngle@@@0@PAU10@@Z 1001eb80 f i grenadetracer.obj
 0001:0001db80       ??$move@AAV?$shared_ptr@VColor@@@std@@@std@@YA$$QAV?$shared_ptr@VColor@@@0@AAV10@@Z 1001eb80 f i Config.obj
 0001:0001db80       ??$move@AAV?$basic_stringstream@_WU?$char_traits@_W@std@@V?$allocator@_W@2@@std@@@std@@YA$$QAV?$basic_stringstream@_WU?$char_traits@_W@std@@V?$allocator@_W@2@@0@AAV10@@Z 1001eb80 f i Hooks.obj
 0001:0001db80       ??$forward@ABV?$map@V?$basic_string@DU?$char_traits@D@std@@V?$allocator@D@2@@std@@V?$basic_json@Vmap@std@@Vvector@2@V?$basic_string@DU?$char_traits@D@std@@V?$allocator@D@2@@2@_N_J_KNVallocator@2@Uadl_serializer@nlohmann@@@nlohmann@@U?$less@X@2@V?$allocator@U?$pair@$$CBV?$basic_string@DU?$char_traits@D@std@@V?$allocator@D@2@@std@@V?$basic_json@Vmap@std@@Vvector@2@V?$basic_string@DU?$char_traits@D@std@@V?$allocator@D@2@@2@_N_J_KNVallocator@2@Uadl_serializer@nlohmann@@@nlohmann@@@std@@@2@@std@@@std@@YAABV?$map@V?$basic_string@DU?$char_traits@D@std@@V?$allocator@D@2@@std@@V?$basic_json@Vmap@std@@Vvector@2@V?$basic_string@DU?$char_traits@D@std@@V?$allocator@D@2@@2@_N_J_KNVallocator@2@Uadl_serializer@nlohmann@@@nlohmann@@U?$less@X@2@V?$allocator@U?$pair@$$CBV?$basic_string@DU?$char_traits@D@std@@V?$allocator@D@2@@std@@V?$basic_json@Vmap@std@@Vvector@2@V?$basic_string@DU?$char_traits@D@std@@V?$allocator@D@2@@2@_N_J_KNVallocator@2@Uadl_serializer@nlohmann@@@nlohmann@@@std@@@2@@0@ABV10@@Z 1001eb80 f i tab_Login.obj
 0001:0001db80       ??$move@AAVpath@filesystem@std@@@std@@YA$$QAVpath@filesystem@0@AAV120@@Z 1001eb80 f i Config.obj
 0001:0001db80       ??$_Unfancy@U?$pair@HPBD@std@@@std@@YAPAU?$pair@HPBD@0@PAU10@@Z 1001eb80 f i Config.obj
 0001:0001db80       ??$forward@AAVVector@@@std@@YAAAVVector@@AAV1@@Z 1001eb80 f i grenadetracer.obj
 0001:0001db80       ??$forward@V?$basic_string@DU?$char_traits@D@std@@V?$allocator@D@2@@std@@@std@@YA$$QAV?$basic_string@DU?$char_traits@D@std@@V?$allocator@D@2@@0@AAV10@@Z 1001eb80 f i Config.obj
 0001:0001db80       ??$forward@ABV?$allocator@H@std@@@std@@YAABV?$allocator@H@0@ABV10@@Z 1001eb80 f i Aimbot.obj
 0001:0001db80       ??$forward@V?$allocator@D@std@@@std@@YA$$QAV?$allocator@D@0@AAV10@@Z 1001eb80 f i Config.obj
 0001:0001db80       ??$forward@ABV?$allocator@U?$pair@HPBD@std@@@std@@@std@@YAABV?$allocator@U?$pair@HPBD@std@@@0@ABV10@@Z 1001eb80 f i Config.obj
 0001:0001db80       ??$addressof@V?$output_stream_adapter@D@detail@nlohmann@@@std@@YAPAV?$output_stream_adapter@D@detail@nlohmann@@AAV123@@Z 1001eb80 f i Config.obj
 0001:0001db80       ??$addressof@V?$_List_unchecked_iterator@V?$_List_val@U?$_List_simple_types@U?$pair@QADPAD@std@@@std@@@std@@@std@@@std@@YAPAV?$_List_unchecked_iterator@V?$_List_val@U?$_List_simple_types@U?$pair@QADPAD@std@@@std@@@std@@@0@AAV10@@Z 1001eb80 f i skinchanger.obj
 0001:0001db80       ??$forward@AAUField@@@std@@YAAAUField@@AAU1@@Z 1001eb80 f i Protobuffs.obj
 0001:0001db80       ??$forward@V?$tuple@$$V@std@@@std@@YA$$QAV?$tuple@$$V@0@AAV10@@Z 1001eb80 f i Config.obj
 0001:0001db80       ??$forward@AAY0BA@$$CBD@std@@YAAAY0BA@$$CBDAAY0BA@$$CBD@Z 1001eb80 f i Config.obj
 0001:0001db80       ??$forward@W4parse_event_t@?$parser@V?$basic_json@Vmap@std@@Vvector@2@V?$basic_string@DU?$char_traits@D@std@@V?$allocator@D@2@@2@_N_J_KNVallocator@2@Uadl_serializer@nlohmann@@@nlohmann@@@detail@nlohmann@@@std@@YA$$QAW4parse_event_t@?$parser@V?$basic_json@Vmap@std@@Vvector@2@V?$basic_string@DU?$char_traits@D@std@@V?$allocator@D@2@@2@_N_J_KNVallocator@2@Uadl_serializer@nlohmann@@@nlohmann@@@detail@nlohmann@@AAW41234@@Z 1001eb80 f i Config.obj
 0001:0001db80       ??$forward@ABU?$less@PAX@std@@@std@@YAABU?$less@PAX@0@ABU10@@Z 1001eb80 f i NetvarManager.obj
 0001:0001db80       ??$forward@ABV?$_List_unchecked_iterator@V?$_List_val@U?$_List_simple_types@U?$pair@$$CBV?$basic_string@DU?$char_traits@D@std@@V?$allocator@D@2@@std@@V?$unique_ptr@UNetvarTable@@U?$default_delete@UNetvarTable@@@std@@@2@@std@@@std@@@std@@@std@@@std@@YAABV?$_List_unchecked_iterator@V?$_List_val@U?$_List_simple_types@U?$pair@$$CBV?$basic_string@DU?$char_traits@D@std@@V?$allocator@D@2@@std@@V?$unique_ptr@UNetvarTable@@U?$default_delete@UNetvarTable@@@std@@@2@@std@@@std@@@std@@@0@ABV10@@Z 1001eb80 f i NetvarManager.obj
 0001:0001db80       ??$move@AAUVertex_t@@@std@@YA$$QAUVertex_t@@AAU1@@Z 1001eb80 f i Visuals.obj
 0001:0001db80       ??$move@AAPAVDot@@@std@@YA$$QAPAVDot@@AAPAV1@@Z 1001eb80 f i Drops+.obj
 0001:0001db80       ??$forward@Unotify_data_t@@@std@@YA$$QAUnotify_data_t@@AAU1@@Z 1001eb80 f i notifies.obj
 0001:0001db80       ??$forward@AAV?$basic_ostream@DU?$char_traits@D@std@@@std@@@std@@YAAAV?$basic_ostream@DU?$char_traits@D@std@@@0@AAV10@@Z 1001eb80 f i Config.obj
 0001:0001db80       ??$addressof@V?$_Tree_val@U?$_Tree_simple_types@U?$pair@QAXU?$pair@V?$basic_string@DU?$char_traits@D@std@@V?$allocator@D@2@@std@@V?$vector@V?$basic_string@DU?$char_traits@D@std@@V?$allocator@D@2@@std@@V?$allocator@V?$basic_string@DU?$char_traits@D@std@@V?$allocator@D@2@@std@@@2@@2@@std@@@std@@@std@@@std@@@std@@YAPAV?$_Tree_val@U?$_Tree_simple_types@U?$pair@QAXU?$pair@V?$basic_string@DU?$char_traits@D@std@@V?$allocator@D@2@@std@@V?$vector@V?$basic_string@DU?$char_traits@D@std@@V?$allocator@D@2@@std@@V?$allocator@V?$basic_string@DU?$char_traits@D@std@@V?$allocator@D@2@@std@@@2@@2@@std@@@std@@@std@@@0@AAV10@@Z 1001eb80 f i NetvarManager.obj
 0001:0001db80       ??$forward@ABQAU?$_Tree_node@U?$pair@$$CBV?$basic_string@DU?$char_traits@D@std@@V?$allocator@D@2@@std@@V?$basic_json@Vmap@std@@Vvector@2@V?$basic_string@DU?$char_traits@D@std@@V?$allocator@D@2@@2@_N_J_KNVallocator@2@Uadl_serializer@nlohmann@@@nlohmann@@@std@@PAX@std@@@std@@YAABQAU?$_Tree_node@U?$pair@$$CBV?$basic_string@DU?$char_traits@D@std@@V?$allocator@D@2@@std@@V?$basic_json@Vmap@std@@Vvector@2@V?$basic_string@DU?$char_traits@D@std@@V?$allocator@D@2@@2@_N_J_KNVallocator@2@Uadl_serializer@nlohmann@@@nlohmann@@@std@@PAX@0@ABQAU10@@Z 1001eb80 f i Config.obj
 0001:0001db80       ??$move@AAV?$basic_string@DU?$char_traits@D@std@@V?$allocator@D@2@@std@@@std@@YA$$QAV?$basic_string@DU?$char_traits@D@std@@V?$allocator@D@2@@0@AAV10@@Z 1001eb80 f i Config.obj
 0001:0001db80       ??$_Get_unwrapped@ABV?$reverse_iterator@PB_W@std@@@std@@YAABV?$reverse_iterator@PB_W@0@ABV10@@Z 1001eb80 f i Config.obj
 0001:0001db80       ??$_Unfancy@Vsound_info@@@std@@YAPAVsound_info@@PAV1@@Z 1001eb80 f i Hooks.obj
 0001:0001db80       ??$forward@PAU_Container_base12@std@@@std@@YA$$QAPAU_Container_base12@0@AAPAU10@@Z 1001eb80 f i LagComp.obj
 0001:0001db80       ??$forward@AAU?$pair@HPBD@std@@@std@@YAAAU?$pair@HPBD@0@AAU10@@Z 1001eb80 f i tab_Skin_Changer.obj
 0001:0001db80       ??$addressof@U?$pair@$$CBV?$basic_string@DU?$char_traits@D@std@@V?$allocator@D@2@@std@@V?$basic_json@Vmap@std@@Vvector@2@V?$basic_string@DU?$char_traits@D@std@@V?$allocator@D@2@@2@_N_J_KNVallocator@2@Uadl_serializer@nlohmann@@@nlohmann@@@std@@@std@@YAPAU?$pair@$$CBV?$basic_string@DU?$char_traits@D@std@@V?$allocator@D@2@@std@@V?$basic_json@Vmap@std@@Vvector@2@V?$basic_string@DU?$char_traits@D@std@@V?$allocator@D@2@@2@_N_J_KNVallocator@2@Uadl_serializer@nlohmann@@@nlohmann@@@0@AAU10@@Z 1001eb80 f i Config.obj
 0001:0001db80       ??$forward@PAUNetvarTable@@@std@@YA$$QAPAUNetvarTable@@AAPAU1@@Z 1001eb80 f i NetvarManager.obj
 0001:0001db80       ??$forward@V?$_List_iterator@V?$_List_val@U?$_List_simple_types@U?$pair@$$CBV?$basic_string@DU?$char_traits@D@std@@V?$allocator@D@2@@std@@I@std@@@std@@@std@@@std@@@std@@YA$$QAV?$_List_iterator@V?$_List_val@U?$_List_simple_types@U?$pair@$$CBV?$basic_string@DU?$char_traits@D@std@@V?$allocator@D@2@@std@@I@std@@@std@@@std@@@0@AAV10@@Z 1001eb80 f i NetvarManager.obj
 0001:0001db80       ??$forward@AAPAU?$_List_node@U?$pair@QADPAD@std@@PAX@std@@@std@@YAAAPAU?$_List_node@U?$pair@QADPAD@std@@PAX@0@AAPAU10@@Z 1001eb80 f i skinchanger.obj
 0001:0001db80       ??$forward@ABV?$allocator@U?$pair@QADPAD@std@@@std@@@std@@YAABV?$allocator@U?$pair@QADPAD@std@@@0@ABV10@@Z 1001eb80 f i skinchanger.obj
 0001:0001db80       ?select_on_container_copy_construction@?$_Default_allocator_traits@V?$allocator@U?$_Tree_node@U?$pair@$$CBV?$basic_string@DU?$char_traits@D@std@@V?$allocator@D@2@@std@@V?$basic_json@Vmap@std@@Vvector@2@V?$basic_string@DU?$char_traits@D@std@@V?$allocator@D@2@@2@_N_J_KNVallocator@2@Uadl_serializer@nlohmann@@@nlohmann@@@std@@PAX@std@@@std@@@std@@SA?AV?$allocator@U?$_Tree_node@U?$pair@$$CBV?$basic_string@DU?$char_traits@D@std@@V?$allocator@D@2@@std@@V?$basic_json@Vmap@std@@Vvector@2@V?$basic_string@DU?$char_traits@D@std@@V?$allocator@D@2@@2@_N_J_KNVallocator@2@Uadl_serializer@nlohmann@@@nlohmann@@@std@@PAX@std@@@2@ABV32@@Z 1001eb80 f i tab_Login.obj
 0001:0001db80       ??$addressof@V?$_Tree_val@U?$_Tree_simple_types@U?$pair@$$CBV?$basic_string@DU?$char_traits@D@std@@V?$allocator@D@2@@std@@V?$basic_json@Vmap@std@@Vvector@2@V?$basic_string@DU?$char_traits@D@std@@V?$allocator@D@2@@2@_N_J_KNVallocator@2@Uadl_serializer@nlohmann@@@nlohmann@@@std@@@std@@@std@@@std@@YAPAV?$_Tree_val@U?$_Tree_simple_types@U?$pair@$$CBV?$basic_string@DU?$char_traits@D@std@@V?$allocator@D@2@@std@@V?$basic_json@Vmap@std@@Vvector@2@V?$basic_string@DU?$char_traits@D@std@@V?$allocator@D@2@@2@_N_J_KNVallocator@2@Uadl_serializer@nlohmann@@@nlohmann@@@std@@@std@@@0@AAV10@@Z 1001eb80 f i Config.obj
 0001:0001db80       ??$move@AAU_Find_file_handle@filesystem@std@@@std@@YA$$QAU_Find_file_handle@filesystem@0@AAU120@@Z 1001eb80 f i Config.obj
 0001:0001db80       ??$addressof@V?$basic_stringbuf@DU?$char_traits@D@std@@V?$allocator@D@2@@std@@@std@@YAPAV?$basic_stringbuf@DU?$char_traits@D@std@@V?$allocator@D@2@@0@AAV10@@Z 1001eb80 f i Config.obj
 0001:0001db80       ??$addressof@V?$_Vector_val@U?$_Simple_types@H@std@@@std@@@std@@YAPAV?$_Vector_val@U?$_Simple_types@H@std@@@0@AAV10@@Z 1001eb80 f i Hooks.obj
 0001:0001db80       ??$forward@AAY0CC@$$CBD@std@@YAAAY0CC@$$CBDAAY0CC@$$CBD@Z 1001eb80 f i otheresp.obj
 0001:0001db80       ??$forward@AAY0P@$$CBD@std@@YAAAY0P@$$CBDAAY0P@$$CBD@Z 1001eb80 f i Config.obj
 0001:0001db80       ??$forward@Vsound_info@@@std@@YA$$QAVsound_info@@AAV1@@Z 1001eb80 f i Hooks.obj
 0001:0001db80       ??$forward@ABQAU?$_Tree_node@U?$pair@QAXU?$pair@V?$basic_string@DU?$char_traits@D@std@@V?$allocator@D@2@@std@@V?$vector@V?$basic_string@DU?$char_traits@D@std@@V?$allocator@D@2@@std@@V?$allocator@V?$basic_string@DU?$char_traits@D@std@@V?$allocator@D@2@@std@@@2@@2@@std@@@std@@PAX@std@@@std@@YAABQAU?$_Tree_node@U?$pair@QAXU?$pair@V?$basic_string@DU?$char_traits@D@std@@V?$allocator@D@2@@std@@V?$vector@V?$basic_string@DU?$char_traits@D@std@@V?$allocator@D@2@@std@@V?$allocator@V?$basic_string@DU?$char_traits@D@std@@V?$allocator@D@2@@std@@@2@@2@@std@@@std@@PAX@0@ABQAU10@@Z 1001eb80 f i NetvarManager.obj
 0001:0001db80       ??$forward@ABUField@@@std@@YAABUField@@ABU1@@Z 1001eb80 f i Protobuffs.obj
 0001:0001db80       ??$forward@AAV?$basic_istream@DU?$char_traits@D@std@@@std@@@std@@YAAAV?$basic_istream@DU?$char_traits@D@std@@@0@AAV10@@Z 1001eb80 f i Config.obj
 0001:0001db80       ??$forward@AAY04$$CBD@std@@YAAAY04$$CBDAAY04$$CBD@Z 1001eb80 f i Config.obj
 0001:0001db80       ??$_Unfancy@UConfig_t@@@std@@YAPAUConfig_t@@PAU1@@Z 1001eb80 f i newMenu.obj
 0001:0001db80       ??$forward@AAE@std@@YAAAEAAE@Z 1001eb80 f i Config.obj
 0001:0001db80       ??$move@AAV?$tuple@ABQAD@std@@@std@@YA$$QAV?$tuple@ABQAD@0@AAV10@@Z 1001eb80 f i skinchanger.obj
 0001:0001db80       ??$forward@V?$allocator@U?$_Tree_node@U?$pair@$$CBV?$basic_string@DU?$char_traits@D@std@@V?$allocator@D@2@@std@@V?$basic_json@Vmap@std@@Vvector@2@V?$basic_string@DU?$char_traits@D@std@@V?$allocator@D@2@@2@_N_J_KNVallocator@2@Uadl_serializer@nlohmann@@@nlohmann@@@std@@PAX@std@@@std@@@std@@YA$$QAV?$allocator@U?$_Tree_node@U?$pair@$$CBV?$basic_string@DU?$char_traits@D@std@@V?$allocator@D@2@@std@@V?$basic_json@Vmap@std@@Vvector@2@V?$basic_string@DU?$char_traits@D@std@@V?$allocator@D@2@@2@_N_J_KNVallocator@2@Uadl_serializer@nlohmann@@@nlohmann@@@std@@PAX@std@@@0@AAV10@@Z 1001eb80 f i tab_Login.obj
 0001:0001db80       ??$forward@AAY0BC@$$CBD@std@@YAAAY0BC@$$CBDAAY0BC@$$CBD@Z 1001eb80 f i Config.obj
 0001:0001db80       ??$forward@AAVColor@@@std@@YAAAVColor@@AAV1@@Z 1001eb80 f i Config.obj
 0001:0001db90       ??$_Deallocate@$03$0A@@std@@YAXPAXI@Z 1001eb90 f i Hooks.obj
 0001:0001db90       ??$_Deallocate@$07$0A@@std@@YAXPAXI@Z 1001eb90 f i CFixMove.obj
 0001:0001dbf0       ??$_Get_size_of_n@$00@std@@YAII@Z 1001ebf0 f i CFixMove.obj
 0001:0001dc00       ??$_Max_value@I@std@@YAABIABI0@Z 1001ec00 f i CFixMove.obj
 0001:0001dc00       ??$_Max_value@PAD@std@@YAABQADABQAD0@Z 1001ec00 f i Config.obj
 0001:0001dc00       ??$_Max_value@PA_W@std@@YAABQA_WABQA_W0@Z 1001ec00 f i Hooks.obj
 0001:0001dc30       ??$_Min_value@I@std@@YAABIABI0@Z 1001ec30 f i CFixMove.obj
 0001:0001dc60       ??$_Reallocate_for@V<lambda_1>@?1??assign@?$basic_string@DU?$char_traits@D@std@@V?$allocator@D@2@@std@@QAEAAV34@QBDI@Z@PBD@?$basic_string@DU?$char_traits@D@std@@V?$allocator@D@2@@std@@AAEAAV01@IV<lambda_1>@?1??assign@01@QAEAAV01@QBDI@Z@PBD@Z 1001ec60 f i CFixMove.obj
 0001:0001dd30       ??$_Traits_equal@U?$char_traits@D@std@@@std@@YA_NQBDI0I@Z 1001ed30 f i CFixMove.obj
 0001:0001dd70       ??0?$_String_val@U?$_Simple_types@_W@std@@@std@@QAE@XZ 1001ed70 f i Config.obj
 0001:0001dd70       ??0?$_String_val@U?$_Simple_types@D@std@@@std@@QAE@XZ 1001ed70 f i CFixMove.obj
 0001:0001dda0       ?_Get_first@?$_Compressed_pair@V?$allocator@U?$_Tree_node@U?$pair@$$CBHPAVCWindow@@@std@@PAX@std@@@std@@V?$_Tree_val@U?$_Tree_simple_types@U?$pair@$$CBHPAVCWindow@@@std@@@std@@@2@$00@std@@QAEAAV?$allocator@U?$_Tree_node@U?$pair@$$CBHPAVCWindow@@@std@@PAX@std@@@2@XZ 1001eda0 f i GUI.obj
 0001:0001dda0       ??0?$allocator@PAVCTab@@@std@@QAE@XZ 1001eda0 f i newMenu.obj
 0001:0001dda0       ??0?$allocator@Unotify_data_t@@@std@@QAE@XZ 1001eda0 f i notifies.obj
 0001:0001dda0       ?_Get_first@?$_Compressed_pair@V?$allocator@U?$_Tree_node@U?$pair@$$CBV?$basic_string@DU?$char_traits@D@std@@V?$allocator@D@2@@std@@V?$basic_json@Vmap@std@@Vvector@2@V?$basic_string@DU?$char_traits@D@std@@V?$allocator@D@2@@2@_N_J_KNVallocator@2@Uadl_serializer@nlohmann@@@nlohmann@@@std@@PAX@std@@@std@@V?$_Tree_val@U?$_Tree_simple_types@U?$pair@$$CBV?$basic_string@DU?$char_traits@D@std@@V?$allocator@D@2@@std@@V?$basic_json@Vmap@std@@Vvector@2@V?$basic_string@DU?$char_traits@D@std@@V?$allocator@D@2@@2@_N_J_KNVallocator@2@Uadl_serializer@nlohmann@@@nlohmann@@@std@@@std@@@2@$00@std@@QAEAAV?$allocator@U?$_Tree_node@U?$pair@$$CBV?$basic_string@DU?$char_traits@D@std@@V?$allocator@D@2@@std@@V?$basic_json@Vmap@std@@Vvector@2@V?$basic_string@DU?$char_traits@D@std@@V?$allocator@D@2@@2@_N_J_KNVallocator@2@Uadl_serializer@nlohmann@@@nlohmann@@@std@@PAX@std@@@2@XZ 1001eda0 f i Config.obj
 0001:0001dda0       ??0?$allocator@U?$pair@V?$basic_string@DU?$char_traits@D@std@@V?$allocator@D@2@@std@@VColor@@@std@@@std@@QAE@XZ 1001eda0 f i Visuals.obj
 0001:0001dda0       ??0?$allocator@V?$basic_json@Vmap@std@@Vvector@2@V?$basic_string@DU?$char_traits@D@std@@V?$allocator@D@2@@2@_N_J_KNVallocator@2@Uadl_serializer@nlohmann@@@nlohmann@@@std@@QAE@XZ 1001eda0 f i Config.obj
 0001:0001dda0       ??0?$_Func_base@XPAVC_BaseEntity@@@std@@QAE@XZ 1001eda0 f i Hooks.obj
 0001:0001dda0       ?_Get_first@?$_Compressed_pair@V?$allocator@Vsound_info@@@std@@V?$_Vector_val@U?$_Simple_types@Vsound_info@@@std@@@2@$00@std@@QBEABV?$allocator@Vsound_info@@@2@XZ 1001eda0 f i Hooks.obj
 0001:0001dda0       ?_Get_first@?$_Compressed_pair@V?$allocator@PBD@std@@V?$_Vector_val@U?$_Simple_types@PBD@std@@@2@$00@std@@QBEABV?$allocator@PBD@2@XZ 1001eda0 f i Hooks.obj
 0001:0001dda0       ?_Get_first@?$_Compressed_pair@V?$allocator@Vtrace_info@bullettracers@@@std@@V?$_Vector_val@U?$_Simple_types@Vtrace_info@bullettracers@@@std@@@2@$00@std@@QBEABV?$allocator@Vtrace_info@bullettracers@@@2@XZ 1001eda0 f i bullettracers.obj
 0001:0001dda0       ?_Get_first@?$_Compressed_pair@U?$hash@V?$basic_string@DU?$char_traits@D@std@@V?$allocator@D@2@@std@@@std@@V?$_Compressed_pair@U?$equal_to@V?$basic_string@DU?$char_traits@D@std@@V?$allocator@D@2@@std@@@std@@M$00@2@$00@std@@QBEABU?$hash@V?$basic_string@DU?$char_traits@D@std@@V?$allocator@D@2@@std@@@2@XZ 1001eda0 f i NetvarManager.obj
 0001:0001dda0       ??0?$allocator@U?$pair@HPBD@std@@@std@@QAE@XZ 1001eda0 f i Config.obj
 0001:0001dda0       ?_Get_max_bucket_size@?$_Uhash_compare@V?$basic_string@DU?$char_traits@D@std@@V?$allocator@D@2@@std@@U?$hash@V?$basic_string@DU?$char_traits@D@std@@V?$allocator@D@2@@std@@@2@U?$equal_to@V?$basic_string@DU?$char_traits@D@std@@V?$allocator@D@2@@std@@@2@@std@@QAEAAMXZ 1001eda0 f i NetvarManager.obj
 0001:0001dda0       ?_Get_first@?$_Compressed_pair@V?$allocator@UVertex_t@@@std@@V?$_Vector_val@U?$_Simple_types@UVertex_t@@@std@@@2@$00@std@@QBEABV?$allocator@UVertex_t@@@2@XZ 1001eda0 f i Visuals.obj
 0001:0001dda0       ??0?$allocator@PAVCWindow@@@std@@QAE@XZ 1001eda0 f i Controls.obj
 0001:0001dda0       ?_Get_first@?$_Compressed_pair@V?$allocator@I@std@@V?$_Vector_val@U?$_Simple_types@I@std@@@2@$00@std@@QBEABV?$allocator@I@2@XZ 1001eda0 f i Protobuffs.obj
 0001:0001dda0       ?_Get_first@?$_Compressed_pair@V<lambda_1>@?1???$create@V?$map@V?$basic_string@DU?$char_traits@D@std@@V?$allocator@D@2@@std@@V?$basic_json@Vmap@std@@Vvector@2@V?$basic_string@DU?$char_traits@D@std@@V?$allocator@D@2@@2@_N_J_KNVallocator@2@Uadl_serializer@nlohmann@@@nlohmann@@U?$less@X@2@V?$allocator@U?$pair@$$CBV?$basic_string@DU?$char_traits@D@std@@V?$allocator@D@2@@std@@V?$basic_json@Vmap@std@@Vvector@2@V?$basic_string@DU?$char_traits@D@std@@V?$allocator@D@2@@2@_N_J_KNVallocator@2@Uadl_serializer@nlohmann@@@nlohmann@@@std@@@2@@std@@ABV12@@?$basic_json@Vmap@std@@Vvector@2@V?$basic_string@DU?$char_traits@D@std@@V?$allocator@D@2@@2@_N_J_KNVallocator@2@Uadl_serializer@nlohmann@@@nlohmann@@CAPAV?$map@V?$basic_string@DU?$char_traits@D@std@@V?$allocator@D@2@@std@@V?$basic_json@Vmap@std@@Vvector@2@V?$basic_string@DU?$char_traits@D@std@@V?$allocator@D@2@@2@_N_J_KNVallocator@2@Uadl_serializer@nlohmann@@@nlohmann@@U?$less@X@2@V?$allocator@U?$pair@$$CBV?$basic_string@DU?$char_traits@D@std@@V?$allocator@D@2@@std@@V?$basic_json@Vmap@std@@Vvector@2@V?$basic_string@DU?$char_traits@D@std@@V?$allocator@D@2@@2@_N_J_KNVallocator@2@Uadl_serializer@nlohmann@@@nlohmann@@@std@@@2@@std@@ABV45@@Z@PAV45@$0A@@std@@QAEAAV<lambda_1>@?1???$create@V?$map@V?$basic_string@DU?$char_traits@D@std@@V?$allocator@D@2@@std@@V?$basic_json@Vmap@std@@Vvector@2@V?$basic_string@DU?$char_traits@D@std@@V?$allocator@D@2@@2@_N_J_KNVallocator@2@Uadl_serializer@nlohmann@@@nlohmann@@U?$less@X@2@V?$allocator@U?$pair@$$CBV?$basic_string@DU?$char_traits@D@std@@V?$allocator@D@2@@std@@V?$basic_json@Vmap@std@@Vvector@2@V?$basic_string@DU?$char_traits@D@std@@V?$allocator@D@2@@2@_N_J_KNVallocator@2@Uadl_serializer@nlohmann@@@nlohmann@@@std@@@2@@std@@ABV12@@?$basic_json@Vmap@std@@Vvector@2@V?$basic_string@DU?$char_traits@D@std@@V?$allocator@D@2@@2@_N_J_KNVallocator@2@Uadl_serializer@nlohmann@@@nlohmann@@CAPAV?$map@V?$basic_string@DU?$char_traits@D@std@@V?$allocator@D@2@@std@@V?$basic_json@Vmap@std@@Vvector@2@V?$basic_string@DU?$char_traits@D@std@@V?$allocator@D@2@@2@_N_J_KNVallocator@2@Uadl_serializer@nlohmann@@@nlohmann@@U?$less@X@2@V?$allocator@U?$pair@$$CBV?$basic_string@DU?$char_traits@D@std@@V?$allocator@D@2@@std@@V?$basic_json@Vmap@std@@Vvector@2@V?$basic_string@DU?$char_traits@D@std@@V?$allocator@D@2@@2@_N_J_KNVallocator@2@Uadl_serializer@nlohmann@@@nlohmann@@@std@@@2@@2@ABV62@@Z@XZ 1001eda0 f i tab_Login.obj
 0001:0001dda0       ?_Get_first@?$_Compressed_pair@V?$allocator@Vtrace_info@bullettracers@@@std@@V?$_Vector_val@U?$_Simple_types@Vtrace_info@bullettracers@@@std@@@2@$00@std@@QAEAAV?$allocator@Vtrace_info@bullettracers@@@2@XZ 1001eda0 f i bullettracers.obj
 0001:0001dda0       ?_Get_first@?$_Compressed_pair@V?$allocator@V?$_List_unchecked_iterator@V?$_List_val@U?$_List_simple_types@U?$pair@$$CBV?$basic_string@DU?$char_traits@D@std@@V?$allocator@D@2@@std@@I@std@@@std@@@std@@@std@@@std@@V?$_Vector_val@U?$_Simple_types@V?$_List_unchecked_iterator@V?$_List_val@U?$_List_simple_types@U?$pair@$$CBV?$basic_string@DU?$char_traits@D@std@@V?$allocator@D@2@@std@@I@std@@@std@@@std@@@std@@@std@@@2@$00@std@@QBEABV?$allocator@V?$_List_unchecked_iterator@V?$_List_val@U?$_List_simple_types@U?$pair@$$CBV?$basic_string@DU?$char_traits@D@std@@V?$allocator@D@2@@std@@I@std@@@std@@@std@@@std@@@2@XZ 1001eda0 f i NetvarManager.obj
 0001:0001dda0       ?_Get_first@?$_Compressed_pair@V?$allocator@I@std@@V?$_Vector_val@U?$_Simple_types@I@std@@@2@$00@std@@QAEAAV?$allocator@I@2@XZ 1001eda0 f i Config.obj
 0001:0001dda0       ?_Get_first@?$_Compressed_pair@V?$allocator@V?$_List_unchecked_iterator@V?$_List_val@U?$_List_simple_types@U?$pair@$$CBV?$basic_string@DU?$char_traits@D@std@@V?$allocator@D@2@@std@@I@std@@@std@@@std@@@std@@@std@@V?$_Vector_val@U?$_Simple_types@V?$_List_unchecked_iterator@V?$_List_val@U?$_List_simple_types@U?$pair@$$CBV?$basic_string@DU?$char_traits@D@std@@V?$allocator@D@2@@std@@I@std@@@std@@@std@@@std@@@std@@@2@$00@std@@QAEAAV?$allocator@V?$_List_unchecked_iterator@V?$_List_val@U?$_List_simple_types@U?$pair@$$CBV?$basic_string@DU?$char_traits@D@std@@V?$allocator@D@2@@std@@I@std@@@std@@@std@@@std@@@2@XZ 1001eda0 f i NetvarManager.obj
 0001:0001dda0       ??0?$allocator@U_Find_file_handle@filesystem@std@@@std@@QAE@XZ 1001eda0 f i Config.obj
 0001:0001dda0       ?_Get_first@?$_Compressed_pair@V?$allocator@U?$_List_node@U?$pair@QADPAD@std@@PAX@std@@@std@@V?$_List_val@U?$_List_simple_types@U?$pair@QADPAD@std@@@std@@@2@$00@std@@QBEABV?$allocator@U?$_List_node@U?$pair@QADPAD@std@@PAX@std@@@2@XZ 1001eda0 f i skinchanger.obj
 0001:0001dda0       ?_Get_first@?$_Compressed_pair@U?$equal_to@PAD@std@@M$00@std@@QBEABU?$equal_to@PAD@2@XZ 1001eda0 f i skinchanger.obj
 0001:0001dda0       ??0?$allocator@V?$map@V?$basic_string@DU?$char_traits@D@std@@V?$allocator@D@2@@std@@V?$basic_json@Vmap@std@@Vvector@2@V?$basic_string@DU?$char_traits@D@std@@V?$allocator@D@2@@2@_N_J_KNVallocator@2@Uadl_serializer@nlohmann@@@nlohmann@@U?$less@X@2@V?$allocator@U?$pair@$$CBV?$basic_string@DU?$char_traits@D@std@@V?$allocator@D@2@@std@@V?$basic_json@Vmap@std@@Vvector@2@V?$basic_string@DU?$char_traits@D@std@@V?$allocator@D@2@@2@_N_J_KNVallocator@2@Uadl_serializer@nlohmann@@@nlohmann@@@std@@@2@@std@@@std@@QAE@XZ 1001eda0 f i Config.obj
 0001:0001dda0       ??0?$allocator@Uwskin@@@std@@QAE@XZ 1001eda0 f i Protobuffs.obj
 0001:0001dda0       ?_Get_first@?$_Compressed_pair@V?$allocator@V?$basic_string@DU?$char_traits@D@std@@V?$allocator@D@2@@std@@@std@@V?$_Vector_val@U?$_Simple_types@V?$basic_string@DU?$char_traits@D@std@@V?$allocator@D@2@@std@@@std@@@2@$00@std@@QBEABV?$allocator@V?$basic_string@DU?$char_traits@D@std@@V?$allocator@D@2@@std@@@2@XZ 1001eda0 f i Config.obj
 0001:0001dda0       ?_Get_first@?$_Compressed_pair@V?$allocator@_W@std@@V?$_String_val@U?$_Simple_types@_W@std@@@2@$00@std@@QAEAAV?$allocator@_W@2@XZ 1001eda0 f i Config.obj
 0001:0001dda0       ??0?$singleton@Vbullettracers@@@@IAE@XZ 1001eda0 f i Hooks.obj
 0001:0001dda0       ?_Get_first@?$_Compressed_pair@V?$allocator@UPlayerRecords@@@std@@V?$_Deque_val@U?$_Deque_simple_types@UPlayerRecords@@@std@@@2@$00@std@@QAEAAV?$allocator@UPlayerRecords@@@2@XZ 1001eda0 f i LagComp.obj
 0001:0001dda0       ?_Get_first@?$_Compressed_pair@V?$allocator@D@std@@V?$_String_val@U?$_Simple_types@D@std@@@2@$00@std@@QBEABV?$allocator@D@2@XZ 1001eda0 f i CFixMove.obj
 0001:0001dda0       ?_Get_first@?$_Compressed_pair@U?$hash@PAD@std@@V?$_Compressed_pair@U?$equal_to@PAD@std@@M$00@2@$00@std@@QBEABU?$hash@PAD@2@XZ 1001eda0 f i skinchanger.obj
 0001:0001dda0       ??0?$allocator@Uimpact_info@@@std@@QAE@XZ 1001eda0 f i otheresp.obj
 0001:0001dda0       ??0?$Singleton@Vchams123@@@@IAE@XZ 1001eda0 f i Hooks.obj
 0001:0001dda0       ?_Get_first@?$_Compressed_pair@V?$allocator@V?$vector@UField@@V?$allocator@UField@@@std@@@std@@@std@@V?$_Vector_val@U?$_Simple_types@V?$vector@UField@@V?$allocator@UField@@@std@@@std@@@std@@@2@$00@std@@QAEAAV?$allocator@V?$vector@UField@@V?$allocator@UField@@@std@@@std@@@2@XZ 1001eda0 f i Protobuffs.obj
 0001:0001dda0       ?_Get_first@?$_Compressed_pair@V?$allocator@H@std@@V?$_Vector_val@U?$_Simple_types@H@std@@@2@$00@std@@QBEABV?$allocator@H@2@XZ 1001eda0 f i Controls.obj
 0001:0001dda0       ??0?$allocator@UConfig_t@@@std@@QAE@XZ 1001eda0 f i newMenu.obj
 0001:0001dda0       ?_Get_first@?$_Compressed_pair@V?$allocator@VConfigFile@@@std@@V?$_Vector_val@U?$_Simple_types@VConfigFile@@@std@@@2@$00@std@@QBEABV?$allocator@VConfigFile@@@2@XZ 1001eda0 f i Config.obj
 0001:0001dda0       ?_Get_first@?$_Compressed_pair@V?$allocator@U?$_List_node@U?$pair@$$CBV?$basic_string@DU?$char_traits@D@std@@V?$allocator@D@2@@std@@V?$unique_ptr@UNetvarTable@@U?$default_delete@UNetvarTable@@@std@@@2@@std@@PAX@std@@@std@@V?$_List_val@U?$_List_simple_types@U?$pair@$$CBV?$basic_string@DU?$char_traits@D@std@@V?$allocator@D@2@@std@@V?$unique_ptr@UNetvarTable@@U?$default_delete@UNetvarTable@@@std@@@2@@std@@@std@@@2@$00@std@@QAEAAV?$allocator@U?$_List_node@U?$pair@$$CBV?$basic_string@DU?$char_traits@D@std@@V?$allocator@D@2@@std@@V?$unique_ptr@UNetvarTable@@U?$default_delete@UNetvarTable@@@std@@@2@@std@@PAX@std@@@2@XZ 1001eda0 f i NetvarManager.obj
 0001:0001dda0       ?_Get_first@?$_Compressed_pair@V?$allocator@U_Find_file_handle@filesystem@std@@@std@@V?$_Vector_val@U?$_Simple_types@U_Find_file_handle@filesystem@std@@@std@@@2@$00@std@@QAEAAV?$allocator@U_Find_file_handle@filesystem@std@@@2@XZ 1001eda0 f i Config.obj
 0001:0001dda0       ?_Get_first@?$_Compressed_pair@V?$allocator@Vsound_info@@@std@@V?$_Vector_val@U?$_Simple_types@Vsound_info@@@std@@@2@$00@std@@QAEAAV?$allocator@Vsound_info@@@2@XZ 1001eda0 f i Hooks.obj
 0001:0001dda0       ??0?$allocator@UPlayerRecords@@@std@@QAE@XZ 1001eda0 f i LagComp.obj
 0001:0001dda0       ?_Get_first@?$_Compressed_pair@V<lambda_1>@?1???$create@V?$vector@V?$basic_json@Vmap@std@@Vvector@2@V?$basic_string@DU?$char_traits@D@std@@V?$allocator@D@2@@2@_N_J_KNVallocator@2@Uadl_serializer@nlohmann@@@nlohmann@@V?$allocator@V?$basic_json@Vmap@std@@Vvector@2@V?$basic_string@DU?$char_traits@D@std@@V?$allocator@D@2@@2@_N_J_KNVallocator@2@Uadl_serializer@nlohmann@@@nlohmann@@@std@@@std@@ABV12@@?$basic_json@Vmap@std@@Vvector@2@V?$basic_string@DU?$char_traits@D@std@@V?$allocator@D@2@@2@_N_J_KNVallocator@2@Uadl_serializer@nlohmann@@@nlohmann@@CAPAV?$vector@V?$basic_json@Vmap@std@@Vvector@2@V?$basic_string@DU?$char_traits@D@std@@V?$allocator@D@2@@2@_N_J_KNVallocator@2@Uadl_serializer@nlohmann@@@nlohmann@@V?$allocator@V?$basic_json@Vmap@std@@Vvector@2@V?$basic_string@DU?$char_traits@D@std@@V?$allocator@D@2@@2@_N_J_KNVallocator@2@Uadl_serializer@nlohmann@@@nlohmann@@@std@@@std@@ABV45@@Z@PAV45@$0A@@std@@QAEAAV<lambda_1>@?1???$create@V?$vector@V?$basic_json@Vmap@std@@Vvector@2@V?$basic_string@DU?$char_traits@D@std@@V?$allocator@D@2@@2@_N_J_KNVallocator@2@Uadl_serializer@nlohmann@@@nlohmann@@V?$allocator@V?$basic_json@Vmap@std@@Vvector@2@V?$basic_string@DU?$char_traits@D@std@@V?$allocator@D@2@@2@_N_J_KNVallocator@2@Uadl_serializer@nlohmann@@@nlohmann@@@std@@@std@@ABV12@@?$basic_json@Vmap@std@@Vvector@2@V?$basic_string@DU?$char_traits@D@std@@V?$allocator@D@2@@2@_N_J_KNVallocator@2@Uadl_serializer@nlohmann@@@nlohmann@@CAPAV?$vector@V?$basic_json@Vmap@std@@Vvector@2@V?$basic_string@DU?$char_traits@D@std@@V?$allocator@D@2@@2@_N_J_KNVallocator@2@Uadl_serializer@nlohmann@@@nlohmann@@V?$allocator@V?$basic_json@Vmap@std@@Vvector@2@V?$basic_string@DU?$char_traits@D@std@@V?$allocator@D@2@@2@_N_J_KNVallocator@2@Uadl_serializer@nlohmann@@@nlohmann@@@std@@@2@ABV62@@Z@XZ 1001eda0 f i tab_Login.obj
 0001:0001dda0       ?_Get_data@?$deque@UPlayerRecords@@V?$allocator@UPlayerRecords@@@std@@@std@@AAEAAV?$_Deque_val@U?$_Deque_simple_types@UPlayerRecords@@@std@@@2@XZ 1001eda0 f i Aimbot.obj
 0001:0001dda0       ??0?$singletonxd1@VGrenadePrediction@@@@IAE@XZ 1001eda0 f i Hooks.obj
 0001:0001dda0       ??0?$allocator@V?$basic_string@DU?$char_traits@D@std@@V?$allocator@D@2@@std@@@std@@QAE@XZ 1001eda0 f i Config.obj
 0001:0001dda0       ??0matrix3x4_t@@QAE@XZ     1001eda0 f i Aimbot.obj
 0001:0001dda0       ?_Get_first@?$_Compressed_pair@V?$allocator@UPlayerRecords@@@std@@V?$_Deque_val@U?$_Deque_simple_types@UPlayerRecords@@@std@@@2@$00@std@@QBEABV?$allocator@UPlayerRecords@@@2@XZ 1001eda0 f i LagComp.obj
 0001:0001dda0       ?_Get_first@?$_Compressed_pair@U?$default_delete@VShadowVTManager@@@std@@PAVShadowVTManager@@$00@std@@QAEAAU?$default_delete@VShadowVTManager@@@2@XZ 1001eda0 f i Hooks.obj
 0001:0001dda0       ?_Get_data@?$deque@UPlayerRecords@@V?$allocator@UPlayerRecords@@@std@@@std@@ABEABV?$_Deque_val@U?$_Deque_simple_types@UPlayerRecords@@@std@@@2@XZ 1001eda0 f i Aimbot.obj
 0001:0001dda0       ??0?$Singleton@VInputSys@@@@IAE@XZ 1001eda0 f i Input.obj
 0001:0001dda0       ?_Get_first@?$_Compressed_pair@V?$allocator@V?$vector@UField@@V?$allocator@UField@@@std@@@std@@@std@@V?$_Vector_val@U?$_Simple_types@V?$vector@UField@@V?$allocator@UField@@@std@@@std@@@std@@@2@$00@std@@QBEABV?$allocator@V?$vector@UField@@V?$allocator@UField@@@std@@@std@@@2@XZ 1001eda0 f i Protobuffs.obj
 0001:0001dda0       ?_Get_first@?$_Compressed_pair@V<lambda_1>@?1???$create@V?$vector@V?$basic_json@Vmap@std@@Vvector@2@V?$basic_string@DU?$char_traits@D@std@@V?$allocator@D@2@@2@_N_J_KNVallocator@2@Uadl_serializer@nlohmann@@@nlohmann@@V?$allocator@V?$basic_json@Vmap@std@@Vvector@2@V?$basic_string@DU?$char_traits@D@std@@V?$allocator@D@2@@2@_N_J_KNVallocator@2@Uadl_serializer@nlohmann@@@nlohmann@@@std@@@std@@PBV?$json_ref@V?$basic_json@Vmap@std@@Vvector@2@V?$basic_string@DU?$char_traits@D@std@@V?$allocator@D@2@@2@_N_J_KNVallocator@2@Uadl_serializer@nlohmann@@@nlohmann@@@detail@nlohmann@@PBV345@@?$basic_json@Vmap@std@@Vvector@2@V?$basic_string@DU?$char_traits@D@std@@V?$allocator@D@2@@2@_N_J_KNVallocator@2@Uadl_serializer@nlohmann@@@nlohmann@@CAPAV?$vector@V?$basic_json@Vmap@std@@Vvector@2@V?$basic_string@DU?$char_traits@D@std@@V?$allocator@D@2@@2@_N_J_KNVallocator@2@Uadl_serializer@nlohmann@@@nlohmann@@V?$allocator@V?$basic_json@Vmap@std@@Vvector@2@V?$basic_string@DU?$char_traits@D@std@@V?$allocator@D@2@@2@_N_J_KNVallocator@2@Uadl_serializer@nlohmann@@@nlohmann@@@std@@@std@@$$QAPBV?$json_ref@V?$basic_json@Vmap@std@@Vvector@2@V?$basic_string@DU?$char_traits@D@std@@V?$allocator@D@2@@2@_N_J_KNVallocator@2@Uadl_serializer@nlohmann@@@nlohmann@@@detail@3@0@Z@PAV45@$0A@@std@@QAEAAV<lambda_1>@?1???$create@V?$vector@V?$basic_json@Vmap@std@@Vvector@2@V?$basic_string@DU?$char_traits@D@std@@V?$allocator@D@2@@2@_N_J_KNVallocator@2@Uadl_serializer@nlohmann@@@nlohmann@@V?$allocator@V?$basic_json@Vmap@std@@Vvector@2@V?$basic_string@DU?$char_traits@D@std@@V?$allocator@D@2@@2@_N_J_KNVallocator@2@Uadl_serializer@nlohmann@@@nlohmann@@@std@@@std@@PBV?$json_ref@V?$basic_json@Vmap@std@@Vvector@2@V?$basic_string@DU?$char_traits@D@std@@V?$allocator@D@2@@2@_N_J_KNVallocator@2@Uadl_serializer@nlohmann@@@nlohmann@@@detail@nlohmann@@PBV345@@?$basic_json@Vmap@std@@Vvector@2@V?$basic_string@DU?$char_traits@D@std@@V?$allocator@D@2@@2@_N_J_KNVallocator@2@Uadl_serializer@nlohmann@@@nlohmann@@CAPAV?$vector@V?$basic_json@Vmap@std@@Vvector@2@V?$basic_string@DU?$char_traits@D@std@@V?$allocator@D@2@@2@_N_J_KNVallocator@2@Uadl_serializer@nlohmann@@@nlohmann@@V?$allocator@V?$basic_json@Vmap@std@@Vvector@2@V?$basic_string@DU?$char_traits@D@std@@V?$allocator@D@2@@2@_N_J_KNVallocator@2@Uadl_serializer@nlohmann@@@nlohmann@@@std@@@2@$$QAPBV?$json_ref@V?$basic_json@Vmap@std@@Vvector@2@V?$basic_string@DU?$char_traits@D@std@@V?$allocator@D@2@@2@_N_J_KNVallocator@2@Uadl_serializer@nlohmann@@@nlohmann@@@detail@5@0@Z@XZ 1001eda0 f i tab_Login.obj
 0001:0001dda0       ?_Get_first@?$_Compressed_pair@V?$allocator@U?$_List_node@U?$pair@$$CBV?$basic_string@DU?$char_traits@D@std@@V?$allocator@D@2@@std@@I@std@@PAX@std@@@std@@V?$_List_val@U?$_List_simple_types@U?$pair@$$CBV?$basic_string@DU?$char_traits@D@std@@V?$allocator@D@2@@std@@I@std@@@std@@@2@$00@std@@QAEAAV?$allocator@U?$_List_node@U?$pair@$$CBV?$basic_string@DU?$char_traits@D@std@@V?$allocator@D@2@@std@@I@std@@PAX@std@@@2@XZ 1001eda0 f i NetvarManager.obj
 0001:0001dda0       ?_Get_first@?$_Compressed_pair@V?$allocator@PAVDot@@@std@@V?$_Vector_val@U?$_Simple_types@PAVDot@@@std@@@2@$00@std@@QBEABV?$allocator@PAVDot@@@2@XZ 1001eda0 f i Drops+.obj
 0001:0001dda0       ??0_Bxty@?$_String_val@U?$_Simple_types@D@std@@@std@@QAE@XZ 1001eda0 f i CFixMove.obj
 0001:0001dda0       ??0?$allocator@U?$_Tree_node@U?$pair@$$CBV?$basic_string@DU?$char_traits@D@std@@V?$allocator@D@2@@std@@V?$basic_json@Vmap@std@@Vvector@2@V?$basic_string@DU?$char_traits@D@std@@V?$allocator@D@2@@2@_N_J_KNVallocator@2@Uadl_serializer@nlohmann@@@nlohmann@@@std@@PAX@std@@@std@@QAE@XZ 1001eda0 f i Config.obj
 0001:0001dda0       ?_Get_first@?$_Compressed_pair@V?$allocator@VConfigFile@@@std@@V?$_Vector_val@U?$_Simple_types@VConfigFile@@@std@@@2@$00@std@@QAEAAV?$allocator@VConfigFile@@@2@XZ 1001eda0 f i Config.obj
 0001:0001dda0       ??0?$allocator@UVertex_t@@@std@@QAE@XZ 1001eda0 f i Visuals.obj
 0001:0001dda0       ?native@path@filesystem@std@@QBEABV?$basic_string@_WU?$char_traits@_W@std@@V?$allocator@_W@2@@3@XZ 1001eda0 f i Config.obj
 0001:0001dda0       ??0?$Singleton@Vc_visuals@@@@IAE@XZ 1001eda0 f i Hooks.obj
 0001:0001dda0       ?_Get_first@?$_Compressed_pair@V?$allocator@UConfig_t@@@std@@V?$_Vector_val@U?$_Simple_types@UConfig_t@@@std@@@2@$00@std@@QAEAAV?$allocator@UConfig_t@@@2@XZ 1001eda0 f i newMenu.obj
 0001:0001dda0       ?_Get_first@?$_Compressed_pair@V<lambda_1>@?1???$create@V?$map@V?$basic_string@DU?$char_traits@D@std@@V?$allocator@D@2@@std@@V?$basic_json@Vmap@std@@Vvector@2@V?$basic_string@DU?$char_traits@D@std@@V?$allocator@D@2@@2@_N_J_KNVallocator@2@Uadl_serializer@nlohmann@@@nlohmann@@U?$less@X@2@V?$allocator@U?$pair@$$CBV?$basic_string@DU?$char_traits@D@std@@V?$allocator@D@2@@std@@V?$basic_json@Vmap@std@@Vvector@2@V?$basic_string@DU?$char_traits@D@std@@V?$allocator@D@2@@2@_N_J_KNVallocator@2@Uadl_serializer@nlohmann@@@nlohmann@@@std@@@2@@std@@$$V@?$basic_json@Vmap@std@@Vvector@2@V?$basic_string@DU?$char_traits@D@std@@V?$allocator@D@2@@2@_N_J_KNVallocator@2@Uadl_serializer@nlohmann@@@nlohmann@@CAPAV?$map@V?$basic_string@DU?$char_traits@D@std@@V?$allocator@D@2@@std@@V?$basic_json@Vmap@std@@Vvector@2@V?$basic_string@DU?$char_traits@D@std@@V?$allocator@D@2@@2@_N_J_KNVallocator@2@Uadl_serializer@nlohmann@@@nlohmann@@U?$less@X@2@V?$allocator@U?$pair@$$CBV?$basic_string@DU?$char_traits@D@std@@V?$allocator@D@2@@std@@V?$basic_json@Vmap@std@@Vvector@2@V?$basic_string@DU?$char_traits@D@std@@V?$allocator@D@2@@2@_N_J_KNVallocator@2@Uadl_serializer@nlohmann@@@nlohmann@@@std@@@2@@std@@XZ@PAV45@$0A@@std@@QAEAAV<lambda_1>@?1???$create@V?$map@V?$basic_string@DU?$char_traits@D@std@@V?$allocator@D@2@@std@@V?$basic_json@Vmap@std@@Vvector@2@V?$basic_string@DU?$char_traits@D@std@@V?$allocator@D@2@@2@_N_J_KNVallocator@2@Uadl_serializer@nlohmann@@@nlohmann@@U?$less@X@2@V?$allocator@U?$pair@$$CBV?$basic_string@DU?$char_traits@D@std@@V?$allocator@D@2@@std@@V?$basic_json@Vmap@std@@Vvector@2@V?$basic_string@DU?$char_traits@D@std@@V?$allocator@D@2@@2@_N_J_KNVallocator@2@Uadl_serializer@nlohmann@@@nlohmann@@@std@@@2@@std@@$$V@?$basic_json@Vmap@std@@Vvector@2@V?$basic_string@DU?$char_traits@D@std@@V?$allocator@D@2@@2@_N_J_KNVallocator@2@Uadl_serializer@nlohmann@@@nlohmann@@CAPAV?$map@V?$basic_string@DU?$char_traits@D@std@@V?$allocator@D@2@@std@@V?$basic_json@Vmap@std@@Vvector@2@V?$basic_string@DU?$char_traits@D@std@@V?$allocator@D@2@@2@_N_J_KNVallocator@2@Uadl_serializer@nlohmann@@@nlohmann@@U?$less@X@2@V?$allocator@U?$pair@$$CBV?$basic_string@DU?$char_traits@D@std@@V?$allocator@D@2@@std@@V?$basic_json@Vmap@std@@Vvector@2@V?$basic_string@DU?$char_traits@D@std@@V?$allocator@D@2@@2@_N_J_KNVallocator@2@Uadl_serializer@nlohmann@@@nlohmann@@@std@@@2@@2@XZ@XZ 1001eda0 f i Config.obj
 0001:0001dda0       ?_Get_first@?$_Compressed_pair@V?$allocator@Uhitmarker_info@@@std@@V?$_Vector_val@U?$_Simple_types@Uhitmarker_info@@@std@@@2@$00@std@@QBEABV?$allocator@Uhitmarker_info@@@2@XZ 1001eda0 f i otheresp.obj
 0001:0001dda0       ?_Get_first@?$_Compressed_pair@V?$allocator@Uwskin@@@std@@V?$_Vector_val@U?$_Simple_types@Uwskin@@@std@@@2@$00@std@@QAEAAV?$allocator@Uwskin@@@2@XZ 1001eda0 f i Protobuffs.obj
 0001:0001dda0       ?_Get_first@?$_Compressed_pair@V?$allocator@U?$_List_node@U?$pair@$$CBV?$basic_string@DU?$char_traits@D@std@@V?$allocator@D@2@@std@@V?$unique_ptr@UNetvarTable@@U?$default_delete@UNetvarTable@@@std@@@2@@std@@PAX@std@@@std@@V?$_List_val@U?$_List_simple_types@U?$pair@$$CBV?$basic_string@DU?$char_traits@D@std@@V?$allocator@D@2@@std@@V?$unique_ptr@UNetvarTable@@U?$default_delete@UNetvarTable@@@std@@@2@@std@@@std@@@2@$00@std@@QBEABV?$allocator@U?$_List_node@U?$pair@$$CBV?$basic_string@DU?$char_traits@D@std@@V?$allocator@D@2@@std@@V?$unique_ptr@UNetvarTable@@U?$default_delete@UNetvarTable@@@std@@@2@@std@@PAX@std@@@2@XZ 1001eda0 f i NetvarManager.obj
 0001:0001dda0       ?_Get_first@?$_Compressed_pair@U?$equal_to@V?$basic_string@DU?$char_traits@D@std@@V?$allocator@D@2@@std@@@std@@M$00@std@@QBEABU?$equal_to@V?$basic_string@DU?$char_traits@D@std@@V?$allocator@D@2@@std@@@2@XZ 1001eda0 f i NetvarManager.obj
 0001:0001dda0       ?_Get_first@?$_Compressed_pair@V?$allocator@V?$_List_unchecked_iterator@V?$_List_val@U?$_List_simple_types@U?$pair@QADPAD@std@@@std@@@std@@@std@@@std@@V?$_Vector_val@U?$_Simple_types@V?$_List_unchecked_iterator@V?$_List_val@U?$_List_simple_types@U?$pair@QADPAD@std@@@std@@@std@@@std@@@std@@@2@$00@std@@QBEABV?$allocator@V?$_List_unchecked_iterator@V?$_List_val@U?$_List_simple_types@U?$pair@QADPAD@std@@@std@@@std@@@std@@@2@XZ 1001eda0 f i skinchanger.obj
 0001:0001dda0       ??0?$allocator@Uhitmarker_info@@@std@@QAE@XZ 1001eda0 f i otheresp.obj
 0001:0001dda0       ??0?$allocator@U?$pair@$$CBV?$basic_string@DU?$char_traits@D@std@@V?$allocator@D@2@@std@@V?$unique_ptr@UNetvarTable@@U?$default_delete@UNetvarTable@@@std@@@2@@std@@@std@@QAE@XZ 1001eda0 f i NetvarManager.obj
 0001:0001dda0       ?_Get_first@?$_Compressed_pair@V?$allocator@U?$pair@VVector@@VQAngle@@@std@@@std@@V?$_Vector_val@U?$_Simple_types@U?$pair@VVector@@VQAngle@@@std@@@std@@@2@$00@std@@QAEAAV?$allocator@U?$pair@VVector@@VQAngle@@@std@@@2@XZ 1001eda0 f i grenadetracer.obj
 0001:0001dda0       ?_Get_first@?$_Compressed_pair@V?$allocator@V?$_List_unchecked_iterator@V?$_List_val@U?$_List_simple_types@U?$pair@QADPAD@std@@@std@@@std@@@std@@@std@@V?$_Vector_val@U?$_Simple_types@V?$_List_unchecked_iterator@V?$_List_val@U?$_List_simple_types@U?$pair@QADPAD@std@@@std@@@std@@@std@@@std@@@2@$00@std@@QAEAAV?$allocator@V?$_List_unchecked_iterator@V?$_List_val@U?$_List_simple_types@U?$pair@QADPAD@std@@@std@@@std@@@std@@@2@XZ 1001eda0 f i skinchanger.obj
 0001:0001dda0       ?_Get_first@?$_Compressed_pair@V?$allocator@PAVCWindow@@@std@@V?$_Vector_val@U?$_Simple_types@PAVCWindow@@@std@@@2@$00@std@@QAEAAV?$allocator@PAVCWindow@@@2@XZ 1001eda0 f i GUI.obj
 0001:0001dda0       ??0?$allocator@UField@@@std@@QAE@XZ 1001eda0 f i Protobuffs.obj
 0001:0001dda0       ?_Get_first@?$_Compressed_pair@V?$allocator@Unotify_data_t@@@std@@V?$_Vector_val@U?$_Simple_types@Unotify_data_t@@@std@@@2@$00@std@@QBEABV?$allocator@Unotify_data_t@@@2@XZ 1001eda0 f i notifies.obj
 0001:0001dda0       ??0Vector2D@@QAE@XZ        1001eda0 f i Controls.obj
 0001:0001dda0       ??0?$allocator@UKit_t@@@std@@QAE@XZ 1001eda0 f i kit_parser.obj
 0001:0001dda0       ?_Get_first@?$_Compressed_pair@V?$allocator@D@std@@V?$_Vector_val@U?$_Simple_types@D@std@@@2@$00@std@@QAEAAV?$allocator@D@2@XZ 1001eda0 f i Config.obj
 0001:0001dda0       ?_Get_first@?$_Compressed_pair@V?$allocator@U?$_List_node@U?$pair@QADPAD@std@@PAX@std@@@std@@V?$_List_val@U?$_List_simple_types@U?$pair@QADPAD@std@@@std@@@2@$00@std@@QAEAAV?$allocator@U?$_List_node@U?$pair@QADPAD@std@@PAX@std@@@2@XZ 1001eda0 f i skinchanger.obj
 0001:0001dda0       ?_Get_first@?$_Compressed_pair@V?$allocator@U?$pair@HPBD@std@@@std@@V?$_Vector_val@U?$_Simple_types@U?$pair@HPBD@std@@@std@@@2@$00@std@@QBEABV?$allocator@U?$pair@HPBD@std@@@2@XZ 1001eda0 f i Config.obj
 0001:0001dda0       ?_Get_first@?$_Compressed_pair@V?$allocator@V?$_List_unchecked_iterator@V?$_List_val@U?$_List_simple_types@U?$pair@$$CBV?$basic_string@DU?$char_traits@D@std@@V?$allocator@D@2@@std@@V?$unique_ptr@UNetvarTable@@U?$default_delete@UNetvarTable@@@std@@@2@@std@@@std@@@std@@@std@@@std@@V?$_Vector_val@U?$_Simple_types@V?$_List_unchecked_iterator@V?$_List_val@U?$_List_simple_types@U?$pair@$$CBV?$basic_string@DU?$char_traits@D@std@@V?$allocator@D@2@@std@@V?$unique_ptr@UNetvarTable@@U?$default_delete@UNetvarTable@@@std@@@2@@std@@@std@@@std@@@std@@@std@@@2@$00@std@@QBEABV?$allocator@V?$_List_unchecked_iterator@V?$_List_val@U?$_List_simple_types@U?$pair@$$CBV?$basic_string@DU?$char_traits@D@std@@V?$allocator@D@2@@std@@V?$unique_ptr@UNetvarTable@@U?$default_delete@UNetvarTable@@@std@@@2@@std@@@std@@@std@@@std@@@2@XZ 1001eda0 f i NetvarManager.obj
 0001:0001dda0       ??0?$Singleton@Vhttp_request@@@@IAE@XZ 1001eda0 f i DLLMain.obj
 0001:0001dda0       ??0Vector@@QAE@XZ          1001eda0 f i Aimbot.obj
 0001:0001dda0       ??0?$_Func_base@X$$V@std@@QAE@XZ 1001eda0 f i Hooks.obj
 0001:0001dda0       ?data@?$array@D$0CAA@@std@@QAEPADXZ 1001eda0 f i Config.obj
 0001:0001dda0       ??0?$tuple@$$V@std@@QAE@XZ 1001eda0 f i Config.obj
 0001:0001dda0       ??0?$allocator@V?$vector@UField@@V?$allocator@UField@@@std@@@std@@@std@@QAE@XZ 1001eda0 f i Protobuffs.obj
 0001:0001dda0       ?_Get_first@?$_Compressed_pair@V<lambda_1>@?1???$create@V?$basic_string@DU?$char_traits@D@std@@V?$allocator@D@2@@std@@AAY00$$CBD@?$basic_json@Vmap@std@@Vvector@2@V?$basic_string@DU?$char_traits@D@std@@V?$allocator@D@2@@2@_N_J_KNVallocator@2@Uadl_serializer@nlohmann@@@nlohmann@@CAPAV?$basic_string@DU?$char_traits@D@std@@V?$allocator@D@2@@std@@AAY00$$CBD@Z@PAV45@$0A@@std@@QAEAAV<lambda_1>@?1???$create@V?$basic_string@DU?$char_traits@D@std@@V?$allocator@D@2@@std@@AAY00$$CBD@?$basic_json@Vmap@std@@Vvector@2@V?$basic_string@DU?$char_traits@D@std@@V?$allocator@D@2@@2@_N_J_KNVallocator@2@Uadl_serializer@nlohmann@@@nlohmann@@CAPAV?$basic_string@DU?$char_traits@D@std@@V?$allocator@D@2@@2@AAY00$$CBD@Z@XZ 1001eda0 f i Config.obj
 0001:0001dda0       ??0?$allocator@U_event@@@std@@QAE@XZ 1001eda0 f i Visuals.obj
 0001:0001dda0       ?_Get_first@?$_Compressed_pair@U?$default_delete@$$BY0A@_W@std@@PA_W$00@std@@QAEAAU?$default_delete@$$BY0A@_W@2@XZ 1001eda0 f i grenadetracer.obj
 0001:0001dda0       ?_Get_first@?$_Compressed_pair@V?$allocator@Uimpact_info@@@std@@V?$_Vector_val@U?$_Simple_types@Uimpact_info@@@std@@@2@$00@std@@QAEAAV?$allocator@Uimpact_info@@@2@XZ 1001eda0 f i otheresp.obj
 0001:0001dda0       ?_Get_first@?$_Compressed_pair@V?$allocator@Uimpact_info@@@std@@V?$_Vector_val@U?$_Simple_types@Uimpact_info@@@std@@@2@$00@std@@QBEABV?$allocator@Uimpact_info@@@2@XZ 1001eda0 f i otheresp.obj
 0001:0001dda0       ?_Get_first@?$_Compressed_pair@V?$allocator@H@std@@V?$_Vector_val@U?$_Simple_types@H@std@@@2@$00@std@@QAEAAV?$allocator@H@2@XZ 1001eda0 f i Controls.obj
 0001:0001dda0       ?_Get_first@?$_Compressed_pair@V?$allocator@V?$basic_string@DU?$char_traits@D@std@@V?$allocator@D@2@@std@@@std@@V?$_Vector_val@U?$_Simple_types@V?$basic_string@DU?$char_traits@D@std@@V?$allocator@D@2@@std@@@std@@@2@$00@std@@QAEAAV?$allocator@V?$basic_string@DU?$char_traits@D@std@@V?$allocator@D@2@@std@@@2@XZ 1001eda0 f i Config.obj
 0001:0001dda0       ?_Get_first@?$_Compressed_pair@V?$allocator@UVertex_t@@@std@@V?$_Vector_val@U?$_Simple_types@UVertex_t@@@std@@@2@$00@std@@QAEAAV?$allocator@UVertex_t@@@2@XZ 1001eda0 f i Visuals.obj
 0001:0001dda0       ?_Get_first@?$_Compressed_pair@V?$allocator@UField@@@std@@V?$_Vector_val@U?$_Simple_types@UField@@@std@@@2@$00@std@@QBEABV?$allocator@UField@@@2@XZ 1001eda0 f i Protobuffs.obj
 0001:0001dda0       ??0cContext@@QAE@XZ        1001eda0 f i Hooks.obj
 0001:0001dda0       ??0?$allocator@U?$pair@$$CBV?$basic_string@DU?$char_traits@D@std@@V?$allocator@D@2@@std@@I@std@@@std@@QAE@XZ 1001eda0 f i NetvarManager.obj
 0001:0001dda0       ?_Get_max_bucket_size@?$_Uhash_compare@PADU?$hash@PAD@std@@U?$equal_to@PAD@2@@std@@QBEABMXZ 1001eda0 f i skinchanger.obj
 0001:0001dda0       ?_Get_first@?$_Compressed_pair@V<lambda_1>@?1???$create@V?$vector@V?$basic_json@Vmap@std@@Vvector@2@V?$basic_string@DU?$char_traits@D@std@@V?$allocator@D@2@@2@_N_J_KNVallocator@2@Uadl_serializer@nlohmann@@@nlohmann@@V?$allocator@V?$basic_json@Vmap@std@@Vvector@2@V?$basic_string@DU?$char_traits@D@std@@V?$allocator@D@2@@2@_N_J_KNVallocator@2@Uadl_serializer@nlohmann@@@nlohmann@@@std@@@std@@$$V@?$basic_json@Vmap@std@@Vvector@2@V?$basic_string@DU?$char_traits@D@std@@V?$allocator@D@2@@2@_N_J_KNVallocator@2@Uadl_serializer@nlohmann@@@nlohmann@@CAPAV?$vector@V?$basic_json@Vmap@std@@Vvector@2@V?$basic_string@DU?$char_traits@D@std@@V?$allocator@D@2@@2@_N_J_KNVallocator@2@Uadl_serializer@nlohmann@@@nlohmann@@V?$allocator@V?$basic_json@Vmap@std@@Vvector@2@V?$basic_string@DU?$char_traits@D@std@@V?$allocator@D@2@@2@_N_J_KNVallocator@2@Uadl_serializer@nlohmann@@@nlohmann@@@std@@@std@@XZ@PAV45@$0A@@std@@QAEAAV<lambda_1>@?1???$create@V?$vector@V?$basic_json@Vmap@std@@Vvector@2@V?$basic_string@DU?$char_traits@D@std@@V?$allocator@D@2@@2@_N_J_KNVallocator@2@Uadl_serializer@nlohmann@@@nlohmann@@V?$allocator@V?$basic_json@Vmap@std@@Vvector@2@V?$basic_string@DU?$char_traits@D@std@@V?$allocator@D@2@@2@_N_J_KNVallocator@2@Uadl_serializer@nlohmann@@@nlohmann@@@std@@@std@@$$V@?$basic_json@Vmap@std@@Vvector@2@V?$basic_string@DU?$char_traits@D@std@@V?$allocator@D@2@@2@_N_J_KNVallocator@2@Uadl_serializer@nlohmann@@@nlohmann@@CAPAV?$vector@V?$basic_json@Vmap@std@@Vvector@2@V?$basic_string@DU?$char_traits@D@std@@V?$allocator@D@2@@2@_N_J_KNVallocator@2@Uadl_serializer@nlohmann@@@nlohmann@@V?$allocator@V?$basic_json@Vmap@std@@Vvector@2@V?$basic_string@DU?$char_traits@D@std@@V?$allocator@D@2@@2@_N_J_KNVallocator@2@Uadl_serializer@nlohmann@@@nlohmann@@@std@@@2@XZ@XZ 1001eda0 f i Config.obj
 0001:0001dda0       ?_Get_first@?$_Compressed_pair@V?$allocator@V?$_List_unchecked_iterator@V?$_List_val@U?$_List_simple_types@U?$pair@$$CBV?$basic_string@DU?$char_traits@D@std@@V?$allocator@D@2@@std@@V?$unique_ptr@UNetvarTable@@U?$default_delete@UNetvarTable@@@std@@@2@@std@@@std@@@std@@@std@@@std@@V?$_Vector_val@U?$_Simple_types@V?$_List_unchecked_iterator@V?$_List_val@U?$_List_simple_types@U?$pair@$$CBV?$basic_string@DU?$char_traits@D@std@@V?$allocator@D@2@@std@@V?$unique_ptr@UNetvarTable@@U?$default_delete@UNetvarTable@@@std@@@2@@std@@@std@@@std@@@std@@@std@@@2@$00@std@@QAEAAV?$allocator@V?$_List_unchecked_iterator@V?$_List_val@U?$_List_simple_types@U?$pair@$$CBV?$basic_string@DU?$char_traits@D@std@@V?$allocator@D@2@@std@@V?$unique_ptr@UNetvarTable@@U?$default_delete@UNetvarTable@@@std@@@2@@std@@@std@@@std@@@std@@@2@XZ 1001eda0 f i NetvarManager.obj
 0001:0001dda0       ??0?$Singleton@VRender@@@@IAE@XZ 1001eda0 f i Hooks.obj
 0001:0001dda0       ??0?$Singleton@VVisuals@@@@IAE@XZ 1001eda0 f i OBS ESP.obj
 0001:0001dda0       ?_Get_first@?$_Compressed_pair@V?$allocator@U?$_Tree_node@U?$pair@$$CBV?$basic_string@DU?$char_traits@D@std@@V?$allocator@D@2@@std@@V?$basic_json@Vmap@std@@Vvector@2@V?$basic_string@DU?$char_traits@D@std@@V?$allocator@D@2@@2@_N_J_KNVallocator@2@Uadl_serializer@nlohmann@@@nlohmann@@@std@@PAX@std@@@std@@V?$_Tree_val@U?$_Tree_simple_types@U?$pair@$$CBV?$basic_string@DU?$char_traits@D@std@@V?$allocator@D@2@@std@@V?$basic_json@Vmap@std@@Vvector@2@V?$basic_string@DU?$char_traits@D@std@@V?$allocator@D@2@@2@_N_J_KNVallocator@2@Uadl_serializer@nlohmann@@@nlohmann@@@std@@@std@@@2@$00@std@@QBEABV?$allocator@U?$_Tree_node@U?$pair@$$CBV?$basic_string@DU?$char_traits@D@std@@V?$allocator@D@2@@std@@V?$basic_json@Vmap@std@@Vvector@2@V?$basic_string@DU?$char_traits@D@std@@V?$allocator@D@2@@2@_N_J_KNVallocator@2@Uadl_serializer@nlohmann@@@nlohmann@@@std@@PAX@std@@@2@XZ 1001eda0 f i Config.obj
 0001:0001dda0       ??0?$Singleton@VMenu@@@@IAE@XZ 1001eda0 f i Hooks.obj
 0001:0001dda0       ?_Get_first@?$_Compressed_pair@V?$allocator@U?$pair@V?$basic_string@DU?$char_traits@D@std@@V?$allocator@D@2@@std@@VColor@@@std@@@std@@V?$_Vector_val@U?$_Simple_types@U?$pair@V?$basic_string@DU?$char_traits@D@std@@V?$allocator@D@2@@std@@VColor@@@std@@@std@@@2@$00@std@@QBEABV?$allocator@U?$pair@V?$basic_string@DU?$char_traits@D@std@@V?$allocator@D@2@@std@@VColor@@@std@@@2@XZ 1001eda0 f i Visuals.obj
 0001:0001dda0       ??0QAngle@@QAE@XZ          1001eda0 f i grenadetracer.obj
 0001:0001dda0       ?_Get_first@?$_Compressed_pair@V?$allocator@U?$pair@HPBD@std@@@std@@V?$_Vector_val@U?$_Simple_types@U?$pair@HPBD@std@@@std@@@2@$00@std@@QAEAAV?$allocator@U?$pair@HPBD@std@@@2@XZ 1001eda0 f i Config.obj
 0001:0001dda0       ?_Get_first@?$_Compressed_pair@V?$allocator@PAVDot@@@std@@V?$_Vector_val@U?$_Simple_types@PAVDot@@@std@@@2@$00@std@@QAEAAV?$allocator@PAVDot@@@2@XZ 1001eda0 f i Drops+.obj
 0001:0001dda0       ?_Get_first@?$_Compressed_pair@U?$default_delete@UNetvarTable@@@std@@PAUNetvarTable@@$00@std@@QAEAAU?$default_delete@UNetvarTable@@@2@XZ 1001eda0 f i NetvarManager.obj
 0001:0001dda0       ?_Get_first@?$_Compressed_pair@U?$default_delete@VNetvarDatabase@@@std@@PAVNetvarDatabase@@$00@std@@QAEAAU?$default_delete@VNetvarDatabase@@@2@XZ 1001eda0 f i NetvarManager.obj
 0001:0001dda0       ?_Get_first@?$_Compressed_pair@V?$allocator@PBD@std@@V?$_Vector_val@U?$_Simple_types@PBD@std@@@2@$00@std@@QAEAAV?$allocator@PBD@2@XZ 1001eda0 f i Hooks.obj
 0001:0001dda0       ?_Get_first@?$_Compressed_pair@V?$allocator@Unotify_data_t@@@std@@V?$_Vector_val@U?$_Simple_types@Unotify_data_t@@@std@@@2@$00@std@@QAEAAV?$allocator@Unotify_data_t@@@2@XZ 1001eda0 f i notifies.obj
 0001:0001dda0       ??0?$allocator@I@std@@QAE@XZ 1001eda0 f i Config.obj
 0001:0001dda0       ?_Get_first@?$_Compressed_pair@V<lambda_1>@?1???$create@V?$basic_string@DU?$char_traits@D@std@@V?$allocator@D@2@@std@@AAY0PP@$$CBD@?$basic_json@Vmap@std@@Vvector@2@V?$basic_string@DU?$char_traits@D@std@@V?$allocator@D@2@@2@_N_J_KNVallocator@2@Uadl_serializer@nlohmann@@@nlohmann@@CAPAV?$basic_string@DU?$char_traits@D@std@@V?$allocator@D@2@@std@@AAY0PP@$$CBD@Z@PAV45@$0A@@std@@QAEAAV<lambda_1>@?1???$create@V?$basic_string@DU?$char_traits@D@std@@V?$allocator@D@2@@std@@AAY0PP@$$CBD@?$basic_json@Vmap@std@@Vvector@2@V?$basic_string@DU?$char_traits@D@std@@V?$allocator@D@2@@2@_N_J_KNVallocator@2@Uadl_serializer@nlohmann@@@nlohmann@@CAPAV?$basic_string@DU?$char_traits@D@std@@V?$allocator@D@2@@2@AAY0PP@$$CBD@Z@XZ 1001eda0 f i tab_Login.obj
 0001:0001dda0       ?data@?$array@D$0EA@@std@@QAEPADXZ 1001eda0 f i Config.obj
 0001:0001dda0       ?_Get_first@?$_Compressed_pair@V?$allocator@Uwskin@@@std@@V?$_Vector_val@U?$_Simple_types@Uwskin@@@std@@@2@$00@std@@QBEABV?$allocator@Uwskin@@@2@XZ 1001eda0 f i Protobuffs.obj
 0001:0001dda0       ?_Get_first@?$_Compressed_pair@V?$allocator@U_event@@@std@@V?$_Vector_val@U?$_Simple_types@U_event@@@std@@@2@$00@std@@QAEAAV?$allocator@U_event@@@2@XZ 1001eda0 f i Visuals.obj
 0001:0001dda0       ??0?$allocator@U?$_Tree_node@U?$pair@$$CBHPAVCWindow@@@std@@PAX@std@@@std@@QAE@XZ 1001eda0 f i GUI.obj
 0001:0001dda0       ?_Get_first@?$_Compressed_pair@V?$allocator@U?$pair@V?$basic_string@DU?$char_traits@D@std@@V?$allocator@D@2@@std@@VColor@@@std@@@std@@V?$_Vector_val@U?$_Simple_types@U?$pair@V?$basic_string@DU?$char_traits@D@std@@V?$allocator@D@2@@std@@VColor@@@std@@@std@@@2@$00@std@@QAEAAV?$allocator@U?$pair@V?$basic_string@DU?$char_traits@D@std@@V?$allocator@D@2@@std@@VColor@@@std@@@2@XZ 1001eda0 f i Visuals.obj
 0001:0001dda0       ?_Get_first@?$_Compressed_pair@V?$allocator@V?$basic_json@Vmap@std@@Vvector@2@V?$basic_string@DU?$char_traits@D@std@@V?$allocator@D@2@@2@_N_J_KNVallocator@2@Uadl_serializer@nlohmann@@@nlohmann@@@std@@V?$_Vector_val@U?$_Simple_types@V?$basic_json@Vmap@std@@Vvector@2@V?$basic_string@DU?$char_traits@D@std@@V?$allocator@D@2@@2@_N_J_KNVallocator@2@Uadl_serializer@nlohmann@@@nlohmann@@@std@@@2@$00@std@@QAEAAV?$allocator@V?$basic_json@Vmap@std@@Vvector@2@V?$basic_string@DU?$char_traits@D@std@@V?$allocator@D@2@@2@_N_J_KNVallocator@2@Uadl_serializer@nlohmann@@@nlohmann@@@2@XZ 1001eda0 f i Config.obj
 0001:0001dda0       ??0?$allocator@Vtrace_info@bullettracers@@@std@@QAE@XZ 1001eda0 f i Hooks.obj
 0001:0001dda0       ?_Get_first@?$_Compressed_pair@V<lambda_1>@?1???$create@V?$basic_string@DU?$char_traits@D@std@@V?$allocator@D@2@@std@@ABV12@@?$basic_json@Vmap@std@@Vvector@2@V?$basic_string@DU?$char_traits@D@std@@V?$allocator@D@2@@2@_N_J_KNVallocator@2@Uadl_serializer@nlohmann@@@nlohmann@@CAPAV?$basic_string@DU?$char_traits@D@std@@V?$allocator@D@2@@std@@ABV45@@Z@PAV45@$0A@@std@@QAEAAV<lambda_1>@?1???$create@V?$basic_string@DU?$char_traits@D@std@@V?$allocator@D@2@@std@@ABV12@@?$basic_json@Vmap@std@@Vvector@2@V?$basic_string@DU?$char_traits@D@std@@V?$allocator@D@2@@2@_N_J_KNVallocator@2@Uadl_serializer@nlohmann@@@nlohmann@@CAPAV?$basic_string@DU?$char_traits@D@std@@V?$allocator@D@2@@2@ABV62@@Z@XZ 1001eda0 f i Config.obj
 0001:0001dda0       ??0?$allocator@VVector@@@std@@QAE@XZ 1001eda0 f i Hooks.obj
 0001:0001dda0       ?_Mymtx@_Mutex_base@std@@AAEPAU_Mtx_internal_imp_t@@XZ 1001eda0 f i Render.obj
 0001:0001dda0       ?_Get_first@?$_Compressed_pair@V?$allocator@_W@std@@V?$_String_val@U?$_Simple_types@_W@std@@@2@$00@std@@QBEABV?$allocator@_W@2@XZ 1001eda0 f i Config.obj
 0001:0001dda0       ??0?$allocator@H@std@@QAE@XZ 1001eda0 f i Controls.obj
 0001:0001dda0       ?_Get_first@?$_Compressed_pair@V?$allocator@U?$_Tree_node@U?$pair@QAXU?$pair@V?$basic_string@DU?$char_traits@D@std@@V?$allocator@D@2@@std@@V?$vector@V?$basic_string@DU?$char_traits@D@std@@V?$allocator@D@2@@std@@V?$allocator@V?$basic_string@DU?$char_traits@D@std@@V?$allocator@D@2@@std@@@2@@2@@std@@@std@@PAX@std@@@std@@V?$_Tree_val@U?$_Tree_simple_types@U?$pair@QAXU?$pair@V?$basic_string@DU?$char_traits@D@std@@V?$allocator@D@2@@std@@V?$vector@V?$basic_string@DU?$char_traits@D@std@@V?$allocator@D@2@@std@@V?$allocator@V?$basic_string@DU?$char_traits@D@std@@V?$allocator@D@2@@std@@@2@@2@@std@@@std@@@std@@@2@$00@std@@QAEAAV?$allocator@U?$_Tree_node@U?$pair@QAXU?$pair@V?$basic_string@DU?$char_traits@D@std@@V?$allocator@D@2@@std@@V?$vector@V?$basic_string@DU?$char_traits@D@std@@V?$allocator@D@2@@std@@V?$allocator@V?$basic_string@DU?$char_traits@D@std@@V?$allocator@D@2@@std@@@2@@2@@std@@@std@@PAX@std@@@2@XZ 1001eda0 f i NetvarManager.obj
 0001:0001dda0       ?_Get_first@?$_Compressed_pair@V?$allocator@UGrenadeInfo_t@@@std@@V?$_Vector_val@U?$_Simple_types@UGrenadeInfo_t@@@std@@@2@$00@std@@QAEAAV?$allocator@UGrenadeInfo_t@@@2@XZ 1001eda0 f i GrenadeHelperAPI.obj
 0001:0001dda0       ?_Get_first@?$_Compressed_pair@U?$default_delete@V_Facet_base@std@@@std@@PAV_Facet_base@2@$00@std@@QAEAAU?$default_delete@V_Facet_base@std@@@2@XZ 1001eda0 f i Config.obj
 0001:0001dda0       ??0?$allocator@D@std@@QAE@XZ 1001eda0 f i CFixMove.obj
 0001:0001dda0       ??0?$singletonanother@Votheresp@@@@IAE@XZ 1001eda0 f i Hooks.obj
 0001:0001dda0       ?_Get_first@?$_Compressed_pair@U?$less@X@std@@V?$_Compressed_pair@V?$allocator@U?$_Tree_node@U?$pair@$$CBV?$basic_string@DU?$char_traits@D@std@@V?$allocator@D@2@@std@@V?$basic_json@Vmap@std@@Vvector@2@V?$basic_string@DU?$char_traits@D@std@@V?$allocator@D@2@@2@_N_J_KNVallocator@2@Uadl_serializer@nlohmann@@@nlohmann@@@std@@PAX@std@@@std@@V?$_Tree_val@U?$_Tree_simple_types@U?$pair@$$CBV?$basic_string@DU?$char_traits@D@std@@V?$allocator@D@2@@std@@V?$basic_json@Vmap@std@@Vvector@2@V?$basic_string@DU?$char_traits@D@std@@V?$allocator@D@2@@2@_N_J_KNVallocator@2@Uadl_serializer@nlohmann@@@nlohmann@@@std@@@std@@@2@$00@2@$00@std@@QBEABU?$less@X@2@XZ 1001eda0 f i Config.obj
 0001:0001dda0       ??0?$allocator@Vsound_info@@@std@@QAE@XZ 1001eda0 f i Hooks.obj
 0001:0001dda0       ?_Get_first@?$_Compressed_pair@V<lambda_1>@?1???$create@V?$basic_string@DU?$char_traits@D@std@@V?$allocator@D@2@@std@@AAY04$$CBD@?$basic_json@Vmap@std@@Vvector@2@V?$basic_string@DU?$char_traits@D@std@@V?$allocator@D@2@@2@_N_J_KNVallocator@2@Uadl_serializer@nlohmann@@@nlohmann@@CAPAV?$basic_string@DU?$char_traits@D@std@@V?$allocator@D@2@@std@@AAY04$$CBD@Z@PAV45@$0A@@std@@QAEAAV<lambda_1>@?1???$create@V?$basic_string@DU?$char_traits@D@std@@V?$allocator@D@2@@std@@AAY04$$CBD@?$basic_json@Vmap@std@@Vvector@2@V?$basic_string@DU?$char_traits@D@std@@V?$allocator@D@2@@2@_N_J_KNVallocator@2@Uadl_serializer@nlohmann@@@nlohmann@@CAPAV?$basic_string@DU?$char_traits@D@std@@V?$allocator@D@2@@2@AAY04$$CBD@Z@XZ 1001eda0 f i tab_Login.obj
 0001:0001dda0       ?_Get_max_bucket_size@?$_Uhash_compare@V?$basic_string@DU?$char_traits@D@std@@V?$allocator@D@2@@std@@U?$hash@V?$basic_string@DU?$char_traits@D@std@@V?$allocator@D@2@@std@@@2@U?$equal_to@V?$basic_string@DU?$char_traits@D@std@@V?$allocator@D@2@@std@@@2@@std@@QBEABMXZ 1001eda0 f i NetvarManager.obj
 0001:0001dda0       ?_Get_first@?$_Compressed_pair@V<lambda_1>@?1???$create@V?$basic_string@DU?$char_traits@D@std@@V?$allocator@D@2@@std@@V12@@?$basic_json@Vmap@std@@Vvector@2@V?$basic_string@DU?$char_traits@D@std@@V?$allocator@D@2@@2@_N_J_KNVallocator@2@Uadl_serializer@nlohmann@@@nlohmann@@CAPAV?$basic_string@DU?$char_traits@D@std@@V?$allocator@D@2@@std@@$$QAV45@@Z@PAV45@$0A@@std@@QAEAAV<lambda_1>@?1???$create@V?$basic_string@DU?$char_traits@D@std@@V?$allocator@D@2@@std@@V12@@?$basic_json@Vmap@std@@Vvector@2@V?$basic_string@DU?$char_traits@D@std@@V?$allocator@D@2@@2@_N_J_KNVallocator@2@Uadl_serializer@nlohmann@@@nlohmann@@CAPAV?$basic_string@DU?$char_traits@D@std@@V?$allocator@D@2@@2@$$QAV62@@Z@XZ 1001eda0 f i Config.obj
 0001:0001dda0       ??0?$allocator@PAVDot@@@std@@QAE@XZ 1001eda0 f i Drops+.obj
 0001:0001dda0       ??0?$allocator@UGrenadeInfo_t@@@std@@QAE@XZ 1001eda0 f i GrenadeHelperAPI.obj
 0001:0001dda0       ??0?$Singleton@VConfigSys@@@@IAE@XZ 1001eda0 f i DLLMain.obj
 0001:0001dda0       ??0?$allocator@V?$vector@V?$basic_json@Vmap@std@@Vvector@2@V?$basic_string@DU?$char_traits@D@std@@V?$allocator@D@2@@2@_N_J_KNVallocator@2@Uadl_serializer@nlohmann@@@nlohmann@@V?$allocator@V?$basic_json@Vmap@std@@Vvector@2@V?$basic_string@DU?$char_traits@D@std@@V?$allocator@D@2@@2@_N_J_KNVallocator@2@Uadl_serializer@nlohmann@@@nlohmann@@@std@@@std@@@std@@QAE@XZ 1001eda0 f i Config.obj
 0001:0001dda0       ?_Get_first@?$_Compressed_pair@V?$allocator@D@std@@V?$_String_val@U?$_Simple_types@D@std@@@2@$00@std@@QAEAAV?$allocator@D@2@XZ 1001eda0 f i CFixMove.obj
 0001:0001dda0       ?_Get_first@?$_Compressed_pair@V?$allocator@D@std@@V?$_Vector_val@U?$_Simple_types@D@std@@@2@$00@std@@QBEABV?$allocator@D@2@XZ 1001eda0 f i Config.obj
 0001:0001dda0       ?_Get_first@?$_Compressed_pair@V?$allocator@U?$_List_node@U?$pair@$$CBV?$basic_string@DU?$char_traits@D@std@@V?$allocator@D@2@@std@@I@std@@PAX@std@@@std@@V?$_List_val@U?$_List_simple_types@U?$pair@$$CBV?$basic_string@DU?$char_traits@D@std@@V?$allocator@D@2@@std@@I@std@@@std@@@2@$00@std@@QBEABV?$allocator@U?$_List_node@U?$pair@$$CBV?$basic_string@DU?$char_traits@D@std@@V?$allocator@D@2@@std@@I@std@@PAX@std@@@2@XZ 1001eda0 f i NetvarManager.obj
 0001:0001dda0       ??0?$allocator@_W@std@@QAE@XZ 1001eda0 f i Config.obj
 0001:0001dda0       ?_Get_first@?$_Compressed_pair@V?$allocator@VVector@@@std@@V?$_Vector_val@U?$_Simple_types@VVector@@@std@@@2@$00@std@@QAEAAV?$allocator@VVector@@@2@XZ 1001eda0 f i grenadetracer.obj
 0001:0001dda0       ?_Get_first@?$_Compressed_pair@V?$allocator@U_Find_file_handle@filesystem@std@@@std@@V?$_Vector_val@U?$_Simple_types@U_Find_file_handle@filesystem@std@@@std@@@2@$00@std@@QBEABV?$allocator@U_Find_file_handle@filesystem@std@@@2@XZ 1001eda0 f i Config.obj
 0001:0001dda0       ?_Get_first@?$_Compressed_pair@V?$allocator@U?$pair@VVector@@VQAngle@@@std@@@std@@V?$_Vector_val@U?$_Simple_types@U?$pair@VVector@@VQAngle@@@std@@@std@@@2@$00@std@@QBEABV?$allocator@U?$pair@VVector@@VQAngle@@@std@@@2@XZ 1001eda0 f i grenadetracer.obj
 0001:0001dda0       ?_Get_first@?$_Compressed_pair@V?$allocator@VVector@@@std@@V?$_Vector_val@U?$_Simple_types@VVector@@@std@@@2@$00@std@@QBEABV?$allocator@VVector@@@2@XZ 1001eda0 f i grenadetracer.obj
 0001:0001dda0       ??0?$allocator@U?$pair@QADPAD@std@@@std@@QAE@XZ 1001eda0 f i skinchanger.obj
 0001:0001dda0       ??0_Bxty@?$_String_val@U?$_Simple_types@_W@std@@@std@@QAE@XZ 1001eda0 f i Config.obj
 0001:0001dda0       ??0?$allocator@U?$_Tree_node@U?$pair@QAXU?$pair@V?$basic_string@DU?$char_traits@D@std@@V?$allocator@D@2@@std@@V?$vector@V?$basic_string@DU?$char_traits@D@std@@V?$allocator@D@2@@std@@V?$allocator@V?$basic_string@DU?$char_traits@D@std@@V?$allocator@D@2@@std@@@2@@2@@std@@@std@@PAX@std@@@std@@QAE@XZ 1001eda0 f i NetvarManager.obj
 0001:0001dda0       ?data@?$array@D$09@std@@QAEPADXZ 1001eda0 f i NetvarManager.obj
 0001:0001dda0       ?_Get_first@?$_Compressed_pair@V?$allocator@UKit_t@@@std@@V?$_Vector_val@U?$_Simple_types@UKit_t@@@std@@@2@$00@std@@QAEAAV?$allocator@UKit_t@@@2@XZ 1001eda0 f i kit_parser.obj
 0001:0001dda0       ?_Get_first@?$_Compressed_pair@V?$allocator@PAVCTab@@@std@@V?$_Vector_val@U?$_Simple_types@PAVCTab@@@std@@@2@$00@std@@QAEAAV?$allocator@PAVCTab@@@2@XZ 1001eda0 f i GUI.obj
 0001:0001dda0       ??0?$allocator@U?$pair@VVector@@VQAngle@@@std@@@std@@QAE@XZ 1001eda0 f i Hooks.obj
 0001:0001dda0       ?_Get_first@?$_Compressed_pair@V?$allocator@V?$basic_json@Vmap@std@@Vvector@2@V?$basic_string@DU?$char_traits@D@std@@V?$allocator@D@2@@2@_N_J_KNVallocator@2@Uadl_serializer@nlohmann@@@nlohmann@@@std@@V?$_Vector_val@U?$_Simple_types@V?$basic_json@Vmap@std@@Vvector@2@V?$basic_string@DU?$char_traits@D@std@@V?$allocator@D@2@@2@_N_J_KNVallocator@2@Uadl_serializer@nlohmann@@@nlohmann@@@std@@@2@$00@std@@QBEABV?$allocator@V?$basic_json@Vmap@std@@Vvector@2@V?$basic_string@DU?$char_traits@D@std@@V?$allocator@D@2@@2@_N_J_KNVallocator@2@Uadl_serializer@nlohmann@@@nlohmann@@@2@XZ 1001eda0 f i Config.obj
 0001:0001dda0       ?_Get_first@?$_Compressed_pair@V?$allocator@UField@@@std@@V?$_Vector_val@U?$_Simple_types@UField@@@std@@@2@$00@std@@QAEAAV?$allocator@UField@@@2@XZ 1001eda0 f i Protobuffs.obj
 0001:0001dda0       ??0?$allocator@PBD@std@@QAE@XZ 1001eda0 f i Hooks.obj
 0001:0001dda0       ?_Get_first@?$_Compressed_pair@V?$allocator@Uhitmarker_info@@@std@@V?$_Vector_val@U?$_Simple_types@Uhitmarker_info@@@std@@@2@$00@std@@QAEAAV?$allocator@Uhitmarker_info@@@2@XZ 1001eda0 f i otheresp.obj
 0001:0001dda0       ?_Get_max_bucket_size@?$_Uhash_compare@PADU?$hash@PAD@std@@U?$equal_to@PAD@2@@std@@QAEAAMXZ 1001eda0 f i skinchanger.obj
 0001:0001dda0       ??0?$allocator@VConfigFile@@@std@@QAE@XZ 1001eda0 f i Config.obj
 0001:0001ddb0       ??0?$basic_string@DU?$char_traits@D@std@@V?$allocator@D@2@@std@@QAE@QBD@Z 1001edb0 f i CFixMove.obj
 0001:0001de40       ??0?$basic_string@DU?$char_traits@D@std@@V?$allocator@D@2@@std@@QAE@XZ 1001ee40 f i CFixMove.obj
 0001:0001deb0       ??0ImVec2@@QAE@MM@Z        1001eeb0 f i Hooks.obj
 0001:0001deb0       ??0Vector2D@@QAE@MM@Z      1001eeb0 f i CFixMove.obj
 0001:0001dee0       ??0_Fake_proxy_ptr_impl@std@@QAE@ABU_Fake_allocator@1@ABU_Container_base0@1@@Z 1001eee0 f i CFixMove.obj
 0001:0001def0       ??0bad_alloc@std@@AAE@QBD@Z 1001eef0 f i CFixMove.obj
 0001:0001df20       ??0bad_alloc@std@@QAE@ABV01@@Z 1001ef20 f i CFixMove.obj
 0001:0001df50       ??0bad_array_new_length@std@@QAE@ABV01@@Z 1001ef50 f i CFixMove.obj
 0001:0001df80       ??0bad_array_new_length@std@@QAE@XZ 1001ef80 f i CFixMove.obj
 0001:0001dfb0       ??0exception@std@@QAE@ABV01@@Z 1001efb0 f i CFixMove.obj
 0001:0001dff0       ??0exception@std@@QAE@QBDH@Z 1001eff0 f i CFixMove.obj
 0001:0001e020       ??1?$_Compressed_pair@V?$allocator@_W@std@@V?$_String_val@U?$_Simple_types@_W@std@@@2@$00@std@@QAE@XZ 1001f020 f i Config.obj
 0001:0001e020       ??1?$_Compressed_pair@V?$allocator@D@std@@V?$_String_val@U?$_Simple_types@D@std@@@2@$00@std@@QAE@XZ 1001f020 f i CFixMove.obj
 0001:0001e020       ??1?$_Deque_iterator@V?$_Deque_val@U?$_Deque_simple_types@UPlayerRecords@@@std@@@std@@@std@@QAE@XZ 1001f020 f i Aimbot.obj
 0001:0001e040       ??1otheresp@@QAE@XZ        1001f040 f i Hooks.obj
 0001:0001e040       ??1_System_error_category@std@@UAE@XZ 1001f040 f i Config.obj
 0001:0001e040       ??1ConfigSys@@QAE@XZ       1001f040 f i DLLMain.obj
 0001:0001e040       ??1?$_Deque_const_iterator@V?$_Deque_val@U?$_Deque_simple_types@UPlayerRecords@@@std@@@std@@@std@@QAE@XZ 1001f040 f i Aimbot.obj
 0001:0001e040       ??1c_visuals@@QAE@XZ       1001f040 f i Hooks.obj
 0001:0001e040       ??1?$_String_val@U?$_Simple_types@_W@std@@@std@@QAE@XZ 1001f040 f i Config.obj
 0001:0001e040       ??1?$_String_val@U?$_Simple_types@D@std@@@std@@QAE@XZ 1001f040 f i CFixMove.obj
 0001:0001e040       ??1_Generic_error_category@std@@UAE@XZ 1001f040 f i Config.obj
 0001:0001e040       ??1?$output_stream_adapter@D@detail@nlohmann@@UAE@XZ 1001f040 f i Config.obj
 0001:0001e040       ??1chams123@@QAE@XZ        1001f040 f i Hooks.obj
 0001:0001e040       ??1http_request@@QAE@XZ    1001f040 f i DLLMain.obj
 0001:0001e040       ?_Orphan_all@?$basic_string@_WU?$char_traits@_W@std@@V?$allocator@_W@2@@std@@QAEXXZ 1001f040 f i Config.obj
 0001:0001e060       ??1?$basic_string@DU?$char_traits@D@std@@V?$allocator@D@2@@std@@QAE@XZ 1001f060 f i CFixMove.obj
 0001:0001e080       ?_Release@_Fake_proxy_ptr_impl@std@@QAEXXZ 1001f080 f i CFixMove.obj
 0001:0001e080       ?assert_invariant@?$basic_json@Vmap@std@@Vvector@2@V?$basic_string@DU?$char_traits@D@std@@V?$allocator@D@2@@2@_N_J_KNVallocator@2@Uadl_serializer@nlohmann@@@nlohmann@@ABEXXZ 1001f080 f i Config.obj
 0001:0001e080       ??1?$Singleton@Vc_visuals@@@@IAE@XZ 1001f080 f i Hooks.obj
 0001:0001e080       ??1?$Singleton@VInputSys@@@@IAE@XZ 1001f080 f i Input.obj
 0001:0001e080       ?_Orphan_non_end@?$_List_val@U?$_List_simple_types@U?$pair@$$CBV?$basic_string@DU?$char_traits@D@std@@V?$allocator@D@2@@std@@V?$unique_ptr@UNetvarTable@@U?$default_delete@UNetvarTable@@@std@@@2@@std@@@std@@@std@@QAEXXZ 1001f080 f i NetvarManager.obj
 0001:0001e080       ?remose_flash@Misc@@QAEXXZ 1001f080 f i Hooks.obj
 0001:0001e080       ??1?$NumberStream@U?$GenericStringStream@U?$UTF8@D@rapidjson@@@rapidjson@@$0A@$0A@@?$GenericReader@U?$UTF8@D@rapidjson@@U12@VCrtAllocator@2@@rapidjson@@QAE@XZ 1001f080 f i http.obj
 0001:0001e080       ??1?$Singleton@VMenu@@@@IAE@XZ 1001f080 f i Hooks.obj
 0001:0001e080       ??1cContext@@QAE@XZ        1001f080 f i Hooks.obj
 0001:0001e080       ??1_Bxty@?$_String_val@U?$_Simple_types@D@std@@@std@@QAE@XZ 1001f080 f i CFixMove.obj
 0001:0001e080       ??1?$output_adapter_protocol@D@detail@nlohmann@@UAE@XZ 1001f080 f i Config.obj
 0001:0001e080       ?_Orphan_all@_Container_base12@std@@QAEXXZ 1001f080 f i LagComp.obj
 0001:0001e080       ??1?$singletonanother@Votheresp@@@@IAE@XZ 1001f080 f i Hooks.obj
 0001:0001e080       ??1?$singletonxd1@VGrenadePrediction@@@@IAE@XZ 1001f080 f i Hooks.obj
 0001:0001e080       ??1?$Singleton@VVisuals@@@@IAE@XZ 1001f080 f i OBS ESP.obj
 0001:0001e080       ?watermark@CVisuals@@QAEXXZ 1001f080 f i ESP.obj
 0001:0001e080       ?_Orphan_non_end@?$_List_val@U?$_List_simple_types@U?$pair@QADPAD@std@@@std@@@std@@QAEXXZ 1001f080 f i skinchanger.obj
 0001:0001e080       ?_Orphan_all@_Container_base0@std@@QAEXXZ 1001f080 f i CFixMove.obj
 0001:0001e080       ??1?$Singleton@Vhttp_request@@@@IAE@XZ 1001f080 f i DLLMain.obj
 0001:0001e080       ??1_Ref_count_base@std@@UAE@XZ 1001f080 f i Config.obj
 0001:0001e080       ??1?$Singleton@VConfigSys@@@@IAE@XZ 1001f080 f i DLLMain.obj
 0001:0001e080       ?_Orphan_non_end@?$_List_val@U?$_List_simple_types@U?$pair@$$CBV?$basic_string@DU?$char_traits@D@std@@V?$allocator@D@2@@std@@I@std@@@std@@@std@@QAEXXZ 1001f080 f i NetvarManager.obj
 0001:0001e080       ??1error_category@std@@UAE@XZ 1001f080 f i Config.obj
 0001:0001e080       ??1_Bxty@?$_String_val@U?$_Simple_types@_W@std@@@std@@QAE@XZ 1001f080 f i Config.obj
 0001:0001e080       ??1input_adapter_protocol@detail@nlohmann@@UAE@XZ 1001f080 f i Config.obj
 0001:0001e080       ??1?$singleton@Vbullettracers@@@@IAE@XZ 1001f080 f i Hooks.obj
 0001:0001e080       ??1?$Singleton@VRender@@@@IAE@XZ 1001f080 f i Hooks.obj
 0001:0001e080       ??1?$Singleton@Vchams123@@@@IAE@XZ 1001f080 f i Hooks.obj
 0001:0001e080       ??1_Iterator_base12@std@@QAE@XZ 1001f080 f i Aimbot.obj
 0001:0001e090       ??1runtime_error@std@@UAE@XZ 1001f090 f i Config.obj
 0001:0001e090       ??1bad_cast@std@@UAE@XZ    1001f090 f i Config.obj
 0001:0001e090       ??1bad_alloc@std@@UAE@XZ   1001f090 f i CFixMove.obj
 0001:0001e0b0       ??1_System_error@std@@UAE@XZ 1001f0b0 f i Config.obj
 0001:0001e0b0       ??1bad_array_new_length@std@@UAE@XZ 1001f0b0 f i CFixMove.obj
 0001:0001e0d0       ??1exception@std@@UAE@XZ   1001f0d0 f i CFixMove.obj
 0001:0001e100       ??2@YAPAXIPAX@Z            1001f100 f i CFixMove.obj
 0001:0001e110       ??4Vector@@QAEAAV0@ABV0@@Z 1001f110 f i CFixMove.obj
 0001:0001e150       ??R<lambda_1>@?1??assign@?$basic_string@DU?$char_traits@D@std@@V?$allocator@D@2@@std@@QAEAAV23@QBDI@Z@QBEXQADI0@Z 1001f150 f i CFixMove.obj
 0001:0001e190       ??_Ebad_cast@std@@UAEPAXI@Z 1001f190 f i Config.obj
 0001:0001e190       ??_Gruntime_error@std@@UAEPAXI@Z 1001f190 f i Config.obj
 0001:0001e190       ??_Gbad_alloc@std@@UAEPAXI@Z 1001f190 f i CFixMove.obj
 0001:0001e190       ??_Gbad_cast@std@@UAEPAXI@Z 1001f190 f i Config.obj
 0001:0001e190       ??_Eruntime_error@std@@UAEPAXI@Z 1001f190 f i Config.obj
 0001:0001e190       ??_Ebad_alloc@std@@UAEPAXI@Z 1001f190 f i CFixMove.obj
 0001:0001e1c0       ??_Ebad_array_new_length@std@@UAEPAXI@Z 1001f1c0 f i CFixMove.obj
 0001:0001e1c0       ??_Gbad_array_new_length@std@@UAEPAXI@Z 1001f1c0 f i CFixMove.obj
 0001:0001e1f0       ??_Gexception@std@@UAEPAXI@Z 1001f1f0 f i CFixMove.obj
 0001:0001e1f0       ??_Eexception@std@@UAEPAXI@Z 1001f1f0 f i CFixMove.obj
 0001:0001e220       ??_H@YGXPAXIIP6EPAX0@Z@Z   1001f220 f i CFixMove.obj
 0001:0001e260       ?_Adjust_manually_vector_aligned@std@@YAXAAPAXAAI@Z 1001f260 f i CFixMove.obj
 0001:0001e2d0       ?_Verify_offset@?$_Vector_const_iterator@V?$_Vector_val@U?$_Simple_types@Vsound_info@@@std@@@std@@@std@@QBEXH@Z 1001f2d0 f i Hooks.obj
 0001:0001e2d0       ?_Orphan_ptr@?$_Tree_val@U?$_Tree_simple_types@U?$pair@$$CBV?$basic_string@DU?$char_traits@D@std@@V?$allocator@D@2@@std@@V?$basic_json@Vmap@std@@Vvector@2@V?$basic_string@DU?$char_traits@D@std@@V?$allocator@D@2@@2@_N_J_KNVallocator@2@Uadl_serializer@nlohmann@@@nlohmann@@@std@@@std@@@std@@QAEXQAU?$_Tree_node@U?$pair@$$CBV?$basic_string@DU?$char_traits@D@std@@V?$allocator@D@2@@std@@V?$basic_json@Vmap@std@@Vvector@2@V?$basic_string@DU?$char_traits@D@std@@V?$allocator@D@2@@2@_N_J_KNVallocator@2@Uadl_serializer@nlohmann@@@nlohmann@@@std@@PAX@2@@Z 1001f2d0 f i tab_Login.obj
 0001:0001e2d0       ?_Compat@?$_Vector_const_iterator@V?$_Vector_val@U?$_Simple_types@H@std@@@std@@@std@@QBEXABV12@@Z 1001f2d0 f i Aimbot.obj
 0001:0001e2d0       ?RenderHitboxPoints@c_visuals@@QAEXPAVC_BaseEntity@@@Z 1001f2d0 f i Visuals.obj
 0001:0001e2d0       ?_Verify_offset@?$_Vector_const_iterator@V?$_Vector_val@U?$_Simple_types@Uimpact_info@@@std@@@std@@@std@@QBEXH@Z 1001f2d0 f i otheresp.obj
 0001:0001e2d0       ?_Verify_offset@?$_Vector_const_iterator@V?$_Vector_val@U?$_Simple_types@V?$basic_json@Vmap@std@@Vvector@2@V?$basic_string@DU?$char_traits@D@std@@V?$allocator@D@2@@2@_N_J_KNVallocator@2@Uadl_serializer@nlohmann@@@nlohmann@@@std@@@std@@@std@@QBEXH@Z 1001f2d0 f i Config.obj
 0001:0001e2d0       ?_Alloc_proxy@_Container_base0@std@@QAEXABU_Fake_allocator@2@@Z 1001f2d0 f i CFixMove.obj
 0001:0001e2d0       ?_Verify_offset@?$_Deque_const_iterator@V?$_Deque_val@U?$_Deque_simple_types@UPlayerRecords@@@std@@@std@@@std@@QBEXH@Z 1001f2d0 f i LagComp.obj
 0001:0001e2d0       ?_Compat@?$_Vector_const_iterator@V?$_Vector_val@U?$_Simple_types@VConfigFile@@@std@@@std@@@std@@QBEXABV12@@Z 1001f2d0 f i Config.obj
 0001:0001e2d0       ?_Adopt@_Iterator_base0@std@@QAEXPBX@Z 1001f2d0 f i Config.obj
 0001:0001e2d0       ?_Compat@?$_Vector_const_iterator@V?$_Vector_val@U?$_Simple_types@V?$basic_json@Vmap@std@@Vvector@2@V?$basic_string@DU?$char_traits@D@std@@V?$allocator@D@2@@2@_N_J_KNVallocator@2@Uadl_serializer@nlohmann@@@nlohmann@@@std@@@std@@@std@@QBEXABV12@@Z 1001f2d0 f i Config.obj
 0001:0001e2d0       ?_Compat@?$_Deque_const_iterator@V?$_Deque_val@U?$_Deque_simple_types@UPlayerRecords@@@std@@@std@@@std@@QBEXABV12@@Z 1001f2d0 f i LagComp.obj
 0001:0001e2d0       ?_Compat@?$_Vector_const_iterator@V?$_Vector_val@U?$_Simple_types@VVector@@@std@@@std@@@std@@QBEXABV12@@Z 1001f2d0 f i grenadetracer.obj
 0001:0001e2d0       ?_Compat@?$_Vector_const_iterator@V?$_Vector_val@U?$_Simple_types@PAVDot@@@std@@@std@@@std@@QBEXABV12@@Z 1001f2d0 f i Drops+.obj
 0001:0001e2d0       ?_Swap_proxy_and_iterators@_Container_base0@std@@QAEXAAU12@@Z 1001f2d0 f i Config.obj
 0001:0001e2d0       ?Put@?$GenericStringStream@U?$UTF8@D@rapidjson@@@rapidjson@@QAEXD@Z 1001f2d0 f i http.obj
 0001:0001e2d0       ?_Verify_offset@?$_String_const_iterator@V?$_String_val@U?$_Simple_types@D@std@@@std@@@std@@QBEXH@Z 1001f2d0 f i Visuals.obj
 0001:0001e2d0       ?_Compat@?$_Vector_const_iterator@V?$_Vector_val@U?$_Simple_types@U?$pair@VVector@@VQAngle@@@std@@@std@@@std@@@std@@QBEXABV12@@Z 1001f2d0 f i grenadetracer.obj
 0001:0001e2d0       ?_Verify_offset@?$_Vector_const_iterator@V?$_Vector_val@U?$_Simple_types@V?$basic_string@DU?$char_traits@D@std@@V?$allocator@D@2@@std@@@std@@@std@@@std@@QBEXH@Z 1001f2d0 f i NetvarManager.obj
 0001:0001e2e0       ?_Allocate@_Default_allocate_traits@std@@SAPAXI@Z 1001f2e0 f i CFixMove.obj
 0001:0001e300       ?_Calculate_growth@?$basic_string@DU?$char_traits@D@std@@V?$allocator@D@2@@std@@ABEII@Z 1001f300 f i CFixMove.obj
 0001:0001e340       ?_Calculate_growth@?$basic_string@DU?$char_traits@D@std@@V?$allocator@D@2@@std@@CAIIII@Z 1001f340 f i CFixMove.obj
 0001:0001e3a0       ?_Equal@?$basic_string@DU?$char_traits@D@std@@V?$allocator@D@2@@std@@QBE_NABV12@@Z 1001f3a0 f i CFixMove.obj
 0001:0001e420       ?_Max_bucket_size@?$_Hash@V?$_Umap_traits@V?$basic_string@DU?$char_traits@D@std@@V?$allocator@D@2@@std@@IV?$_Uhash_compare@V?$basic_string@DU?$char_traits@D@std@@V?$allocator@D@2@@std@@U?$hash@V?$basic_string@DU?$char_traits@D@std@@V?$allocator@D@2@@std@@@2@U?$equal_to@V?$basic_string@DU?$char_traits@D@std@@V?$allocator@D@2@@std@@@2@@2@V?$allocator@U?$pair@$$CBV?$basic_string@DU?$char_traits@D@std@@V?$allocator@D@2@@std@@I@std@@@2@$0A@@std@@@std@@IBEABMXZ 1001f420 f i NetvarManager.obj
 0001:0001e420       ?_Getal@?$vector@PAVDot@@V?$allocator@PAVDot@@@std@@@std@@AAEAAV?$allocator@PAVDot@@@2@XZ 1001f420 f i Drops+.obj
 0001:0001e420       ?_Getal@?$list@U?$pair@QADPAD@std@@V?$allocator@U?$pair@QADPAD@std@@@2@@std@@ABEABV?$allocator@U?$_List_node@U?$pair@QADPAD@std@@PAX@std@@@2@XZ 1001f420 f i skinchanger.obj
 0001:0001e420       ?_Max_bucket_size@?$_Hash@V?$_Umap_traits@PADPADV?$_Uhash_compare@PADU?$hash@PAD@std@@U?$equal_to@PAD@2@@std@@V?$allocator@U?$pair@QADPAD@std@@@2@$0A@@std@@@std@@IBEABMXZ 1001f420 f i skinchanger.obj
 0001:0001e420       ?_Getal@?$vector@Uimpact_info@@V?$allocator@Uimpact_info@@@std@@@std@@AAEAAV?$allocator@Uimpact_info@@@2@XZ 1001f420 f i otheresp.obj
 0001:0001e420       ?_Getal@?$vector@Vsound_info@@V?$allocator@Vsound_info@@@std@@@std@@AAEAAV?$allocator@Vsound_info@@@2@XZ 1001f420 f i Hooks.obj
 0001:0001e420       ?_Getal@?$vector@Unotify_data_t@@V?$allocator@Unotify_data_t@@@std@@@std@@ABEABV?$allocator@Unotify_data_t@@@2@XZ 1001f420 f i notifies.obj
 0001:0001e420       ?_Getal@?$vector@UVertex_t@@V?$allocator@UVertex_t@@@std@@@std@@ABEABV?$allocator@UVertex_t@@@2@XZ 1001f420 f i Visuals.obj
 0001:0001e420       ?_Getal@?$vector@DV?$allocator@D@std@@@std@@AAEAAV?$allocator@D@2@XZ 1001f420 f i Config.obj
 0001:0001e420       ?_Getal@?$vector@PBDV?$allocator@PBD@std@@@std@@ABEABV?$allocator@PBD@2@XZ 1001f420 f i Hooks.obj
 0001:0001e420       ?_Getal@?$vector@V?$basic_json@Vmap@std@@Vvector@2@V?$basic_string@DU?$char_traits@D@std@@V?$allocator@D@2@@2@_N_J_KNVallocator@2@Uadl_serializer@nlohmann@@@nlohmann@@V?$allocator@V?$basic_json@Vmap@std@@Vvector@2@V?$basic_string@DU?$char_traits@D@std@@V?$allocator@D@2@@2@_N_J_KNVallocator@2@Uadl_serializer@nlohmann@@@nlohmann@@@std@@@std@@ABEABV?$allocator@V?$basic_json@Vmap@std@@Vvector@2@V?$basic_string@DU?$char_traits@D@std@@V?$allocator@D@2@@2@_N_J_KNVallocator@2@Uadl_serializer@nlohmann@@@nlohmann@@@2@XZ 1001f420 f i Config.obj
 0001:0001e420       ?_Getal@?$vector@PAVCWindow@@V?$allocator@PAVCWindow@@@std@@@std@@AAEAAV?$allocator@PAVCWindow@@@2@XZ 1001f420 f i GUI.obj
 0001:0001e420       ?_Getal@?$vector@Uhitmarker_info@@V?$allocator@Uhitmarker_info@@@std@@@std@@ABEABV?$allocator@Uhitmarker_info@@@2@XZ 1001f420 f i otheresp.obj
 0001:0001e420       ?_Getal@?$vector@U?$pair@VVector@@VQAngle@@@std@@V?$allocator@U?$pair@VVector@@VQAngle@@@std@@@2@@std@@ABEABV?$allocator@U?$pair@VVector@@VQAngle@@@std@@@2@XZ 1001f420 f i grenadetracer.obj
 0001:0001e420       ?_Getal@?$list@U?$pair@$$CBV?$basic_string@DU?$char_traits@D@std@@V?$allocator@D@2@@std@@I@std@@V?$allocator@U?$pair@$$CBV?$basic_string@DU?$char_traits@D@std@@V?$allocator@D@2@@std@@I@std@@@2@@std@@AAEAAV?$allocator@U?$_List_node@U?$pair@$$CBV?$basic_string@DU?$char_traits@D@std@@V?$allocator@D@2@@std@@I@std@@PAX@std@@@2@XZ 1001f420 f i NetvarManager.obj
 0001:0001e420       ?_Max_bucket_size@?$_Hash@V?$_Umap_traits@V?$basic_string@DU?$char_traits@D@std@@V?$allocator@D@2@@std@@V?$unique_ptr@UNetvarTable@@U?$default_delete@UNetvarTable@@@std@@@2@V?$_Uhash_compare@V?$basic_string@DU?$char_traits@D@std@@V?$allocator@D@2@@std@@U?$hash@V?$basic_string@DU?$char_traits@D@std@@V?$allocator@D@2@@std@@@2@U?$equal_to@V?$basic_string@DU?$char_traits@D@std@@V?$allocator@D@2@@std@@@2@@2@V?$allocator@U?$pair@$$CBV?$basic_string@DU?$char_traits@D@std@@V?$allocator@D@2@@std@@V?$unique_ptr@UNetvarTable@@U?$default_delete@UNetvarTable@@@std@@@2@@std@@@2@$0A@@std@@@std@@IBEABMXZ 1001f420 f i NetvarManager.obj
 0001:0001e420       ?_Getal@?$vector@PAVCTab@@V?$allocator@PAVCTab@@@std@@@std@@AAEAAV?$allocator@PAVCTab@@@2@XZ 1001f420 f i GUI.obj
 0001:0001e420       ?_Getal@?$vector@UGrenadeInfo_t@@V?$allocator@UGrenadeInfo_t@@@std@@@std@@AAEAAV?$allocator@UGrenadeInfo_t@@@2@XZ 1001f420 f i GrenadeHelperAPI.obj
 0001:0001e420       ?_Getal@?$vector@Uwskin@@V?$allocator@Uwskin@@@std@@@std@@AAEAAV?$allocator@Uwskin@@@2@XZ 1001f420 f i Protobuffs.obj
 0001:0001e420       ?_Getal@?$_Tree@V?$_Tmap_traits@PAXU?$pair@V?$basic_string@DU?$char_traits@D@std@@V?$allocator@D@2@@std@@V?$vector@V?$basic_string@DU?$char_traits@D@std@@V?$allocator@D@2@@std@@V?$allocator@V?$basic_string@DU?$char_traits@D@std@@V?$allocator@D@2@@std@@@2@@2@@std@@U?$less@PAX@2@V?$allocator@U?$pair@QAXU?$pair@V?$basic_string@DU?$char_traits@D@std@@V?$allocator@D@2@@std@@V?$vector@V?$basic_string@DU?$char_traits@D@std@@V?$allocator@D@2@@std@@V?$allocator@V?$basic_string@DU?$char_traits@D@std@@V?$allocator@D@2@@std@@@2@@2@@std@@@std@@@2@$00@std@@@std@@IAEAAV?$allocator@U?$_Tree_node@U?$pair@QAXU?$pair@V?$basic_string@DU?$char_traits@D@std@@V?$allocator@D@2@@std@@V?$vector@V?$basic_string@DU?$char_traits@D@std@@V?$allocator@D@2@@std@@V?$allocator@V?$basic_string@DU?$char_traits@D@std@@V?$allocator@D@2@@std@@@2@@2@@std@@@std@@PAX@std@@@2@XZ 1001f420 f i NetvarManager.obj
 0001:0001e420       ?_Getal@?$_Tree@V?$_Tmap_traits@HPAVCWindow@@U?$less@H@std@@V?$allocator@U?$pair@$$CBHPAVCWindow@@@std@@@3@$0A@@std@@@std@@IAEAAV?$allocator@U?$_Tree_node@U?$pair@$$CBHPAVCWindow@@@std@@PAX@std@@@2@XZ 1001f420 f i GUI.obj
 0001:0001e420       ?_Getcomp@?$_Tree@V?$_Tmap_traits@V?$basic_string@DU?$char_traits@D@std@@V?$allocator@D@2@@std@@V?$basic_json@Vmap@std@@Vvector@2@V?$basic_string@DU?$char_traits@D@std@@V?$allocator@D@2@@2@_N_J_KNVallocator@2@Uadl_serializer@nlohmann@@@nlohmann@@U?$less@X@2@V?$allocator@U?$pair@$$CBV?$basic_string@DU?$char_traits@D@std@@V?$allocator@D@2@@std@@V?$basic_json@Vmap@std@@Vvector@2@V?$basic_string@DU?$char_traits@D@std@@V?$allocator@D@2@@2@_N_J_KNVallocator@2@Uadl_serializer@nlohmann@@@nlohmann@@@std@@@2@$0A@@std@@@std@@IBEABU?$less@X@2@XZ 1001f420 f i Config.obj
 0001:0001e420       ?_Getal@?$vector@U?$pair@HPBD@std@@V?$allocator@U?$pair@HPBD@std@@@2@@std@@AAEAAV?$allocator@U?$pair@HPBD@std@@@2@XZ 1001f420 f i Config.obj
 0001:0001e420       ?_Getal@?$vector@UField@@V?$allocator@UField@@@std@@@std@@AAEAAV?$allocator@UField@@@2@XZ 1001f420 f i Protobuffs.obj
 0001:0001e420       ?_Getal@?$vector@PBDV?$allocator@PBD@std@@@std@@AAEAAV?$allocator@PBD@2@XZ 1001f420 f i Hooks.obj
 0001:0001e420       ?_Getal@?$vector@Uhitmarker_info@@V?$allocator@Uhitmarker_info@@@std@@@std@@AAEAAV?$allocator@Uhitmarker_info@@@2@XZ 1001f420 f i otheresp.obj
 0001:0001e420       ?_Getal@?$basic_string@_WU?$char_traits@_W@std@@V?$allocator@_W@2@@std@@AAEAAV?$allocator@_W@2@XZ 1001f420 f i Config.obj
 0001:0001e420       ?_Max_bucket_size@?$_Hash@V?$_Umap_traits@V?$basic_string@DU?$char_traits@D@std@@V?$allocator@D@2@@std@@IV?$_Uhash_compare@V?$basic_string@DU?$char_traits@D@std@@V?$allocator@D@2@@std@@U?$hash@V?$basic_string@DU?$char_traits@D@std@@V?$allocator@D@2@@std@@@2@U?$equal_to@V?$basic_string@DU?$char_traits@D@std@@V?$allocator@D@2@@std@@@2@@2@V?$allocator@U?$pair@$$CBV?$basic_string@DU?$char_traits@D@std@@V?$allocator@D@2@@std@@I@std@@@2@$0A@@std@@@std@@IAEAAMXZ 1001f420 f i NetvarManager.obj
 0001:0001e420       ?_Getal@?$vector@Unotify_data_t@@V?$allocator@Unotify_data_t@@@std@@@std@@AAEAAV?$allocator@Unotify_data_t@@@2@XZ 1001f420 f i notifies.obj
 0001:0001e420       ?_Getal@?$_Tree@V?$_Tmap_traits@V?$basic_string@DU?$char_traits@D@std@@V?$allocator@D@2@@std@@V?$basic_json@Vmap@std@@Vvector@2@V?$basic_string@DU?$char_traits@D@std@@V?$allocator@D@2@@2@_N_J_KNVallocator@2@Uadl_serializer@nlohmann@@@nlohmann@@U?$less@X@2@V?$allocator@U?$pair@$$CBV?$basic_string@DU?$char_traits@D@std@@V?$allocator@D@2@@std@@V?$basic_json@Vmap@std@@Vvector@2@V?$basic_string@DU?$char_traits@D@std@@V?$allocator@D@2@@2@_N_J_KNVallocator@2@Uadl_serializer@nlohmann@@@nlohmann@@@std@@@2@$0A@@std@@@std@@IBEABV?$allocator@U?$_Tree_node@U?$pair@$$CBV?$basic_string@DU?$char_traits@D@std@@V?$allocator@D@2@@std@@V?$basic_json@Vmap@std@@Vvector@2@V?$basic_string@DU?$char_traits@D@std@@V?$allocator@D@2@@2@_N_J_KNVallocator@2@Uadl_serializer@nlohmann@@@nlohmann@@@std@@PAX@std@@@2@XZ 1001f420 f i Config.obj
 0001:0001e420       ?_Getal@?$vector@DV?$allocator@D@std@@@std@@ABEABV?$allocator@D@2@XZ 1001f420 f i Config.obj
 0001:0001e420       ?_Getal@?$vector@V?$basic_string@DU?$char_traits@D@std@@V?$allocator@D@2@@std@@V?$allocator@V?$basic_string@DU?$char_traits@D@std@@V?$allocator@D@2@@std@@@2@@std@@ABEABV?$allocator@V?$basic_string@DU?$char_traits@D@std@@V?$allocator@D@2@@std@@@2@XZ 1001f420 f i Config.obj
 0001:0001e420       ?_Getal@?$vector@VConfigFile@@V?$allocator@VConfigFile@@@std@@@std@@AAEAAV?$allocator@VConfigFile@@@2@XZ 1001f420 f i Config.obj
 0001:0001e420       ?get_deleter@?$unique_ptr@UNetvarTable@@U?$default_delete@UNetvarTable@@@std@@@std@@QAEAAU?$default_delete@UNetvarTable@@@2@XZ 1001f420 f i NetvarManager.obj
 0001:0001e420       ?_Getal@?$vector@Vtrace_info@bullettracers@@V?$allocator@Vtrace_info@bullettracers@@@std@@@std@@ABEABV?$allocator@Vtrace_info@bullettracers@@@2@XZ 1001f420 f i bullettracers.obj
 0001:0001e420       ?_Getal@?$vector@V?$basic_string@DU?$char_traits@D@std@@V?$allocator@D@2@@std@@V?$allocator@V?$basic_string@DU?$char_traits@D@std@@V?$allocator@D@2@@std@@@2@@std@@AAEAAV?$allocator@V?$basic_string@DU?$char_traits@D@std@@V?$allocator@D@2@@std@@@2@XZ 1001f420 f i Config.obj
 0001:0001e420       ?_Getal@?$vector@Uimpact_info@@V?$allocator@Uimpact_info@@@std@@@std@@ABEABV?$allocator@Uimpact_info@@@2@XZ 1001f420 f i otheresp.obj
 0001:0001e420       ?_Max_bucket_size@?$_Hash@V?$_Umap_traits@PADPADV?$_Uhash_compare@PADU?$hash@PAD@std@@U?$equal_to@PAD@2@@std@@V?$allocator@U?$pair@QADPAD@std@@@2@$0A@@std@@@std@@IAEAAMXZ 1001f420 f i skinchanger.obj
 0001:0001e420       ?_Getal@?$basic_string@DU?$char_traits@D@std@@V?$allocator@D@2@@std@@AAEAAV?$allocator@D@2@XZ 1001f420 f i CFixMove.obj
 0001:0001e420       ?_Getal@?$list@U?$pair@$$CBV?$basic_string@DU?$char_traits@D@std@@V?$allocator@D@2@@std@@I@std@@V?$allocator@U?$pair@$$CBV?$basic_string@DU?$char_traits@D@std@@V?$allocator@D@2@@std@@I@std@@@2@@std@@ABEABV?$allocator@U?$_List_node@U?$pair@$$CBV?$basic_string@DU?$char_traits@D@std@@V?$allocator@D@2@@std@@I@std@@PAX@std@@@2@XZ 1001f420 f i NetvarManager.obj
 0001:0001e420       ?_Getal@?$vector@UKit_t@@V?$allocator@UKit_t@@@std@@@std@@AAEAAV?$allocator@UKit_t@@@2@XZ 1001f420 f i kit_parser.obj
 0001:0001e420       ?_Getal@?$vector@V?$vector@UField@@V?$allocator@UField@@@std@@@std@@V?$allocator@V?$vector@UField@@V?$allocator@UField@@@std@@@std@@@2@@std@@AAEAAV?$allocator@V?$vector@UField@@V?$allocator@UField@@@std@@@std@@@2@XZ 1001f420 f i Protobuffs.obj
 0001:0001e420       ?_Getal@?$deque@UPlayerRecords@@V?$allocator@UPlayerRecords@@@std@@@std@@AAEAAV?$allocator@UPlayerRecords@@@2@XZ 1001f420 f i LagComp.obj
 0001:0001e420       ?_Getal@?$vector@PAVDot@@V?$allocator@PAVDot@@@std@@@std@@ABEABV?$allocator@PAVDot@@@2@XZ 1001f420 f i Drops+.obj
 0001:0001e420       ?_Getal@?$_Tree@V?$_Tmap_traits@V?$basic_string@DU?$char_traits@D@std@@V?$allocator@D@2@@std@@V?$basic_json@Vmap@std@@Vvector@2@V?$basic_string@DU?$char_traits@D@std@@V?$allocator@D@2@@2@_N_J_KNVallocator@2@Uadl_serializer@nlohmann@@@nlohmann@@U?$less@X@2@V?$allocator@U?$pair@$$CBV?$basic_string@DU?$char_traits@D@std@@V?$allocator@D@2@@std@@V?$basic_json@Vmap@std@@Vvector@2@V?$basic_string@DU?$char_traits@D@std@@V?$allocator@D@2@@2@_N_J_KNVallocator@2@Uadl_serializer@nlohmann@@@nlohmann@@@std@@@2@$0A@@std@@@std@@IAEAAV?$allocator@U?$_Tree_node@U?$pair@$$CBV?$basic_string@DU?$char_traits@D@std@@V?$allocator@D@2@@std@@V?$basic_json@Vmap@std@@Vvector@2@V?$basic_string@DU?$char_traits@D@std@@V?$allocator@D@2@@2@_N_J_KNVallocator@2@Uadl_serializer@nlohmann@@@nlohmann@@@std@@PAX@std@@@2@XZ 1001f420 f i Config.obj
 0001:0001e420       ?_Getal@?$list@U?$pair@$$CBV?$basic_string@DU?$char_traits@D@std@@V?$allocator@D@2@@std@@V?$unique_ptr@UNetvarTable@@U?$default_delete@UNetvarTable@@@std@@@2@@std@@V?$allocator@U?$pair@$$CBV?$basic_string@DU?$char_traits@D@std@@V?$allocator@D@2@@std@@V?$unique_ptr@UNetvarTable@@U?$default_delete@UNetvarTable@@@std@@@2@@std@@@2@@std@@AAEAAV?$allocator@U?$_List_node@U?$pair@$$CBV?$basic_string@DU?$char_traits@D@std@@V?$allocator@D@2@@std@@V?$unique_ptr@UNetvarTable@@U?$default_delete@UNetvarTable@@@std@@@2@@std@@PAX@std@@@2@XZ 1001f420 f i NetvarManager.obj
 0001:0001e420       ?_Getal@?$vector@UConfig_t@@V?$allocator@UConfig_t@@@std@@@std@@AAEAAV?$allocator@UConfig_t@@@2@XZ 1001f420 f i newMenu.obj
 0001:0001e420       ?_Getal@?$vector@Vtrace_info@bullettracers@@V?$allocator@Vtrace_info@bullettracers@@@std@@@std@@AAEAAV?$allocator@Vtrace_info@bullettracers@@@2@XZ 1001f420 f i bullettracers.obj
 0001:0001e420       ?_Getal@?$vector@IV?$allocator@I@std@@@std@@AAEAAV?$allocator@I@2@XZ 1001f420 f i Config.obj
 0001:0001e420       ?_Getal@?$basic_string@DU?$char_traits@D@std@@V?$allocator@D@2@@std@@ABEABV?$allocator@D@2@XZ 1001f420 f i CFixMove.obj
 0001:0001e420       ?_Getal@?$basic_string@_WU?$char_traits@_W@std@@V?$allocator@_W@2@@std@@ABEABV?$allocator@_W@2@XZ 1001f420 f i Config.obj
 0001:0001e420       ?_Getal@?$vector@VConfigFile@@V?$allocator@VConfigFile@@@std@@@std@@ABEABV?$allocator@VConfigFile@@@2@XZ 1001f420 f i Config.obj
 0001:0001e420       ?_Getal@?$vector@Vsound_info@@V?$allocator@Vsound_info@@@std@@@std@@ABEABV?$allocator@Vsound_info@@@2@XZ 1001f420 f i Hooks.obj
 0001:0001e420       ?_Max_bucket_size@?$_Hash@V?$_Umap_traits@V?$basic_string@DU?$char_traits@D@std@@V?$allocator@D@2@@std@@V?$unique_ptr@UNetvarTable@@U?$default_delete@UNetvarTable@@@std@@@2@V?$_Uhash_compare@V?$basic_string@DU?$char_traits@D@std@@V?$allocator@D@2@@std@@U?$hash@V?$basic_string@DU?$char_traits@D@std@@V?$allocator@D@2@@std@@@2@U?$equal_to@V?$basic_string@DU?$char_traits@D@std@@V?$allocator@D@2@@std@@@2@@2@V?$allocator@U?$pair@$$CBV?$basic_string@DU?$char_traits@D@std@@V?$allocator@D@2@@std@@V?$unique_ptr@UNetvarTable@@U?$default_delete@UNetvarTable@@@std@@@2@@std@@@2@$0A@@std@@@std@@IAEAAMXZ 1001f420 f i NetvarManager.obj
 0001:0001e420       ?_Getal@?$vector@IV?$allocator@I@std@@@std@@ABEABV?$allocator@I@2@XZ 1001f420 f i Protobuffs.obj
 0001:0001e420       ?_Getal@?$vector@U_event@@V?$allocator@U_event@@@std@@@std@@AAEAAV?$allocator@U_event@@@2@XZ 1001f420 f i Visuals.obj
 0001:0001e420       ?_Getal@?$vector@V?$basic_json@Vmap@std@@Vvector@2@V?$basic_string@DU?$char_traits@D@std@@V?$allocator@D@2@@2@_N_J_KNVallocator@2@Uadl_serializer@nlohmann@@@nlohmann@@V?$allocator@V?$basic_json@Vmap@std@@Vvector@2@V?$basic_string@DU?$char_traits@D@std@@V?$allocator@D@2@@2@_N_J_KNVallocator@2@Uadl_serializer@nlohmann@@@nlohmann@@@std@@@std@@AAEAAV?$allocator@V?$basic_json@Vmap@std@@Vvector@2@V?$basic_string@DU?$char_traits@D@std@@V?$allocator@D@2@@2@_N_J_KNVallocator@2@Uadl_serializer@nlohmann@@@nlohmann@@@2@XZ 1001f420 f i Config.obj
 0001:0001e420       ?_Getal@?$vector@V?$vector@UField@@V?$allocator@UField@@@std@@@std@@V?$allocator@V?$vector@UField@@V?$allocator@UField@@@std@@@std@@@2@@std@@ABEABV?$allocator@V?$vector@UField@@V?$allocator@UField@@@std@@@std@@@2@XZ 1001f420 f i Protobuffs.obj
 0001:0001e420       ?_Getal@?$vector@UVertex_t@@V?$allocator@UVertex_t@@@std@@@std@@AAEAAV?$allocator@UVertex_t@@@2@XZ 1001f420 f i Visuals.obj
 0001:0001e420       ?_Getal@?$vector@Uwskin@@V?$allocator@Uwskin@@@std@@@std@@ABEABV?$allocator@Uwskin@@@2@XZ 1001f420 f i Protobuffs.obj
 0001:0001e420       ?_Getal@?$vector@U_Find_file_handle@filesystem@std@@V?$allocator@U_Find_file_handle@filesystem@std@@@3@@std@@AAEAAV?$allocator@U_Find_file_handle@filesystem@std@@@2@XZ 1001f420 f i Config.obj
 0001:0001e420       ?_Getal@?$vector@U?$pair@V?$basic_string@DU?$char_traits@D@std@@V?$allocator@D@2@@std@@VColor@@@std@@V?$allocator@U?$pair@V?$basic_string@DU?$char_traits@D@std@@V?$allocator@D@2@@std@@VColor@@@std@@@2@@std@@ABEABV?$allocator@U?$pair@V?$basic_string@DU?$char_traits@D@std@@V?$allocator@D@2@@std@@VColor@@@std@@@2@XZ 1001f420 f i Visuals.obj
 0001:0001e420       ?_Getal@?$vector@U?$pair@V?$basic_string@DU?$char_traits@D@std@@V?$allocator@D@2@@std@@VColor@@@std@@V?$allocator@U?$pair@V?$basic_string@DU?$char_traits@D@std@@V?$allocator@D@2@@std@@VColor@@@std@@@2@@std@@AAEAAV?$allocator@U?$pair@V?$basic_string@DU?$char_traits@D@std@@V?$allocator@D@2@@std@@VColor@@@std@@@2@XZ 1001f420 f i Visuals.obj
 0001:0001e420       ?_Getal@?$vector@HV?$allocator@H@std@@@std@@AAEAAV?$allocator@H@2@XZ 1001f420 f i Controls.obj
 0001:0001e420       ?_Getal@?$vector@U?$pair@HPBD@std@@V?$allocator@U?$pair@HPBD@std@@@2@@std@@ABEABV?$allocator@U?$pair@HPBD@std@@@2@XZ 1001f420 f i Config.obj
 0001:0001e420       ?_Getal@?$list@U?$pair@QADPAD@std@@V?$allocator@U?$pair@QADPAD@std@@@2@@std@@AAEAAV?$allocator@U?$_List_node@U?$pair@QADPAD@std@@PAX@std@@@2@XZ 1001f420 f i skinchanger.obj
 0001:0001e420       ?_Getal@?$vector@VVector@@V?$allocator@VVector@@@std@@@std@@ABEABV?$allocator@VVector@@@2@XZ 1001f420 f i grenadetracer.obj
 0001:0001e420       ?_Getal@?$vector@U?$pair@VVector@@VQAngle@@@std@@V?$allocator@U?$pair@VVector@@VQAngle@@@std@@@2@@std@@AAEAAV?$allocator@U?$pair@VVector@@VQAngle@@@std@@@2@XZ 1001f420 f i grenadetracer.obj
 0001:0001e420       ?_Getal@?$deque@UPlayerRecords@@V?$allocator@UPlayerRecords@@@std@@@std@@ABEABV?$allocator@UPlayerRecords@@@2@XZ 1001f420 f i LagComp.obj
 0001:0001e420       ?_Getal@?$vector@UField@@V?$allocator@UField@@@std@@@std@@ABEABV?$allocator@UField@@@2@XZ 1001f420 f i Protobuffs.obj
 0001:0001e420       ?_Getal@?$vector@VVector@@V?$allocator@VVector@@@std@@@std@@AAEAAV?$allocator@VVector@@@2@XZ 1001f420 f i grenadetracer.obj
 0001:0001e420       ?_Getal@?$vector@HV?$allocator@H@std@@@std@@ABEABV?$allocator@H@2@XZ 1001f420 f i Controls.obj
 0001:0001e420       ?_Getal@?$list@U?$pair@$$CBV?$basic_string@DU?$char_traits@D@std@@V?$allocator@D@2@@std@@V?$unique_ptr@UNetvarTable@@U?$default_delete@UNetvarTable@@@std@@@2@@std@@V?$allocator@U?$pair@$$CBV?$basic_string@DU?$char_traits@D@std@@V?$allocator@D@2@@std@@V?$unique_ptr@UNetvarTable@@U?$default_delete@UNetvarTable@@@std@@@2@@std@@@2@@std@@ABEABV?$allocator@U?$_List_node@U?$pair@$$CBV?$basic_string@DU?$char_traits@D@std@@V?$allocator@D@2@@std@@V?$unique_ptr@UNetvarTable@@U?$default_delete@UNetvarTable@@@std@@@2@@std@@PAX@std@@@2@XZ 1001f420 f i NetvarManager.obj
 0001:0001e420       ?_Getal@?$vector@U_Find_file_handle@filesystem@std@@V?$allocator@U_Find_file_handle@filesystem@std@@@3@@std@@ABEABV?$allocator@U_Find_file_handle@filesystem@std@@@2@XZ 1001f420 f i Config.obj
 0001:0001e440       ?_Large_string_engaged@?$_String_val@U?$_Simple_types@D@std@@@std@@QBE_NXZ 1001f440 f i CFixMove.obj
 0001:0001e470       ?_Myptr@?$_String_val@U?$_Simple_types@D@std@@@std@@QBEPBDXZ 1001f470 f i CFixMove.obj
 0001:0001e470       ?_Myptr@?$_String_val@U?$_Simple_types@D@std@@@std@@QAEPADXZ 1001f470 f i CFixMove.obj
 0001:0001e4b0       ?_Throw_bad_array_new_length@std@@YAXXZ 1001f4b0 f i CFixMove.obj
 0001:0001e4d0       ?_Tidy_deallocate@?$basic_string@DU?$char_traits@D@std@@V?$allocator@D@2@@std@@AAEXXZ 1001f4d0 f i CFixMove.obj
 0001:0001e590       ?_Tidy_init@?$basic_string@DU?$char_traits@D@std@@V?$allocator@D@2@@std@@AAEXXZ 1001f590 f i CFixMove.obj
 0001:0001e5d0       ?_Xlen@?$basic_string@DU?$char_traits@D@std@@V?$allocator@D@2@@std@@CAXXZ 1001f5d0 f i CFixMove.obj
 0001:0001e5d0       ?_Xlen@?$basic_string@_WU?$char_traits@_W@std@@V?$allocator@_W@2@@std@@CAXXZ 1001f5d0 f i Config.obj
 0001:0001e5e0       ?abs@@YAMM@Z               1001f5e0 f i CFixMove.obj
 0001:0001e5e0       ?fabs@@YAMM@Z              1001f5e0 f i Aimbot.obj
 0001:0001e600       ?allocate@?$allocator@D@std@@QAEPADI@Z 1001f600 f i CFixMove.obj
 0001:0001e630       ?assign@?$_Narrow_char_traits@DH@std@@SAXAADABD@Z 1001f630 f i CFixMove.obj
 0001:0001e640       ?assign@?$basic_string@DU?$char_traits@D@std@@V?$allocator@D@2@@std@@QAEAAV12@QBD@Z 1001f640 f i CFixMove.obj
 0001:0001e670       ?assign@?$basic_string@DU?$char_traits@D@std@@V?$allocator@D@2@@std@@QAEAAV12@QBDI@Z 1001f670 f i CFixMove.obj
 0001:0001e6f0       ?compare@?$_Narrow_char_traits@DH@std@@SAHQBD0I@Z 1001f6f0 f i CFixMove.obj
 0001:0001e720       ?copy@?$_Narrow_char_traits@DH@std@@SAPADQADQBDI@Z 1001f720 f i CFixMove.obj
 0001:0001e740       ?cos@@YAMM@Z               1001f740 f i CFixMove.obj
 0001:0001e760       ?deallocate@?$allocator@D@std@@QAEXQADI@Z 1001f760 f i CFixMove.obj
 0001:0001e780       ?length@?$_Narrow_char_traits@DH@std@@SAIQBD@Z 1001f780 f i CFixMove.obj
 0001:0001e7c0       ?max_size@?$_Default_allocator_traits@V?$allocator@_W@std@@@std@@SAIABV?$allocator@_W@2@@Z 1001f7c0 f i Config.obj
 0001:0001e7c0       ?max@?$numeric_limits@H@std@@SAHXZ 1001f7c0 f i CFixMove.obj
 0001:0001e7d0       ?max_size@?$_Default_allocator_traits@V?$allocator@D@std@@@std@@SAIABV?$allocator@D@2@@Z 1001f7d0 f i CFixMove.obj
 0001:0001e7d0       ?eof@?$_Narrow_char_traits@DH@std@@SAHXZ 1001f7d0 f i Config.obj
 0001:0001e7e0       ?max_size@?$basic_string@DU?$char_traits@D@std@@V?$allocator@D@2@@std@@QBEIXZ 1001f7e0 f i CFixMove.obj
 0001:0001e840       ?move@?$_Narrow_char_traits@DH@std@@SAPADQADQBDI@Z 1001f840 f i CFixMove.obj
 0001:0001e860       ?sin@@YAMM@Z               1001f860 f i CFixMove.obj
 0001:0001e880       ?what@exception@std@@UBEPBDXZ 1001f880 f i CFixMove.obj
 0001:0001e8b0       _cosf                      1001f8b0 f i CFixMove.obj
 0001:0001e8e0       _fabsf                     1001f8e0 f i CFixMove.obj
 0001:0001e910       _sinf                      1001f910 f i CFixMove.obj
 0001:0001e940       _wmemcpy                   1001f940 f i CFixMove.obj
 0001:0001e960       ??$?0$$QAV?$basic_string@DU?$char_traits@D@std@@V?$allocator@D@2@@std@@$$Z$$V@?$pair@$$CBV?$basic_string@DU?$char_traits@D@std@@V?$allocator@D@2@@std@@V?$basic_json@Vmap@std@@Vvector@2@V?$basic_string@DU?$char_traits@D@std@@V?$allocator@D@2@@2@_N_J_KNVallocator@2@Uadl_serializer@nlohmann@@@nlohmann@@@std@@QAE@Upiecewise_construct_t@1@V?$tuple@$$QAV?$basic_string@DU?$char_traits@D@std@@V?$allocator@D@2@@std@@@1@V?$tuple@$$V@1@@Z 1001f960 f i Config.obj
 0001:0001e990       ??$?0$$V@?$_Compressed_pair@V?$allocator@PAVCWindow@@@std@@V?$_Vector_val@U?$_Simple_types@PAVCWindow@@@std@@@2@$00@std@@QAE@U_Zero_then_variadic_args_t@1@@Z 1001f990 f i Controls.obj
 0001:0001e990       ??$?0$$V@?$_Compressed_pair@V?$allocator@UGrenadeInfo_t@@@std@@V?$_Vector_val@U?$_Simple_types@UGrenadeInfo_t@@@std@@@2@$00@std@@QAE@U_Zero_then_variadic_args_t@1@@Z 1001f990 f i GrenadeHelperAPI.obj
 0001:0001e990       ??$?0$$V@?$_Compressed_pair@V?$allocator@Unotify_data_t@@@std@@V?$_Vector_val@U?$_Simple_types@Unotify_data_t@@@std@@@2@$00@std@@QAE@U_Zero_then_variadic_args_t@1@@Z 1001f990 f i notifies.obj
 0001:0001e990       ??$?0$$V@?$_Compressed_pair@V?$allocator@VVector@@@std@@V?$_Vector_val@U?$_Simple_types@VVector@@@std@@@2@$00@std@@QAE@U_Zero_then_variadic_args_t@1@@Z 1001f990 f i Hooks.obj
 0001:0001e990       ??$?0$$V@?$_Compressed_pair@V?$allocator@V?$basic_string@DU?$char_traits@D@std@@V?$allocator@D@2@@std@@@std@@V?$_Vector_val@U?$_Simple_types@V?$basic_string@DU?$char_traits@D@std@@V?$allocator@D@2@@std@@@std@@@2@$00@std@@QAE@U_Zero_then_variadic_args_t@1@@Z 1001f990 f i Config.obj
 0001:0001e990       ??$?0$$V@?$_Compressed_pair@V?$allocator@U_Find_file_handle@filesystem@std@@@std@@V?$_Vector_val@U?$_Simple_types@U_Find_file_handle@filesystem@std@@@std@@@2@$00@std@@QAE@U_Zero_then_variadic_args_t@1@@Z 1001f990 f i Config.obj
 0001:0001e990       ??$?0$$V@?$_Compressed_pair@V?$allocator@U?$pair@VVector@@VQAngle@@@std@@@std@@V?$_Vector_val@U?$_Simple_types@U?$pair@VVector@@VQAngle@@@std@@@std@@@2@$00@std@@QAE@U_Zero_then_variadic_args_t@1@@Z 1001f990 f i Hooks.obj
 0001:0001e990       ??$?0$$V@?$_Compressed_pair@V?$allocator@UVertex_t@@@std@@V?$_Vector_val@U?$_Simple_types@UVertex_t@@@std@@@2@$00@std@@QAE@U_Zero_then_variadic_args_t@1@@Z 1001f990 f i Visuals.obj
 0001:0001e990       ??$?0$$V@?$_Compressed_pair@V?$allocator@V?$basic_json@Vmap@std@@Vvector@2@V?$basic_string@DU?$char_traits@D@std@@V?$allocator@D@2@@2@_N_J_KNVallocator@2@Uadl_serializer@nlohmann@@@nlohmann@@@std@@V?$_Vector_val@U?$_Simple_types@V?$basic_json@Vmap@std@@Vvector@2@V?$basic_string@DU?$char_traits@D@std@@V?$allocator@D@2@@2@_N_J_KNVallocator@2@Uadl_serializer@nlohmann@@@nlohmann@@@std@@@2@$00@std@@QAE@U_Zero_then_variadic_args_t@1@@Z 1001f990 f i Config.obj
 0001:0001e990       ??$?0$$V@?$_Compressed_pair@V?$allocator@U?$pair@V?$basic_string@DU?$char_traits@D@std@@V?$allocator@D@2@@std@@VColor@@@std@@@std@@V?$_Vector_val@U?$_Simple_types@U?$pair@V?$basic_string@DU?$char_traits@D@std@@V?$allocator@D@2@@std@@VColor@@@std@@@std@@@2@$00@std@@QAE@U_Zero_then_variadic_args_t@1@@Z 1001f990 f i Visuals.obj
 0001:0001e990       ??$?0$$V@?$_Compressed_pair@V?$allocator@Uimpact_info@@@std@@V?$_Vector_val@U?$_Simple_types@Uimpact_info@@@std@@@2@$00@std@@QAE@U_Zero_then_variadic_args_t@1@@Z 1001f990 f i otheresp.obj
 0001:0001e990       ??$?0$$V@?$_Compressed_pair@V?$allocator@U_event@@@std@@V?$_Vector_val@U?$_Simple_types@U_event@@@std@@@2@$00@std@@QAE@U_Zero_then_variadic_args_t@1@@Z 1001f990 f i Visuals.obj
 0001:0001e990       ??$?0$$V@?$_Compressed_pair@V?$allocator@Vsound_info@@@std@@V?$_Vector_val@U?$_Simple_types@Vsound_info@@@std@@@2@$00@std@@QAE@U_Zero_then_variadic_args_t@1@@Z 1001f990 f i Hooks.obj
 0001:0001e990       ??$?0$$V@?$_Compressed_pair@V?$allocator@V?$vector@UField@@V?$allocator@UField@@@std@@@std@@@std@@V?$_Vector_val@U?$_Simple_types@V?$vector@UField@@V?$allocator@UField@@@std@@@std@@@std@@@2@$00@std@@QAE@U_Zero_then_variadic_args_t@1@@Z 1001f990 f i Protobuffs.obj
 0001:0001e990       ??$?0$$V@?$_Compressed_pair@V?$allocator@U?$pair@HPBD@std@@@std@@V?$_Vector_val@U?$_Simple_types@U?$pair@HPBD@std@@@std@@@2@$00@std@@QAE@U_Zero_then_variadic_args_t@1@@Z 1001f990 f i Config.obj
 0001:0001e990       ??$?0$$V@?$_Compressed_pair@V?$allocator@PAVDot@@@std@@V?$_Vector_val@U?$_Simple_types@PAVDot@@@std@@@2@$00@std@@QAE@U_Zero_then_variadic_args_t@1@@Z 1001f990 f i Drops+.obj
 0001:0001e990       ??$?0$$V@?$_Compressed_pair@V?$allocator@UConfig_t@@@std@@V?$_Vector_val@U?$_Simple_types@UConfig_t@@@std@@@2@$00@std@@QAE@U_Zero_then_variadic_args_t@1@@Z 1001f990 f i newMenu.obj
 0001:0001e990       ??$?0$$V@?$_Compressed_pair@V?$allocator@UKit_t@@@std@@V?$_Vector_val@U?$_Simple_types@UKit_t@@@std@@@2@$00@std@@QAE@U_Zero_then_variadic_args_t@1@@Z 1001f990 f i kit_parser.obj
 0001:0001e990       ??$?0$$V@?$_Compressed_pair@V?$allocator@I@std@@V?$_Vector_val@U?$_Simple_types@I@std@@@2@$00@std@@QAE@U_Zero_then_variadic_args_t@1@@Z 1001f990 f i Config.obj
 0001:0001e990       ??$?0$$V@?$_Compressed_pair@V?$allocator@Uhitmarker_info@@@std@@V?$_Vector_val@U?$_Simple_types@Uhitmarker_info@@@std@@@2@$00@std@@QAE@U_Zero_then_variadic_args_t@1@@Z 1001f990 f i otheresp.obj
 0001:0001e990       ??$?0$$V@?$_Compressed_pair@V?$allocator@D@std@@V?$_Vector_val@U?$_Simple_types@D@std@@@2@$00@std@@QAE@U_Zero_then_variadic_args_t@1@@Z 1001f990 f i Config.obj
 0001:0001e990       ??$?0$$V@?$_Compressed_pair@V?$allocator@H@std@@V?$_Vector_val@U?$_Simple_types@H@std@@@2@$00@std@@QAE@U_Zero_then_variadic_args_t@1@@Z 1001f990 f i Controls.obj
 0001:0001e990       ??$?0$$V@?$_Compressed_pair@V?$allocator@PAVCTab@@@std@@V?$_Vector_val@U?$_Simple_types@PAVCTab@@@std@@@2@$00@std@@QAE@U_Zero_then_variadic_args_t@1@@Z 1001f990 f i newMenu.obj
 0001:0001e990       ??$?0$$V@?$_Compressed_pair@V?$allocator@UField@@@std@@V?$_Vector_val@U?$_Simple_types@UField@@@std@@@2@$00@std@@QAE@U_Zero_then_variadic_args_t@1@@Z 1001f990 f i Protobuffs.obj
 0001:0001e990       ??$?0$$V@?$_Compressed_pair@V?$allocator@Vtrace_info@bullettracers@@@std@@V?$_Vector_val@U?$_Simple_types@Vtrace_info@bullettracers@@@std@@@2@$00@std@@QAE@U_Zero_then_variadic_args_t@1@@Z 1001f990 f i Hooks.obj
 0001:0001e990       ??$?0$$V@?$_Compressed_pair@V?$allocator@VConfigFile@@@std@@V?$_Vector_val@U?$_Simple_types@VConfigFile@@@std@@@2@$00@std@@QAE@U_Zero_then_variadic_args_t@1@@Z 1001f990 f i Config.obj
 0001:0001e9b0       ??$?0$$V@?$_Compressed_pair@V?$allocator@U?$_Tree_node@U?$pair@$$CBHPAVCWindow@@@std@@PAX@std@@@std@@V?$_Tree_val@U?$_Tree_simple_types@U?$pair@$$CBHPAVCWindow@@@std@@@std@@@2@$00@std@@QAE@U_Zero_then_variadic_args_t@1@@Z 1001f9b0 f i GUI.obj
 0001:0001e9b0       ??$?0$$V@?$_Compressed_pair@V?$allocator@U?$_Tree_node@U?$pair@QAXU?$pair@V?$basic_string@DU?$char_traits@D@std@@V?$allocator@D@2@@std@@V?$vector@V?$basic_string@DU?$char_traits@D@std@@V?$allocator@D@2@@std@@V?$allocator@V?$basic_string@DU?$char_traits@D@std@@V?$allocator@D@2@@std@@@2@@2@@std@@@std@@PAX@std@@@std@@V?$_Tree_val@U?$_Tree_simple_types@U?$pair@QAXU?$pair@V?$basic_string@DU?$char_traits@D@std@@V?$allocator@D@2@@std@@V?$vector@V?$basic_string@DU?$char_traits@D@std@@V?$allocator@D@2@@std@@V?$allocator@V?$basic_string@DU?$char_traits@D@std@@V?$allocator@D@2@@std@@@2@@2@@std@@@std@@@std@@@2@$00@std@@QAE@U_Zero_then_variadic_args_t@1@@Z 1001f9b0 f i NetvarManager.obj
 0001:0001e9b0       ??$?0$$V@?$_Compressed_pair@V?$allocator@U?$_Tree_node@U?$pair@$$CBV?$basic_string@DU?$char_traits@D@std@@V?$allocator@D@2@@std@@V?$basic_json@Vmap@std@@Vvector@2@V?$basic_string@DU?$char_traits@D@std@@V?$allocator@D@2@@2@_N_J_KNVallocator@2@Uadl_serializer@nlohmann@@@nlohmann@@@std@@PAX@std@@@std@@V?$_Tree_val@U?$_Tree_simple_types@U?$pair@$$CBV?$basic_string@DU?$char_traits@D@std@@V?$allocator@D@2@@std@@V?$basic_json@Vmap@std@@Vvector@2@V?$basic_string@DU?$char_traits@D@std@@V?$allocator@D@2@@2@_N_J_KNVallocator@2@Uadl_serializer@nlohmann@@@nlohmann@@@std@@@std@@@2@$00@std@@QAE@U_Zero_then_variadic_args_t@1@@Z 1001f9b0 f i Config.obj
 0001:0001e9d0       ??$?0AAEE$0A@@?$basic_json@Vmap@std@@Vvector@2@V?$basic_string@DU?$char_traits@D@std@@V?$allocator@D@2@@2@_N_J_KNVallocator@2@Uadl_serializer@nlohmann@@@nlohmann@@QAE@AAE@Z 1001f9d0 f i Config.obj
 0001:0001ea20       ??$?0AAHH$0A@@?$basic_json@Vmap@std@@Vvector@2@V?$basic_string@DU?$char_traits@D@std@@V?$allocator@D@2@@2@_N_J_KNVallocator@2@Uadl_serializer@nlohmann@@@nlohmann@@QAE@AAH@Z 1001fa20 f i Config.obj
 0001:0001ea70       ??$?0AAMM$0A@@?$basic_json@Vmap@std@@Vvector@2@V?$basic_string@DU?$char_traits@D@std@@V?$allocator@D@2@@2@_N_J_KNVallocator@2@Uadl_serializer@nlohmann@@@nlohmann@@QAE@AAM@Z 1001fa70 f i Config.obj
 0001:0001eac0       ??$?0AAPAU?$_Tree_node@U?$pair@$$CBV?$basic_string@DU?$char_traits@D@std@@V?$allocator@D@2@@std@@V?$basic_json@Vmap@std@@Vvector@2@V?$basic_string@DU?$char_traits@D@std@@V?$allocator@D@2@@2@_N_J_KNVallocator@2@Uadl_serializer@nlohmann@@@nlohmann@@@std@@PAX@std@@_N$0A@@?$pair@PAU?$_Tree_node@U?$pair@$$CBV?$basic_string@DU?$char_traits@D@std@@V?$allocator@D@2@@std@@V?$basic_json@Vmap@std@@Vvector@2@V?$basic_string@DU?$char_traits@D@std@@V?$allocator@D@2@@2@_N_J_KNVallocator@2@Uadl_serializer@nlohmann@@@nlohmann@@@std@@PAX@std@@_N@std@@QAE@AAPAU?$_Tree_node@U?$pair@$$CBV?$basic_string@DU?$char_traits@D@std@@V?$allocator@D@2@@std@@V?$basic_json@Vmap@std@@Vvector@2@V?$basic_string@DU?$char_traits@D@std@@V?$allocator@D@2@@2@_N_J_KNVallocator@2@Uadl_serializer@nlohmann@@@nlohmann@@@std@@PAX@1@$$QA_N@Z 1001fac0 f i Config.obj
 0001:0001eac0       ??$?0AAPAU?$_List_node@U?$pair@QADPAD@std@@PAX@std@@_N$0A@@?$pair@PAU?$_List_node@U?$pair@QADPAD@std@@PAX@std@@_N@std@@QAE@AAPAU?$_List_node@U?$pair@QADPAD@std@@PAX@1@$$QA_N@Z 1001fac0 f i skinchanger.obj
 0001:0001eac0       ??$?0PAU?$_Tree_node@U?$pair@$$CBV?$basic_string@DU?$char_traits@D@std@@V?$allocator@D@2@@std@@V?$basic_json@Vmap@std@@Vvector@2@V?$basic_string@DU?$char_traits@D@std@@V?$allocator@D@2@@2@_N_J_KNVallocator@2@Uadl_serializer@nlohmann@@@nlohmann@@@std@@PAX@std@@_N$0A@@?$pair@PAU?$_Tree_node@U?$pair@$$CBV?$basic_string@DU?$char_traits@D@std@@V?$allocator@D@2@@std@@V?$basic_json@Vmap@std@@Vvector@2@V?$basic_string@DU?$char_traits@D@std@@V?$allocator@D@2@@2@_N_J_KNVallocator@2@Uadl_serializer@nlohmann@@@nlohmann@@@std@@PAX@std@@_N@std@@QAE@$$QAPAU?$_Tree_node@U?$pair@$$CBV?$basic_string@DU?$char_traits@D@std@@V?$allocator@D@2@@std@@V?$basic_json@Vmap@std@@Vvector@2@V?$basic_string@DU?$char_traits@D@std@@V?$allocator@D@2@@2@_N_J_KNVallocator@2@Uadl_serializer@nlohmann@@@nlohmann@@@std@@PAX@1@$$QA_N@Z 1001fac0 f i Config.obj
 0001:0001eac0       ??$?0ABQAU?$_Tree_node@U?$pair@$$CBV?$basic_string@DU?$char_traits@D@std@@V?$allocator@D@2@@std@@V?$basic_json@Vmap@std@@Vvector@2@V?$basic_string@DU?$char_traits@D@std@@V?$allocator@D@2@@2@_N_J_KNVallocator@2@Uadl_serializer@nlohmann@@@nlohmann@@@std@@PAX@std@@_N$0A@@?$pair@PAU?$_Tree_node@U?$pair@$$CBV?$basic_string@DU?$char_traits@D@std@@V?$allocator@D@2@@std@@V?$basic_json@Vmap@std@@Vvector@2@V?$basic_string@DU?$char_traits@D@std@@V?$allocator@D@2@@2@_N_J_KNVallocator@2@Uadl_serializer@nlohmann@@@nlohmann@@@std@@PAX@std@@_N@std@@QAE@ABQAU?$_Tree_node@U?$pair@$$CBV?$basic_string@DU?$char_traits@D@std@@V?$allocator@D@2@@std@@V?$basic_json@Vmap@std@@Vvector@2@V?$basic_string@DU?$char_traits@D@std@@V?$allocator@D@2@@2@_N_J_KNVallocator@2@Uadl_serializer@nlohmann@@@nlohmann@@@std@@PAX@1@$$QA_N@Z 1001fac0 f i Config.obj
 0001:0001eac0       ??$?0PAU?$_List_node@U?$pair@QADPAD@std@@PAX@std@@_N$0A@@?$pair@PAU?$_List_node@U?$pair@QADPAD@std@@PAX@std@@_N@std@@QAE@$$QAPAU?$_List_node@U?$pair@QADPAD@std@@PAX@1@$$QA_N@Z 1001fac0 f i skinchanger.obj
 0001:0001eb00       ??$?0AAPAV?$basic_string@DU?$char_traits@D@std@@V?$allocator@D@2@@std@@AAPAV01@$0A@@?$pair@PAV?$basic_string@DU?$char_traits@D@std@@V?$allocator@D@2@@std@@PAV12@@std@@QAE@AAPAV?$basic_string@DU?$char_traits@D@std@@V?$allocator@D@2@@1@0@Z 1001fb00 f i Config.obj
 0001:0001eb00       ??$?0AAHAAH$0A@@?$pair@HH@std@@QAE@AAH0@Z 1001fb00 f i Hooks.obj
 0001:0001eb40       ??$?0M@?$_Compressed_pair@U?$equal_to@PAD@std@@M$00@std@@QAE@U_Zero_then_variadic_args_t@1@$$QAM@Z 1001fb40 f i skinchanger.obj
 0001:0001eb40       ??$?0AAPAV_Facet_base@std@@@?$_Compressed_pair@U?$default_delete@V_Facet_base@std@@@std@@PAV_Facet_base@2@$00@std@@QAE@U_Zero_then_variadic_args_t@1@AAPAV_Facet_base@1@@Z 1001fb40 f i Config.obj
 0001:0001eb40       ??$?0AAPAUNetvarTable@@@?$_Compressed_pair@U?$default_delete@UNetvarTable@@@std@@PAUNetvarTable@@$00@std@@QAE@U_Zero_then_variadic_args_t@1@AAPAUNetvarTable@@@Z 1001fb40 f i NetvarManager.obj
 0001:0001eb40       ??$?0M@?$_Compressed_pair@U?$equal_to@V?$basic_string@DU?$char_traits@D@std@@V?$allocator@D@2@@std@@@std@@M$00@std@@QAE@U_Zero_then_variadic_args_t@1@$$QAM@Z 1001fb40 f i NetvarManager.obj
 0001:0001eb40       ??$?0AAPAVNetvarDatabase@@@?$_Compressed_pair@U?$default_delete@VNetvarDatabase@@@std@@PAVNetvarDatabase@@$00@std@@QAE@U_Zero_then_variadic_args_t@1@AAPAVNetvarDatabase@@@Z 1001fb40 f i NetvarManager.obj
 0001:0001eb40       ??$?0AAPA_W@?$_Compressed_pair@U?$default_delete@$$BY0A@_W@std@@PA_W$00@std@@QAE@U_Zero_then_variadic_args_t@1@AAPA_W@Z 1001fb40 f i grenadetracer.obj
 0001:0001eb70       ??$?0AAV?$basic_istream@DU?$char_traits@D@std@@@std@@@?$_Ref_count_obj2@Vinput_stream_adapter@detail@nlohmann@@@std@@QAE@AAV?$basic_istream@DU?$char_traits@D@std@@@1@@Z 1001fb70 f i Config.obj
 0001:0001ec00       ??$?0AAV?$basic_ostream@DU?$char_traits@D@std@@@std@@@?$_Ref_count_obj2@V?$output_stream_adapter@D@detail@nlohmann@@@std@@QAE@AAV?$basic_ostream@DU?$char_traits@D@std@@@1@@Z 1001fc00 f i Config.obj
 0001:0001ec90       ??$?0AAV?$basic_string@DU?$char_traits@D@std@@V?$allocator@D@2@@std@@V01@$0A@@?$basic_json@Vmap@std@@Vvector@2@V?$basic_string@DU?$char_traits@D@std@@V?$allocator@D@2@@2@_N_J_KNVallocator@2@Uadl_serializer@nlohmann@@@nlohmann@@QAE@AAV?$basic_string@DU?$char_traits@D@std@@V?$allocator@D@2@@std@@@Z 1001fc90 f i Config.obj
 0001:0001ece0       ??$?0AAVColor@@@?$_Ref_count_obj2@VColor@@@std@@QAE@AAVColor@@@Z 1001fce0 f i Config.obj
 0001:0001ed30       ??$?0AA_N_N$0A@@?$basic_json@Vmap@std@@Vvector@2@V?$basic_string@DU?$char_traits@D@std@@V?$allocator@D@2@@2@_N_J_KNVallocator@2@Uadl_serializer@nlohmann@@@nlohmann@@QAE@AA_N@Z 1001fd30 f i Config.obj
 0001:0001ed80       ??$?0ABU?$less@H@std@@U_Zero_then_variadic_args_t@1@@?$_Compressed_pair@U?$less@H@std@@V?$_Compressed_pair@V?$allocator@U?$_Tree_node@U?$pair@$$CBHPAVCWindow@@@std@@PAX@std@@@std@@V?$_Tree_val@U?$_Tree_simple_types@U?$pair@$$CBHPAVCWindow@@@std@@@std@@@2@$00@2@$00@std@@QAE@U_One_then_variadic_args_t@1@ABU?$less@H@1@$$QAU_Zero_then_variadic_args_t@1@@Z 1001fd80 f i GUI.obj
 0001:0001ed80       ??$?0ABU?$less@X@std@@U_Zero_then_variadic_args_t@1@@?$_Compressed_pair@U?$less@X@std@@V?$_Compressed_pair@V?$allocator@U?$_Tree_node@U?$pair@$$CBV?$basic_string@DU?$char_traits@D@std@@V?$allocator@D@2@@std@@V?$basic_json@Vmap@std@@Vvector@2@V?$basic_string@DU?$char_traits@D@std@@V?$allocator@D@2@@2@_N_J_KNVallocator@2@Uadl_serializer@nlohmann@@@nlohmann@@@std@@PAX@std@@@std@@V?$_Tree_val@U?$_Tree_simple_types@U?$pair@$$CBV?$basic_string@DU?$char_traits@D@std@@V?$allocator@D@2@@std@@V?$basic_json@Vmap@std@@Vvector@2@V?$basic_string@DU?$char_traits@D@std@@V?$allocator@D@2@@2@_N_J_KNVallocator@2@Uadl_serializer@nlohmann@@@nlohmann@@@std@@@std@@@2@$00@2@$00@std@@QAE@U_One_then_variadic_args_t@1@ABU?$less@X@1@$$QAU_Zero_then_variadic_args_t@1@@Z 1001fd80 f i Config.obj
 0001:0001ed80       ??$?0ABU?$less@PAX@std@@U_Zero_then_variadic_args_t@1@@?$_Compressed_pair@U?$less@PAX@std@@V?$_Compressed_pair@V?$allocator@U?$_Tree_node@U?$pair@QAXU?$pair@V?$basic_string@DU?$char_traits@D@std@@V?$allocator@D@2@@std@@V?$vector@V?$basic_string@DU?$char_traits@D@std@@V?$allocator@D@2@@std@@V?$allocator@V?$basic_string@DU?$char_traits@D@std@@V?$allocator@D@2@@std@@@2@@2@@std@@@std@@PAX@std@@@std@@V?$_Tree_val@U?$_Tree_simple_types@U?$pair@QAXU?$pair@V?$basic_string@DU?$char_traits@D@std@@V?$allocator@D@2@@std@@V?$vector@V?$basic_string@DU?$char_traits@D@std@@V?$allocator@D@2@@std@@V?$allocator@V?$basic_string@DU?$char_traits@D@std@@V?$allocator@D@2@@std@@@2@@2@@std@@@std@@@std@@@2@$00@2@$00@std@@QAE@U_One_then_variadic_args_t@1@ABU?$less@PAX@1@$$QAU_Zero_then_variadic_args_t@1@@Z 1001fd80 f i NetvarManager.obj
 0001:0001edc0       ??$?0ABUpiecewise_construct_t@std@@V?$tuple@$$QAV?$basic_string@DU?$char_traits@D@std@@V?$allocator@D@2@@std@@@1@V?$tuple@$$V@1@@?$_Tree_temp_node@V?$allocator@U?$_Tree_node@U?$pair@$$CBV?$basic_string@DU?$char_traits@D@std@@V?$allocator@D@2@@std@@V?$basic_json@Vmap@std@@Vvector@2@V?$basic_string@DU?$char_traits@D@std@@V?$allocator@D@2@@2@_N_J_KNVallocator@2@Uadl_serializer@nlohmann@@@nlohmann@@@std@@PAX@std@@@std@@@std@@QAE@AAV?$allocator@U?$_Tree_node@U?$pair@$$CBV?$basic_string@DU?$char_traits@D@std@@V?$allocator@D@2@@std@@V?$basic_json@Vmap@std@@Vvector@2@V?$basic_string@DU?$char_traits@D@std@@V?$allocator@D@2@@2@_N_J_KNVallocator@2@Uadl_serializer@nlohmann@@@nlohmann@@@std@@PAX@std@@@1@PAU?$_Tree_node@U?$pair@$$CBV?$basic_string@DU?$char_traits@D@std@@V?$allocator@D@2@@std@@V?$basic_json@Vmap@std@@Vvector@2@V?$basic_string@DU?$char_traits@D@std@@V?$allocator@D@2@@2@_N_J_KNVallocator@2@Uadl_serializer@nlohmann@@@nlohmann@@@std@@PAX@1@ABUpiecewise_construct_t@1@$$QAV?$tuple@$$QAV?$basic_string@DU?$char_traits@D@std@@V?$allocator@D@2@@std@@@1@$$QAV?$tuple@$$V@1@@Z 1001fdc0 f i Config.obj
 0001:0001eed0       ??$?0ABUpiecewise_construct_t@std@@V?$tuple@ABV?$basic_string@DU?$char_traits@D@std@@V?$allocator@D@2@@std@@@1@V?$tuple@$$V@1@@?$_Tree_temp_node@V?$allocator@U?$_Tree_node@U?$pair@$$CBV?$basic_string@DU?$char_traits@D@std@@V?$allocator@D@2@@std@@V?$basic_json@Vmap@std@@Vvector@2@V?$basic_string@DU?$char_traits@D@std@@V?$allocator@D@2@@2@_N_J_KNVallocator@2@Uadl_serializer@nlohmann@@@nlohmann@@@std@@PAX@std@@@std@@@std@@QAE@AAV?$allocator@U?$_Tree_node@U?$pair@$$CBV?$basic_string@DU?$char_traits@D@std@@V?$allocator@D@2@@std@@V?$basic_json@Vmap@std@@Vvector@2@V?$basic_string@DU?$char_traits@D@std@@V?$allocator@D@2@@2@_N_J_KNVallocator@2@Uadl_serializer@nlohmann@@@nlohmann@@@std@@PAX@std@@@1@PAU?$_Tree_node@U?$pair@$$CBV?$basic_string@DU?$char_traits@D@std@@V?$allocator@D@2@@std@@V?$basic_json@Vmap@std@@Vvector@2@V?$basic_string@DU?$char_traits@D@std@@V?$allocator@D@2@@2@_N_J_KNVallocator@2@Uadl_serializer@nlohmann@@@nlohmann@@@std@@PAX@1@ABUpiecewise_construct_t@1@$$QAV?$tuple@ABV?$basic_string@DU?$char_traits@D@std@@V?$allocator@D@2@@std@@@1@$$QAV?$tuple@$$V@1@@Z 1001fed0 f i Config.obj
 0001:0001efe0       ??$?0ABV<lambda_1>@?1???$create@V?$vector@V?$basic_json@Vmap@std@@Vvector@2@V?$basic_string@DU?$char_traits@D@std@@V?$allocator@D@2@@2@_N_J_KNVallocator@2@Uadl_serializer@nlohmann@@@nlohmann@@V?$allocator@V?$basic_json@Vmap@std@@Vvector@2@V?$basic_string@DU?$char_traits@D@std@@V?$allocator@D@2@@2@_N_J_KNVallocator@2@Uadl_serializer@nlohmann@@@nlohmann@@@std@@@std@@$$V@?$basic_json@Vmap@std@@Vvector@2@V?$basic_string@DU?$char_traits@D@std@@V?$allocator@D@2@@2@_N_J_KNVallocator@2@Uadl_serializer@nlohmann@@@nlohmann@@CAPAV?$vector@V?$basic_json@Vmap@std@@Vvector@2@V?$basic_string@DU?$char_traits@D@std@@V?$allocator@D@2@@2@_N_J_KNVallocator@2@Uadl_serializer@nlohmann@@@nlohmann@@V?$allocator@V?$basic_json@Vmap@std@@Vvector@2@V?$basic_string@DU?$char_traits@D@std@@V?$allocator@D@2@@2@_N_J_KNVallocator@2@Uadl_serializer@nlohmann@@@nlohmann@@@std@@@std@@XZ@AAPAV34@@?$_Compressed_pair@V<lambda_1>@?1???$create@V?$vector@V?$basic_json@Vmap@std@@Vvector@2@V?$basic_string@DU?$char_traits@D@std@@V?$allocator@D@2@@2@_N_J_KNVallocator@2@Uadl_serializer@nlohmann@@@nlohmann@@V?$allocator@V?$basic_json@Vmap@std@@Vvector@2@V?$basic_string@DU?$char_traits@D@std@@V?$allocator@D@2@@2@_N_J_KNVallocator@2@Uadl_serializer@nlohmann@@@nlohmann@@@std@@@std@@$$V@?$basic_json@Vmap@std@@Vvector@2@V?$basic_string@DU?$char_traits@D@std@@V?$allocator@D@2@@2@_N_J_KNVallocator@2@Uadl_serializer@nlohmann@@@nlohmann@@CAPAV?$vector@V?$basic_json@Vmap@std@@Vvector@2@V?$basic_string@DU?$char_traits@D@std@@V?$allocator@D@2@@2@_N_J_KNVallocator@2@Uadl_serializer@nlohmann@@@nlohmann@@V?$allocator@V?$basic_json@Vmap@std@@Vvector@2@V?$basic_string@DU?$char_traits@D@std@@V?$allocator@D@2@@2@_N_J_KNVallocator@2@Uadl_serializer@nlohmann@@@nlohmann@@@std@@@std@@XZ@PAV45@$0A@@std@@QAE@U_One_then_variadic_args_t@1@ABV<lambda_1>@?1???$create@V?$vector@V?$basic_json@Vmap@std@@Vvector@2@V?$basic_string@DU?$char_traits@D@std@@V?$allocator@D@2@@2@_N_J_KNVallocator@2@Uadl_serializer@nlohmann@@@nlohmann@@V?$allocator@V?$basic_json@Vmap@std@@Vvector@2@V?$basic_string@DU?$char_traits@D@std@@V?$allocator@D@2@@2@_N_J_KNVallocator@2@Uadl_serializer@nlohmann@@@nlohmann@@@std@@@std@@$$V@?$basic_json@Vmap@std@@Vvector@2@V?$basic_string@DU?$char_traits@D@std@@V?$allocator@D@2@@2@_N_J_KNVallocator@2@Uadl_serializer@nlohmann@@@nlohmann@@CAPAV?$vector@V?$basic_json@Vmap@std@@Vvector@2@V?$basic_string@DU?$char_traits@D@std@@V?$allocator@D@2@@2@_N_J_KNVallocator@2@Uadl_serializer@nlohmann@@@nlohmann@@V?$allocator@V?$basic_json@Vmap@std@@Vvector@2@V?$basic_string@DU?$char_traits@D@std@@V?$allocator@D@2@@2@_N_J_KNVallocator@2@Uadl_serializer@nlohmann@@@nlohmann@@@std@@@1@XZ@AAPAV61@@Z 1001ffe0 f i Config.obj
 0001:0001efe0       ??$?0ABV<lambda_1>@?1???$create@V?$basic_string@DU?$char_traits@D@std@@V?$allocator@D@2@@std@@AAY00$$CBD@?$basic_json@Vmap@std@@Vvector@2@V?$basic_string@DU?$char_traits@D@std@@V?$allocator@D@2@@2@_N_J_KNVallocator@2@Uadl_serializer@nlohmann@@@nlohmann@@CAPAV?$basic_string@DU?$char_traits@D@std@@V?$allocator@D@2@@std@@AAY00$$CBD@Z@AAPAV34@@?$_Compressed_pair@V<lambda_1>@?1???$create@V?$basic_string@DU?$char_traits@D@std@@V?$allocator@D@2@@std@@AAY00$$CBD@?$basic_json@Vmap@std@@Vvector@2@V?$basic_string@DU?$char_traits@D@std@@V?$allocator@D@2@@2@_N_J_KNVallocator@2@Uadl_serializer@nlohmann@@@nlohmann@@CAPAV?$basic_string@DU?$char_traits@D@std@@V?$allocator@D@2@@std@@AAY00$$CBD@Z@PAV45@$0A@@std@@QAE@U_One_then_variadic_args_t@1@ABV<lambda_1>@?1???$create@V?$basic_string@DU?$char_traits@D@std@@V?$allocator@D@2@@std@@AAY00$$CBD@?$basic_json@Vmap@std@@Vvector@2@V?$basic_string@DU?$char_traits@D@std@@V?$allocator@D@2@@2@_N_J_KNVallocator@2@Uadl_serializer@nlohmann@@@nlohmann@@CAPAV?$basic_string@DU?$char_traits@D@std@@V?$allocator@D@2@@1@AAY00$$CBD@Z@AAPAV61@@Z 1001ffe0 f i Config.obj
 0001:0001efe0       ??$?0ABV<lambda_1>@?1???$create@V?$basic_string@DU?$char_traits@D@std@@V?$allocator@D@2@@std@@AAY0PP@$$CBD@?$basic_json@Vmap@std@@Vvector@2@V?$basic_string@DU?$char_traits@D@std@@V?$allocator@D@2@@2@_N_J_KNVallocator@2@Uadl_serializer@nlohmann@@@nlohmann@@CAPAV?$basic_string@DU?$char_traits@D@std@@V?$allocator@D@2@@std@@AAY0PP@$$CBD@Z@AAPAV34@@?$_Compressed_pair@V<lambda_1>@?1???$create@V?$basic_string@DU?$char_traits@D@std@@V?$allocator@D@2@@std@@AAY0PP@$$CBD@?$basic_json@Vmap@std@@Vvector@2@V?$basic_string@DU?$char_traits@D@std@@V?$allocator@D@2@@2@_N_J_KNVallocator@2@Uadl_serializer@nlohmann@@@nlohmann@@CAPAV?$basic_string@DU?$char_traits@D@std@@V?$allocator@D@2@@std@@AAY0PP@$$CBD@Z@PAV45@$0A@@std@@QAE@U_One_then_variadic_args_t@1@ABV<lambda_1>@?1???$create@V?$basic_string@DU?$char_traits@D@std@@V?$allocator@D@2@@std@@AAY0PP@$$CBD@?$basic_json@Vmap@std@@Vvector@2@V?$basic_string@DU?$char_traits@D@std@@V?$allocator@D@2@@2@_N_J_KNVallocator@2@Uadl_serializer@nlohmann@@@nlohmann@@CAPAV?$basic_string@DU?$char_traits@D@std@@V?$allocator@D@2@@1@AAY0PP@$$CBD@Z@AAPAV61@@Z 1001ffe0 f i tab_Login.obj
 0001:0001efe0       ??$?0ABV<lambda_1>@?1???$create@V?$vector@V?$basic_json@Vmap@std@@Vvector@2@V?$basic_string@DU?$char_traits@D@std@@V?$allocator@D@2@@2@_N_J_KNVallocator@2@Uadl_serializer@nlohmann@@@nlohmann@@V?$allocator@V?$basic_json@Vmap@std@@Vvector@2@V?$basic_string@DU?$char_traits@D@std@@V?$allocator@D@2@@2@_N_J_KNVallocator@2@Uadl_serializer@nlohmann@@@nlohmann@@@std@@@std@@PBV?$json_ref@V?$basic_json@Vmap@std@@Vvector@2@V?$basic_string@DU?$char_traits@D@std@@V?$allocator@D@2@@2@_N_J_KNVallocator@2@Uadl_serializer@nlohmann@@@nlohmann@@@detail@nlohmann@@PBV345@@?$basic_json@Vmap@std@@Vvector@2@V?$basic_string@DU?$char_traits@D@std@@V?$allocator@D@2@@2@_N_J_KNVallocator@2@Uadl_serializer@nlohmann@@@nlohmann@@CAPAV?$vector@V?$basic_json@Vmap@std@@Vvector@2@V?$basic_string@DU?$char_traits@D@std@@V?$allocator@D@2@@2@_N_J_KNVallocator@2@Uadl_serializer@nlohmann@@@nlohmann@@V?$allocator@V?$basic_json@Vmap@std@@Vvector@2@V?$basic_string@DU?$char_traits@D@std@@V?$allocator@D@2@@2@_N_J_KNVallocator@2@Uadl_serializer@nlohmann@@@nlohmann@@@std@@@std@@$$QAPBV?$json_ref@V?$basic_json@Vmap@std@@Vvector@2@V?$basic_string@DU?$char_traits@D@std@@V?$allocator@D@2@@2@_N_J_KNVallocator@2@Uadl_serializer@nlohmann@@@nlohmann@@@detail@2@0@Z@AAPAV34@@?$_Compressed_pair@V<lambda_1>@?1???$create@V?$vector@V?$basic_json@Vmap@std@@Vvector@2@V?$basic_string@DU?$char_traits@D@std@@V?$allocator@D@2@@2@_N_J_KNVallocator@2@Uadl_serializer@nlohmann@@@nlohmann@@V?$allocator@V?$basic_json@Vmap@std@@Vvector@2@V?$basic_string@DU?$char_traits@D@std@@V?$allocator@D@2@@2@_N_J_KNVallocator@2@Uadl_serializer@nlohmann@@@nlohmann@@@std@@@std@@PBV?$json_ref@V?$basic_json@Vmap@std@@Vvector@2@V?$basic_string@DU?$char_traits@D@std@@V?$allocator@D@2@@2@_N_J_KNVallocator@2@Uadl_serializer@nlohmann@@@nlohmann@@@detail@nlohmann@@PBV345@@?$basic_json@Vmap@std@@Vvector@2@V?$basic_string@DU?$char_traits@D@std@@V?$allocator@D@2@@2@_N_J_KNVallocator@2@Uadl_serializer@nlohmann@@@nlohmann@@CAPAV?$vector@V?$basic_json@Vmap@std@@Vvector@2@V?$basic_string@DU?$char_traits@D@std@@V?$allocator@D@2@@2@_N_J_KNVallocator@2@Uadl_serializer@nlohmann@@@nlohmann@@V?$allocator@V?$basic_json@Vmap@std@@Vvector@2@V?$basic_string@DU?$char_traits@D@std@@V?$allocator@D@2@@2@_N_J_KNVallocator@2@Uadl_serializer@nlohmann@@@nlohmann@@@std@@@std@@$$QAPBV?$json_ref@V?$basic_json@Vmap@std@@Vvector@2@V?$basic_string@DU?$char_traits@D@std@@V?$allocator@D@2@@2@_N_J_KNVallocator@2@Uadl_serializer@nlohmann@@@nlohmann@@@detail@3@0@Z@PAV45@$0A@@std@@QAE@U_One_then_variadic_args_t@1@ABV<lambda_1>@?1???$create@V?$vector@V?$basic_json@Vmap@std@@Vvector@2@V?$basic_string@DU?$char_traits@D@std@@V?$allocator@D@2@@2@_N_J_KNVallocator@2@Uadl_serializer@nlohmann@@@nlohmann@@V?$allocator@V?$basic_json@Vmap@std@@Vvector@2@V?$basic_string@DU?$char_traits@D@std@@V?$allocator@D@2@@2@_N_J_KNVallocator@2@Uadl_serializer@nlohmann@@@nlohmann@@@std@@@std@@PBV?$json_ref@V?$basic_json@Vmap@std@@Vvector@2@V?$basic_string@DU?$char_traits@D@std@@V?$allocator@D@2@@2@_N_J_KNVallocator@2@Uadl_serializer@nlohmann@@@nlohmann@@@detail@nlohmann@@PBV345@@?$basic_json@Vmap@std@@Vvector@2@V?$basic_string@DU?$char_traits@D@std@@V?$allocator@D@2@@2@_N_J_KNVallocator@2@Uadl_serializer@nlohmann@@@nlohmann@@CAPAV?$vector@V?$basic_json@Vmap@std@@Vvector@2@V?$basic_string@DU?$char_traits@D@std@@V?$allocator@D@2@@2@_N_J_KNVallocator@2@Uadl_serializer@nlohmann@@@nlohmann@@V?$allocator@V?$basic_json@Vmap@std@@Vvector@2@V?$basic_string@DU?$char_traits@D@std@@V?$allocator@D@2@@2@_N_J_KNVallocator@2@Uadl_serializer@nlohmann@@@nlohmann@@@std@@@1@$$QAPBV?$json_ref@V?$basic_json@Vmap@std@@Vvector@2@V?$basic_string@DU?$char_traits@D@std@@V?$allocator@D@2@@2@_N_J_KNVallocator@2@Uadl_serializer@nlohmann@@@nlohmann@@@detail@5@1@Z@AAPAV61@@Z 1001ffe0 f i tab_Login.obj
 0001:0001efe0       ??$?0ABV<lambda_1>@?1???$create@V?$basic_string@DU?$char_traits@D@std@@V?$allocator@D@2@@std@@V12@@?$basic_json@Vmap@std@@Vvector@2@V?$basic_string@DU?$char_traits@D@std@@V?$allocator@D@2@@2@_N_J_KNVallocator@2@Uadl_serializer@nlohmann@@@nlohmann@@CAPAV?$basic_string@DU?$char_traits@D@std@@V?$allocator@D@2@@std@@$$QAV34@@Z@AAPAV34@@?$_Compressed_pair@V<lambda_1>@?1???$create@V?$basic_string@DU?$char_traits@D@std@@V?$allocator@D@2@@std@@V12@@?$basic_json@Vmap@std@@Vvector@2@V?$basic_string@DU?$char_traits@D@std@@V?$allocator@D@2@@2@_N_J_KNVallocator@2@Uadl_serializer@nlohmann@@@nlohmann@@CAPAV?$basic_string@DU?$char_traits@D@std@@V?$allocator@D@2@@std@@$$QAV45@@Z@PAV45@$0A@@std@@QAE@U_One_then_variadic_args_t@1@ABV<lambda_1>@?1???$create@V?$basic_string@DU?$char_traits@D@std@@V?$allocator@D@2@@std@@V12@@?$basic_json@Vmap@std@@Vvector@2@V?$basic_string@DU?$char_traits@D@std@@V?$allocator@D@2@@2@_N_J_KNVallocator@2@Uadl_serializer@nlohmann@@@nlohmann@@CAPAV?$basic_string@DU?$char_traits@D@std@@V?$allocator@D@2@@1@$$QAV61@@Z@AAPAV61@@Z 1001ffe0 f i Config.obj
 0001:0001efe0       ??$?0ABV<lambda_1>@?1???$create@V?$map@V?$basic_string@DU?$char_traits@D@std@@V?$allocator@D@2@@std@@V?$basic_json@Vmap@std@@Vvector@2@V?$basic_string@DU?$char_traits@D@std@@V?$allocator@D@2@@2@_N_J_KNVallocator@2@Uadl_serializer@nlohmann@@@nlohmann@@U?$less@X@2@V?$allocator@U?$pair@$$CBV?$basic_string@DU?$char_traits@D@std@@V?$allocator@D@2@@std@@V?$basic_json@Vmap@std@@Vvector@2@V?$basic_string@DU?$char_traits@D@std@@V?$allocator@D@2@@2@_N_J_KNVallocator@2@Uadl_serializer@nlohmann@@@nlohmann@@@std@@@2@@std@@ABV12@@?$basic_json@Vmap@std@@Vvector@2@V?$basic_string@DU?$char_traits@D@std@@V?$allocator@D@2@@2@_N_J_KNVallocator@2@Uadl_serializer@nlohmann@@@nlohmann@@CAPAV?$map@V?$basic_string@DU?$char_traits@D@std@@V?$allocator@D@2@@std@@V?$basic_json@Vmap@std@@Vvector@2@V?$basic_string@DU?$char_traits@D@std@@V?$allocator@D@2@@2@_N_J_KNVallocator@2@Uadl_serializer@nlohmann@@@nlohmann@@U?$less@X@2@V?$allocator@U?$pair@$$CBV?$basic_string@DU?$char_traits@D@std@@V?$allocator@D@2@@std@@V?$basic_json@Vmap@std@@Vvector@2@V?$basic_string@DU?$char_traits@D@std@@V?$allocator@D@2@@2@_N_J_KNVallocator@2@Uadl_serializer@nlohmann@@@nlohmann@@@std@@@2@@std@@ABV34@@Z@AAPAV34@@?$_Compressed_pair@V<lambda_1>@?1???$create@V?$map@V?$basic_string@DU?$char_traits@D@std@@V?$allocator@D@2@@std@@V?$basic_json@Vmap@std@@Vvector@2@V?$basic_string@DU?$char_traits@D@std@@V?$allocator@D@2@@2@_N_J_KNVallocator@2@Uadl_serializer@nlohmann@@@nlohmann@@U?$less@X@2@V?$allocator@U?$pair@$$CBV?$basic_string@DU?$char_traits@D@std@@V?$allocator@D@2@@std@@V?$basic_json@Vmap@std@@Vvector@2@V?$basic_string@DU?$char_traits@D@std@@V?$allocator@D@2@@2@_N_J_KNVallocator@2@Uadl_serializer@nlohmann@@@nlohmann@@@std@@@2@@std@@ABV12@@?$basic_json@Vmap@std@@Vvector@2@V?$basic_string@DU?$char_traits@D@std@@V?$allocator@D@2@@2@_N_J_KNVallocator@2@Uadl_serializer@nlohmann@@@nlohmann@@CAPAV?$map@V?$basic_string@DU?$char_traits@D@std@@V?$allocator@D@2@@std@@V?$basic_json@Vmap@std@@Vvector@2@V?$basic_string@DU?$char_traits@D@std@@V?$allocator@D@2@@2@_N_J_KNVallocator@2@Uadl_serializer@nlohmann@@@nlohmann@@U?$less@X@2@V?$allocator@U?$pair@$$CBV?$basic_string@DU?$char_traits@D@std@@V?$allocator@D@2@@std@@V?$basic_json@Vmap@std@@Vvector@2@V?$basic_string@DU?$char_traits@D@std@@V?$allocator@D@2@@2@_N_J_KNVallocator@2@Uadl_serializer@nlohmann@@@nlohmann@@@std@@@2@@std@@ABV45@@Z@PAV45@$0A@@std@@QAE@U_One_then_variadic_args_t@1@ABV<lambda_1>@?1???$create@V?$map@V?$basic_string@DU?$char_traits@D@std@@V?$allocator@D@2@@std@@V?$basic_json@Vmap@std@@Vvector@2@V?$basic_string@DU?$char_traits@D@std@@V?$allocator@D@2@@2@_N_J_KNVallocator@2@Uadl_serializer@nlohmann@@@nlohmann@@U?$less@X@2@V?$allocator@U?$pair@$$CBV?$basic_string@DU?$char_traits@D@std@@V?$allocator@D@2@@std@@V?$basic_json@Vmap@std@@Vvector@2@V?$basic_string@DU?$char_traits@D@std@@V?$allocator@D@2@@2@_N_J_KNVallocator@2@Uadl_serializer@nlohmann@@@nlohmann@@@std@@@2@@std@@ABV12@@?$basic_json@Vmap@std@@Vvector@2@V?$basic_string@DU?$char_traits@D@std@@V?$allocator@D@2@@2@_N_J_KNVallocator@2@Uadl_serializer@nlohmann@@@nlohmann@@CAPAV?$map@V?$basic_string@DU?$char_traits@D@std@@V?$allocator@D@2@@std@@V?$basic_json@Vmap@std@@Vvector@2@V?$basic_string@DU?$char_traits@D@std@@V?$allocator@D@2@@2@_N_J_KNVallocator@2@Uadl_serializer@nlohmann@@@nlohmann@@U?$less@X@2@V?$allocator@U?$pair@$$CBV?$basic_string@DU?$char_traits@D@std@@V?$allocator@D@2@@std@@V?$basic_json@Vmap@std@@Vvector@2@V?$basic_string@DU?$char_traits@D@std@@V?$allocator@D@2@@2@_N_J_KNVallocator@2@Uadl_serializer@nlohmann@@@nlohmann@@@std@@@2@@1@ABV61@@Z@AAPAV61@@Z 1001ffe0 f i tab_Login.obj
 0001:0001efe0       ??$?0ABV<lambda_1>@?1???$create@V?$basic_string@DU?$char_traits@D@std@@V?$allocator@D@2@@std@@AAY04$$CBD@?$basic_json@Vmap@std@@Vvector@2@V?$basic_string@DU?$char_traits@D@std@@V?$allocator@D@2@@2@_N_J_KNVallocator@2@Uadl_serializer@nlohmann@@@nlohmann@@CAPAV?$basic_string@DU?$char_traits@D@std@@V?$allocator@D@2@@std@@AAY04$$CBD@Z@AAPAV34@@?$_Compressed_pair@V<lambda_1>@?1???$create@V?$basic_string@DU?$char_traits@D@std@@V?$allocator@D@2@@std@@AAY04$$CBD@?$basic_json@Vmap@std@@Vvector@2@V?$basic_string@DU?$char_traits@D@std@@V?$allocator@D@2@@2@_N_J_KNVallocator@2@Uadl_serializer@nlohmann@@@nlohmann@@CAPAV?$basic_string@DU?$char_traits@D@std@@V?$allocator@D@2@@std@@AAY04$$CBD@Z@PAV45@$0A@@std@@QAE@U_One_then_variadic_args_t@1@ABV<lambda_1>@?1???$create@V?$basic_string@DU?$char_traits@D@std@@V?$allocator@D@2@@std@@AAY04$$CBD@?$basic_json@Vmap@std@@Vvector@2@V?$basic_string@DU?$char_traits@D@std@@V?$allocator@D@2@@2@_N_J_KNVallocator@2@Uadl_serializer@nlohmann@@@nlohmann@@CAPAV?$basic_string@DU?$char_traits@D@std@@V?$allocator@D@2@@1@AAY04$$CBD@Z@AAPAV61@@Z 1001ffe0 f i tab_Login.obj
 0001:0001efe0       ??$?0ABV<lambda_1>@?1???$create@V?$vector@V?$basic_json@Vmap@std@@Vvector@2@V?$basic_string@DU?$char_traits@D@std@@V?$allocator@D@2@@2@_N_J_KNVallocator@2@Uadl_serializer@nlohmann@@@nlohmann@@V?$allocator@V?$basic_json@Vmap@std@@Vvector@2@V?$basic_string@DU?$char_traits@D@std@@V?$allocator@D@2@@2@_N_J_KNVallocator@2@Uadl_serializer@nlohmann@@@nlohmann@@@std@@@std@@ABV12@@?$basic_json@Vmap@std@@Vvector@2@V?$basic_string@DU?$char_traits@D@std@@V?$allocator@D@2@@2@_N_J_KNVallocator@2@Uadl_serializer@nlohmann@@@nlohmann@@CAPAV?$vector@V?$basic_json@Vmap@std@@Vvector@2@V?$basic_string@DU?$char_traits@D@std@@V?$allocator@D@2@@2@_N_J_KNVallocator@2@Uadl_serializer@nlohmann@@@nlohmann@@V?$allocator@V?$basic_json@Vmap@std@@Vvector@2@V?$basic_string@DU?$char_traits@D@std@@V?$allocator@D@2@@2@_N_J_KNVallocator@2@Uadl_serializer@nlohmann@@@nlohmann@@@std@@@std@@ABV34@@Z@AAPAV34@@?$_Compressed_pair@V<lambda_1>@?1???$create@V?$vector@V?$basic_json@Vmap@std@@Vvector@2@V?$basic_string@DU?$char_traits@D@std@@V?$allocator@D@2@@2@_N_J_KNVallocator@2@Uadl_serializer@nlohmann@@@nlohmann@@V?$allocator@V?$basic_json@Vmap@std@@Vvector@2@V?$basic_string@DU?$char_traits@D@std@@V?$allocator@D@2@@2@_N_J_KNVallocator@2@Uadl_serializer@nlohmann@@@nlohmann@@@std@@@std@@ABV12@@?$basic_json@Vmap@std@@Vvector@2@V?$basic_string@DU?$char_traits@D@std@@V?$allocator@D@2@@2@_N_J_KNVallocator@2@Uadl_serializer@nlohmann@@@nlohmann@@CAPAV?$vector@V?$basic_json@Vmap@std@@Vvector@2@V?$basic_string@DU?$char_traits@D@std@@V?$allocator@D@2@@2@_N_J_KNVallocator@2@Uadl_serializer@nlohmann@@@nlohmann@@V?$allocator@V?$basic_json@Vmap@std@@Vvector@2@V?$basic_string@DU?$char_traits@D@std@@V?$allocator@D@2@@2@_N_J_KNVallocator@2@Uadl_serializer@nlohmann@@@nlohmann@@@std@@@std@@ABV45@@Z@PAV45@$0A@@std@@QAE@U_One_then_variadic_args_t@1@ABV<lambda_1>@?1???$create@V?$vector@V?$basic_json@Vmap@std@@Vvector@2@V?$basic_string@DU?$char_traits@D@std@@V?$allocator@D@2@@2@_N_J_KNVallocator@2@Uadl_serializer@nlohmann@@@nlohmann@@V?$allocator@V?$basic_json@Vmap@std@@Vvector@2@V?$basic_string@DU?$char_traits@D@std@@V?$allocator@D@2@@2@_N_J_KNVallocator@2@Uadl_serializer@nlohmann@@@nlohmann@@@std@@@std@@ABV12@@?$basic_json@Vmap@std@@Vvector@2@V?$basic_string@DU?$char_traits@D@std@@V?$allocator@D@2@@2@_N_J_KNVallocator@2@Uadl_serializer@nlohmann@@@nlohmann@@CAPAV?$vector@V?$basic_json@Vmap@std@@Vvector@2@V?$basic_string@DU?$char_traits@D@std@@V?$allocator@D@2@@2@_N_J_KNVallocator@2@Uadl_serializer@nlohmann@@@nlohmann@@V?$allocator@V?$basic_json@Vmap@std@@Vvector@2@V?$basic_string@DU?$char_traits@D@std@@V?$allocator@D@2@@2@_N_J_KNVallocator@2@Uadl_serializer@nlohmann@@@nlohmann@@@std@@@1@ABV61@@Z@AAPAV61@@Z 1001ffe0 f i tab_Login.obj
 0001:0001efe0       ??$?0ABV<lambda_1>@?1???$create@V?$map@V?$basic_string@DU?$char_traits@D@std@@V?$allocator@D@2@@std@@V?$basic_json@Vmap@std@@Vvector@2@V?$basic_string@DU?$char_traits@D@std@@V?$allocator@D@2@@2@_N_J_KNVallocator@2@Uadl_serializer@nlohmann@@@nlohmann@@U?$less@X@2@V?$allocator@U?$pair@$$CBV?$basic_string@DU?$char_traits@D@std@@V?$allocator@D@2@@std@@V?$basic_json@Vmap@std@@Vvector@2@V?$basic_string@DU?$char_traits@D@std@@V?$allocator@D@2@@2@_N_J_KNVallocator@2@Uadl_serializer@nlohmann@@@nlohmann@@@std@@@2@@std@@$$V@?$basic_json@Vmap@std@@Vvector@2@V?$basic_string@DU?$char_traits@D@std@@V?$allocator@D@2@@2@_N_J_KNVallocator@2@Uadl_serializer@nlohmann@@@nlohmann@@CAPAV?$map@V?$basic_string@DU?$char_traits@D@std@@V?$allocator@D@2@@std@@V?$basic_json@Vmap@std@@Vvector@2@V?$basic_string@DU?$char_traits@D@std@@V?$allocator@D@2@@2@_N_J_KNVallocator@2@Uadl_serializer@nlohmann@@@nlohmann@@U?$less@X@2@V?$allocator@U?$pair@$$CBV?$basic_string@DU?$char_traits@D@std@@V?$allocator@D@2@@std@@V?$basic_json@Vmap@std@@Vvector@2@V?$basic_string@DU?$char_traits@D@std@@V?$allocator@D@2@@2@_N_J_KNVallocator@2@Uadl_serializer@nlohmann@@@nlohmann@@@std@@@2@@std@@XZ@AAPAV34@@?$_Compressed_pair@V<lambda_1>@?1???$create@V?$map@V?$basic_string@DU?$char_traits@D@std@@V?$allocator@D@2@@std@@V?$basic_json@Vmap@std@@Vvector@2@V?$basic_string@DU?$char_traits@D@std@@V?$allocator@D@2@@2@_N_J_KNVallocator@2@Uadl_serializer@nlohmann@@@nlohmann@@U?$less@X@2@V?$allocator@U?$pair@$$CBV?$basic_string@DU?$char_traits@D@std@@V?$allocator@D@2@@std@@V?$basic_json@Vmap@std@@Vvector@2@V?$basic_string@DU?$char_traits@D@std@@V?$allocator@D@2@@2@_N_J_KNVallocator@2@Uadl_serializer@nlohmann@@@nlohmann@@@std@@@2@@std@@$$V@?$basic_json@Vmap@std@@Vvector@2@V?$basic_string@DU?$char_traits@D@std@@V?$allocator@D@2@@2@_N_J_KNVallocator@2@Uadl_serializer@nlohmann@@@nlohmann@@CAPAV?$map@V?$basic_string@DU?$char_traits@D@std@@V?$allocator@D@2@@std@@V?$basic_json@Vmap@std@@Vvector@2@V?$basic_string@DU?$char_traits@D@std@@V?$allocator@D@2@@2@_N_J_KNVallocator@2@Uadl_serializer@nlohmann@@@nlohmann@@U?$less@X@2@V?$allocator@U?$pair@$$CBV?$basic_string@DU?$char_traits@D@std@@V?$allocator@D@2@@std@@V?$basic_json@Vmap@std@@Vvector@2@V?$basic_string@DU?$char_traits@D@std@@V?$allocator@D@2@@2@_N_J_KNVallocator@2@Uadl_serializer@nlohmann@@@nlohmann@@@std@@@2@@std@@XZ@PAV45@$0A@@std@@QAE@U_One_then_variadic_args_t@1@ABV<lambda_1>@?1???$create@V?$map@V?$basic_string@DU?$char_traits@D@std@@V?$allocator@D@2@@std@@V?$basic_json@Vmap@std@@Vvector@2@V?$basic_string@DU?$char_traits@D@std@@V?$allocator@D@2@@2@_N_J_KNVallocator@2@Uadl_serializer@nlohmann@@@nlohmann@@U?$less@X@2@V?$allocator@U?$pair@$$CBV?$basic_string@DU?$char_traits@D@std@@V?$allocator@D@2@@std@@V?$basic_json@Vmap@std@@Vvector@2@V?$basic_string@DU?$char_traits@D@std@@V?$allocator@D@2@@2@_N_J_KNVallocator@2@Uadl_serializer@nlohmann@@@nlohmann@@@std@@@2@@std@@$$V@?$basic_json@Vmap@std@@Vvector@2@V?$basic_string@DU?$char_traits@D@std@@V?$allocator@D@2@@2@_N_J_KNVallocator@2@Uadl_serializer@nlohmann@@@nlohmann@@CAPAV?$map@V?$basic_string@DU?$char_traits@D@std@@V?$allocator@D@2@@std@@V?$basic_json@Vmap@std@@Vvector@2@V?$basic_string@DU?$char_traits@D@std@@V?$allocator@D@2@@2@_N_J_KNVallocator@2@Uadl_serializer@nlohmann@@@nlohmann@@U?$less@X@2@V?$allocator@U?$pair@$$CBV?$basic_string@DU?$char_traits@D@std@@V?$allocator@D@2@@std@@V?$basic_json@Vmap@std@@Vvector@2@V?$basic_string@DU?$char_traits@D@std@@V?$allocator@D@2@@2@_N_J_KNVallocator@2@Uadl_serializer@nlohmann@@@nlohmann@@@std@@@2@@1@XZ@AAPAV61@@Z 1001ffe0 f i Config.obj
 0001:0001efe0       ??$?0ABV<lambda_1>@?1???$create@V?$basic_string@DU?$char_traits@D@std@@V?$allocator@D@2@@std@@ABV12@@?$basic_json@Vmap@std@@Vvector@2@V?$basic_string@DU?$char_traits@D@std@@V?$allocator@D@2@@2@_N_J_KNVallocator@2@Uadl_serializer@nlohmann@@@nlohmann@@CAPAV?$basic_string@DU?$char_traits@D@std@@V?$allocator@D@2@@std@@ABV34@@Z@AAPAV34@@?$_Compressed_pair@V<lambda_1>@?1???$create@V?$basic_string@DU?$char_traits@D@std@@V?$allocator@D@2@@std@@ABV12@@?$basic_json@Vmap@std@@Vvector@2@V?$basic_string@DU?$char_traits@D@std@@V?$allocator@D@2@@2@_N_J_KNVallocator@2@Uadl_serializer@nlohmann@@@nlohmann@@CAPAV?$basic_string@DU?$char_traits@D@std@@V?$allocator@D@2@@std@@ABV45@@Z@PAV45@$0A@@std@@QAE@U_One_then_variadic_args_t@1@ABV<lambda_1>@?1???$create@V?$basic_string@DU?$char_traits@D@std@@V?$allocator@D@2@@std@@ABV12@@?$basic_json@Vmap@std@@Vvector@2@V?$basic_string@DU?$char_traits@D@std@@V?$allocator@D@2@@2@_N_J_KNVallocator@2@Uadl_serializer@nlohmann@@@nlohmann@@CAPAV?$basic_string@DU?$char_traits@D@std@@V?$allocator@D@2@@1@ABV61@@Z@AAPAV61@@Z 1001ffe0 f i Config.obj
 0001:0001f020       ??$?0ABV?$allocator@D@std@@$$V@?$_Compressed_pair@V?$allocator@D@std@@V?$_String_val@U?$_Simple_types@D@std@@@2@$00@std@@QAE@U_One_then_variadic_args_t@1@ABV?$allocator@D@1@@Z 10020020 f i Config.obj
 0001:0001f020       ??$?0V?$allocator@D@std@@$$V@?$_Compressed_pair@V?$allocator@D@std@@V?$_String_val@U?$_Simple_types@D@std@@@2@$00@std@@QAE@U_One_then_variadic_args_t@1@$$QAV?$allocator@D@1@@Z 10020020 f i Config.obj
 0001:0001f020       ??$?0ABV?$allocator@_W@std@@$$V@?$_Compressed_pair@V?$allocator@_W@std@@V?$_String_val@U?$_Simple_types@_W@std@@@2@$00@std@@QAE@U_One_then_variadic_args_t@1@ABV?$allocator@_W@1@@Z 10020020 f i Config.obj
 0001:0001f020       ??$?0V?$allocator@_W@std@@$$V@?$_Compressed_pair@V?$allocator@_W@std@@V?$_String_val@U?$_Simple_types@_W@std@@@2@$00@std@@QAE@U_One_then_variadic_args_t@1@$$QAV?$allocator@_W@1@@Z 10020020 f i Config.obj
 0001:0001f050       ??$?0ABV?$allocator@H@std@@$$V@?$_Compressed_pair@V?$allocator@H@std@@V?$_Vector_val@U?$_Simple_types@H@std@@@2@$00@std@@QAE@U_One_then_variadic_args_t@1@ABV?$allocator@H@1@@Z 10020050 f i Aimbot.obj
 0001:0001f050       ??$?0ABV?$allocator@V?$basic_json@Vmap@std@@Vvector@2@V?$basic_string@DU?$char_traits@D@std@@V?$allocator@D@2@@2@_N_J_KNVallocator@2@Uadl_serializer@nlohmann@@@nlohmann@@@std@@$$V@?$_Compressed_pair@V?$allocator@V?$basic_json@Vmap@std@@Vvector@2@V?$basic_string@DU?$char_traits@D@std@@V?$allocator@D@2@@2@_N_J_KNVallocator@2@Uadl_serializer@nlohmann@@@nlohmann@@@std@@V?$_Vector_val@U?$_Simple_types@V?$basic_json@Vmap@std@@Vvector@2@V?$basic_string@DU?$char_traits@D@std@@V?$allocator@D@2@@2@_N_J_KNVallocator@2@Uadl_serializer@nlohmann@@@nlohmann@@@std@@@2@$00@std@@QAE@U_One_then_variadic_args_t@1@ABV?$allocator@V?$basic_json@Vmap@std@@Vvector@2@V?$basic_string@DU?$char_traits@D@std@@V?$allocator@D@2@@2@_N_J_KNVallocator@2@Uadl_serializer@nlohmann@@@nlohmann@@@1@@Z 10020050 f i tab_Login.obj
 0001:0001f050       ??$?0V?$allocator@UVertex_t@@@std@@$$V@?$_Compressed_pair@V?$allocator@UVertex_t@@@std@@V?$_Vector_val@U?$_Simple_types@UVertex_t@@@std@@@2@$00@std@@QAE@U_One_then_variadic_args_t@1@$$QAV?$allocator@UVertex_t@@@1@@Z 10020050 f i Visuals.obj
 0001:0001f050       ??$?0ABV?$allocator@U?$pair@HPBD@std@@@std@@$$V@?$_Compressed_pair@V?$allocator@U?$pair@HPBD@std@@@std@@V?$_Vector_val@U?$_Simple_types@U?$pair@HPBD@std@@@std@@@2@$00@std@@QAE@U_One_then_variadic_args_t@1@ABV?$allocator@U?$pair@HPBD@std@@@1@@Z 10020050 f i Config.obj
 0001:0001f050       ??$?0ABV?$allocator@I@std@@$$V@?$_Compressed_pair@V?$allocator@I@std@@V?$_Vector_val@U?$_Simple_types@I@std@@@2@$00@std@@QAE@U_One_then_variadic_args_t@1@ABV?$allocator@I@1@@Z 10020050 f i Protobuffs.obj
 0001:0001f050       ??$?0ABV?$allocator@Uwskin@@@std@@$$V@?$_Compressed_pair@V?$allocator@Uwskin@@@std@@V?$_Vector_val@U?$_Simple_types@Uwskin@@@std@@@2@$00@std@@QAE@U_One_then_variadic_args_t@1@ABV?$allocator@Uwskin@@@1@@Z 10020050 f i Protobuffs.obj
 0001:0001f050       ??$?0V?$allocator@UField@@@std@@$$V@?$_Compressed_pair@V?$allocator@UField@@@std@@V?$_Vector_val@U?$_Simple_types@UField@@@std@@@2@$00@std@@QAE@U_One_then_variadic_args_t@1@$$QAV?$allocator@UField@@@1@@Z 10020050 f i Protobuffs.obj
 0001:0001f050       ??$?0V?$allocator@V?$basic_json@Vmap@std@@Vvector@2@V?$basic_string@DU?$char_traits@D@std@@V?$allocator@D@2@@2@_N_J_KNVallocator@2@Uadl_serializer@nlohmann@@@nlohmann@@@std@@$$V@?$_Compressed_pair@V?$allocator@V?$basic_json@Vmap@std@@Vvector@2@V?$basic_string@DU?$char_traits@D@std@@V?$allocator@D@2@@2@_N_J_KNVallocator@2@Uadl_serializer@nlohmann@@@nlohmann@@@std@@V?$_Vector_val@U?$_Simple_types@V?$basic_json@Vmap@std@@Vvector@2@V?$basic_string@DU?$char_traits@D@std@@V?$allocator@D@2@@2@_N_J_KNVallocator@2@Uadl_serializer@nlohmann@@@nlohmann@@@std@@@2@$00@std@@QAE@U_One_then_variadic_args_t@1@$$QAV?$allocator@V?$basic_json@Vmap@std@@Vvector@2@V?$basic_string@DU?$char_traits@D@std@@V?$allocator@D@2@@2@_N_J_KNVallocator@2@Uadl_serializer@nlohmann@@@nlohmann@@@1@@Z 10020050 f i tab_Login.obj
 0001:0001f050       ??$?0V?$allocator@VConfigFile@@@std@@$$V@?$_Compressed_pair@V?$allocator@VConfigFile@@@std@@V?$_Vector_val@U?$_Simple_types@VConfigFile@@@std@@@2@$00@std@@QAE@U_One_then_variadic_args_t@1@$$QAV?$allocator@VConfigFile@@@1@@Z 10020050 f i Config.obj
 0001:0001f050       ??$?0V?$allocator@V?$basic_string@DU?$char_traits@D@std@@V?$allocator@D@2@@std@@@std@@$$V@?$_Compressed_pair@V?$allocator@V?$basic_string@DU?$char_traits@D@std@@V?$allocator@D@2@@std@@@std@@V?$_Vector_val@U?$_Simple_types@V?$basic_string@DU?$char_traits@D@std@@V?$allocator@D@2@@std@@@std@@@2@$00@std@@QAE@U_One_then_variadic_args_t@1@$$QAV?$allocator@V?$basic_string@DU?$char_traits@D@std@@V?$allocator@D@2@@std@@@1@@Z 10020050 f i Config.obj
 0001:0001f050       ??$?0V?$allocator@H@std@@$$V@?$_Compressed_pair@V?$allocator@H@std@@V?$_Vector_val@U?$_Simple_types@H@std@@@2@$00@std@@QAE@U_One_then_variadic_args_t@1@$$QAV?$allocator@H@1@@Z 10020050 f i Hooks.obj
 0001:0001f050       ??$?0ABV?$allocator@PBD@std@@$$V@?$_Compressed_pair@V?$allocator@PBD@std@@V?$_Vector_val@U?$_Simple_types@PBD@std@@@2@$00@std@@QAE@U_One_then_variadic_args_t@1@ABV?$allocator@PBD@1@@Z 10020050 f i Hooks.obj
 0001:0001f080       ??$?0ABV?$basic_string@DU?$char_traits@D@std@@V?$allocator@D@2@@std@@$$Z$$V@?$pair@$$CBV?$basic_string@DU?$char_traits@D@std@@V?$allocator@D@2@@std@@V?$basic_json@Vmap@std@@Vvector@2@V?$basic_string@DU?$char_traits@D@std@@V?$allocator@D@2@@2@_N_J_KNVallocator@2@Uadl_serializer@nlohmann@@@nlohmann@@@std@@QAE@Upiecewise_construct_t@1@V?$tuple@ABV?$basic_string@DU?$char_traits@D@std@@V?$allocator@D@2@@std@@@1@V?$tuple@$$V@1@@Z 10020080 f i Config.obj
 0001:0001f0b0       ??$?0ABQAD$0A@@?$tuple@ABQAD@std@@QAE@ABQAD@Z 100200b0 f i skinchanger.obj
 0001:0001f0b0       ??$?0ABV?$basic_string@DU?$char_traits@D@std@@V?$allocator@D@2@@std@@$0A@@?$tuple@ABV?$basic_string@DU?$char_traits@D@std@@V?$allocator@D@2@@std@@@std@@QAE@ABV?$basic_string@DU?$char_traits@D@std@@V?$allocator@D@2@@1@@Z 100200b0 f i Config.obj
 0001:0001f110       ??$?0ABQAD@?$_Tuple_val@ABQAD@std@@QAE@ABQAD@Z 10020110 f i skinchanger.obj
 0001:0001f110       ??$?0V?$basic_string@DU?$char_traits@D@std@@V?$allocator@D@2@@std@@@?$_Tuple_val@$$QAV?$basic_string@DU?$char_traits@D@std@@V?$allocator@D@2@@std@@@std@@QAE@$$QAV?$basic_string@DU?$char_traits@D@std@@V?$allocator@D@2@@1@@Z 10020110 f i Config.obj
 0001:0001f110       ??$?0ABV?$basic_string@DU?$char_traits@D@std@@V?$allocator@D@2@@std@@@?$_Tuple_val@ABV?$basic_string@DU?$char_traits@D@std@@V?$allocator@D@2@@std@@@std@@QAE@ABV?$basic_string@DU?$char_traits@D@std@@V?$allocator@D@2@@1@@Z 10020110 f i Config.obj
 0001:0001f140       ??$?0HAAY0M@$$CBD$0A@@?$pair@HPBD@std@@QAE@$$QAHAAY0M@$$CBD@Z 10020140 f i Config.obj
 0001:0001f140       ??$?0HAAY0BG@$$CBD$0A@@?$pair@HPBD@std@@QAE@$$QAHAAY0BG@$$CBD@Z 10020140 f i Config.obj
 0001:0001f140       ??$?0HAAY0O@$$CBD$0A@@?$pair@HPBD@std@@QAE@$$QAHAAY0O@$$CBD@Z 10020140 f i Config.obj
 0001:0001f140       ??$?0HAAY0BF@$$CBD$0A@@?$pair@HPBD@std@@QAE@$$QAHAAY0BF@$$CBD@Z 10020140 f i Config.obj
 0001:0001f140       ??$?0HAAY06$$CBD$0A@@?$pair@HPBD@std@@QAE@$$QAHAAY06$$CBD@Z 10020140 f i Config.obj
 0001:0001f140       ??$?0HAAY05$$CBD$0A@@?$pair@HPBD@std@@QAE@$$QAHAAY05$$CBD@Z 10020140 f i Config.obj
 0001:0001f140       ??$?0HAAY0L@$$CBD$0A@@?$pair@HPBD@std@@QAE@$$QAHAAY0L@$$CBD@Z 10020140 f i Config.obj
 0001:0001f140       ??$?0HAAY0BA@$$CBD$0A@@?$pair@HPBD@std@@QAE@$$QAHAAY0BA@$$CBD@Z 10020140 f i Config.obj
 0001:0001f140       ??$?0HAAY0BI@$$CBD$0A@@?$pair@HPBD@std@@QAE@$$QAHAAY0BI@$$CBD@Z 10020140 f i Config.obj
 0001:0001f140       ??$?0HAAY0N@$$CBD$0A@@?$pair@HPBD@std@@QAE@$$QAHAAY0N@$$CBD@Z 10020140 f i Config.obj
 0001:0001f140       ??$?0HAAY07$$CBD$0A@@?$pair@HPBD@std@@QAE@$$QAHAAY07$$CBD@Z 10020140 f i Config.obj
 0001:0001f140       ??$?0HAAY03$$CBD$0A@@?$pair@HPBD@std@@QAE@$$QAHAAY03$$CBD@Z 10020140 f i Config.obj
 0001:0001f140       ??$?0HAAY04$$CBD$0A@@?$pair@HPBD@std@@QAE@$$QAHAAY04$$CBD@Z 10020140 f i Config.obj
 0001:0001f140       ??$?0HAAY0P@$$CBD$0A@@?$pair@HPBD@std@@QAE@$$QAHAAY0P@$$CBD@Z 10020140 f i Config.obj
 0001:0001f140       ??$?0HAAY0BD@$$CBD$0A@@?$pair@HPBD@std@@QAE@$$QAHAAY0BD@$$CBD@Z 10020140 f i Config.obj
 0001:0001f140       ??$?0HAAY0BC@$$CBD$0A@@?$pair@HPBD@std@@QAE@$$QAHAAY0BC@$$CBD@Z 10020140 f i Config.obj
 0001:0001f140       ??$?0HAAY09$$CBD$0A@@?$pair@HPBD@std@@QAE@$$QAHAAY09$$CBD@Z 10020140 f i Config.obj
 0001:0001f140       ??$?0HAAY08$$CBD$0A@@?$pair@HPBD@std@@QAE@$$QAHAAY08$$CBD@Z 10020140 f i Config.obj
 0001:0001f140       ??$?0HAAY0BB@$$CBD$0A@@?$pair@HPBD@std@@QAE@$$QAHAAY0BB@$$CBD@Z 10020140 f i Config.obj
 0001:0001f140       ??$?0HAAY0BE@$$CBD$0A@@?$pair@HPBD@std@@QAE@$$QAHAAY0BE@$$CBD@Z 10020140 f i Config.obj
 0001:0001f180       ??$?0PAD$0A@@?$basic_string@DU?$char_traits@D@std@@V?$allocator@D@2@@std@@QAE@PAD0ABV?$allocator@D@1@@Z 10020180 f i Config.obj
 0001:0001f260       ??$?0PA_WU?$default_delete@$$BY0A@_W@std@@$0A@X@?$unique_ptr@$$BY0A@_WU?$default_delete@$$BY0A@_W@std@@@std@@QAE@PA_W@Z 10020260 f i grenadetracer.obj
 0001:0001f260       ??$?0U?$default_delete@UNetvarTable@@@std@@$0A@@?$unique_ptr@UNetvarTable@@U?$default_delete@UNetvarTable@@@std@@@std@@QAE@PAUNetvarTable@@@Z 10020260 f i NetvarManager.obj
 0001:0001f260       ??$?0U?$default_delete@V_Facet_base@std@@@std@@$0A@@?$unique_ptr@V_Facet_base@std@@U?$default_delete@V_Facet_base@std@@@2@@std@@QAE@PAV_Facet_base@1@@Z 10020260 f i Config.obj
 0001:0001f260       ??$?0U?$default_delete@VNetvarDatabase@@@std@@$0A@@?$unique_ptr@VNetvarDatabase@@U?$default_delete@VNetvarDatabase@@@std@@@std@@QAE@PAVNetvarDatabase@@@Z 10020260 f i NetvarManager.obj
 0001:0001f290       ??$?0U_Creator@_Dir_enum_impl@filesystem@std@@ABW4directory_options@23@@?$_Ref_count_obj2@U_Recursive_dir_enum_impl@filesystem@std@@@std@@QAE@$$QAU_Creator@_Dir_enum_impl@filesystem@1@ABW4directory_options@41@@Z 10020290 f i Config.obj
 0001:0001f330       ??$?0U?$pair@$$CBV?$basic_string@DU?$char_traits@D@std@@V?$allocator@D@2@@std@@V?$unique_ptr@UNetvarTable@@U?$default_delete@UNetvarTable@@@std@@@2@@std@@@?$allocator@V?$_List_unchecked_iterator@V?$_List_val@U?$_List_simple_types@U?$pair@$$CBV?$basic_string@DU?$char_traits@D@std@@V?$allocator@D@2@@std@@V?$unique_ptr@UNetvarTable@@U?$default_delete@UNetvarTable@@@std@@@2@@std@@@std@@@std@@@std@@@std@@QAE@ABV?$allocator@U?$pair@$$CBV?$basic_string@DU?$char_traits@D@std@@V?$allocator@D@2@@std@@V?$unique_ptr@UNetvarTable@@U?$default_delete@UNetvarTable@@@std@@@2@@std@@@1@@Z 10020330 f i NetvarManager.obj
 0001:0001f330       ??$?0U?$pair@$$CBV?$basic_string@DU?$char_traits@D@std@@V?$allocator@D@2@@std@@V?$unique_ptr@UNetvarTable@@U?$default_delete@UNetvarTable@@@std@@@2@@std@@@?$allocator@U?$_List_node@U?$pair@$$CBV?$basic_string@DU?$char_traits@D@std@@V?$allocator@D@2@@std@@V?$unique_ptr@UNetvarTable@@U?$default_delete@UNetvarTable@@@std@@@2@@std@@PAX@std@@@std@@QAE@ABV?$allocator@U?$pair@$$CBV?$basic_string@DU?$char_traits@D@std@@V?$allocator@D@2@@std@@V?$unique_ptr@UNetvarTable@@U?$default_delete@UNetvarTable@@@std@@@2@@std@@@1@@Z 10020330 f i NetvarManager.obj
 0001:0001f330       ??$?0U?$pair@QADPAD@std@@@?$allocator@V?$_List_unchecked_iterator@V?$_List_val@U?$_List_simple_types@U?$pair@QADPAD@std@@@std@@@std@@@std@@@std@@QAE@ABV?$allocator@U?$pair@QADPAD@std@@@1@@Z 10020330 f i skinchanger.obj
 0001:0001f330       ??$?0U?$pair@QADPAD@std@@@?$allocator@U?$_List_node@U?$pair@QADPAD@std@@PAX@std@@@std@@QAE@ABV?$allocator@U?$pair@QADPAD@std@@@1@@Z 10020330 f i skinchanger.obj
 0001:0001f330       ??$?0U?$pair@$$CBV?$basic_string@DU?$char_traits@D@std@@V?$allocator@D@2@@std@@I@std@@@?$allocator@V?$_List_unchecked_iterator@V?$_List_val@U?$_List_simple_types@U?$pair@$$CBV?$basic_string@DU?$char_traits@D@std@@V?$allocator@D@2@@std@@I@std@@@std@@@std@@@std@@@std@@QAE@ABV?$allocator@U?$pair@$$CBV?$basic_string@DU?$char_traits@D@std@@V?$allocator@D@2@@std@@I@std@@@1@@Z 10020330 f i NetvarManager.obj
 0001:0001f330       ??$?0U_Exact_args_t@std@@$0A@@?$tuple@$$V@std@@QAE@U_Exact_args_t@1@@Z 10020330 f i Config.obj
 0001:0001f330       ??$?0UPlayerRecords@@@?$allocator@PAUPlayerRecords@@@std@@QAE@ABV?$allocator@UPlayerRecords@@@1@@Z 10020330 f i LagComp.obj
 0001:0001f330       ??$?0UPlayerRecords@@@?$allocator@U_Container_proxy@std@@@std@@QAE@ABV?$allocator@UPlayerRecords@@@1@@Z 10020330 f i LagComp.obj
 0001:0001f330       ??0?$tuple@$$V@std@@QAE@ABV01@@Z 10020330 f i Config.obj
 0001:0001f330       ??$?0U?$pair@$$CBV?$basic_string@DU?$char_traits@D@std@@V?$allocator@D@2@@std@@I@std@@@?$allocator@U?$_List_node@U?$pair@$$CBV?$basic_string@DU?$char_traits@D@std@@V?$allocator@D@2@@std@@I@std@@PAX@std@@@std@@QAE@ABV?$allocator@U?$pair@$$CBV?$basic_string@DU?$char_traits@D@std@@V?$allocator@D@2@@std@@I@std@@@1@@Z 10020330 f i NetvarManager.obj
 0001:0001f340       ??$?0U_Exact_args_t@std@@ABV?$basic_string@DU?$char_traits@D@std@@V?$allocator@D@2@@1@$$V$0A@@?$tuple@ABV?$basic_string@DU?$char_traits@D@std@@V?$allocator@D@2@@std@@@std@@QAE@U_Exact_args_t@1@ABV?$basic_string@DU?$char_traits@D@std@@V?$allocator@D@2@@1@@Z 10020340 f i Config.obj
 0001:0001f340       ??$?0U_Exact_args_t@std@@V?$basic_string@DU?$char_traits@D@std@@V?$allocator@D@2@@1@$$V$0A@@?$tuple@$$QAV?$basic_string@DU?$char_traits@D@std@@V?$allocator@D@2@@std@@@std@@QAE@U_Exact_args_t@1@$$QAV?$basic_string@DU?$char_traits@D@std@@V?$allocator@D@2@@1@@Z 10020340 f i Config.obj
 0001:0001f340       ??$?0U_Exact_args_t@std@@ABQAD$$V$0A@@?$tuple@ABQAD@std@@QAE@U_Exact_args_t@1@ABQAD@Z 10020340 f i skinchanger.obj
 0001:0001f380       ??$?0V<lambda_1>@?1???$create@V?$basic_string@DU?$char_traits@D@std@@V?$allocator@D@2@@std@@ABV12@@?$basic_json@Vmap@std@@Vvector@2@V?$basic_string@DU?$char_traits@D@std@@V?$allocator@D@2@@2@_N_J_KNVallocator@2@Uadl_serializer@nlohmann@@@nlohmann@@CAPAV?$basic_string@DU?$char_traits@D@std@@V?$allocator@D@2@@std@@ABV34@@Z@$0A@@?$unique_ptr@V?$basic_string@DU?$char_traits@D@std@@V?$allocator@D@2@@std@@V<lambda_1>@?1???$create@V?$basic_string@DU?$char_traits@D@std@@V?$allocator@D@2@@std@@ABV12@@?$basic_json@Vmap@std@@Vvector@2@V?$basic_string@DU?$char_traits@D@std@@V?$allocator@D@2@@2@_N_J_KNVallocator@2@Uadl_serializer@nlohmann@@@nlohmann@@CAPAV12@ABV12@@Z@@std@@QAE@PAV?$basic_string@DU?$char_traits@D@std@@V?$allocator@D@2@@1@ABV<lambda_1>@?1???$create@V?$basic_string@DU?$char_traits@D@std@@V?$allocator@D@2@@std@@ABV12@@?$basic_json@Vmap@std@@Vvector@2@V?$basic_string@DU?$char_traits@D@std@@V?$allocator@D@2@@2@_N_J_KNVallocator@2@Uadl_serializer@nlohmann@@@nlohmann@@CAPAV21@ABV21@@Z@@Z 10020380 f i Config.obj
 0001:0001f380       ??$?0V<lambda_1>@?1???$create@V?$vector@V?$basic_json@Vmap@std@@Vvector@2@V?$basic_string@DU?$char_traits@D@std@@V?$allocator@D@2@@2@_N_J_KNVallocator@2@Uadl_serializer@nlohmann@@@nlohmann@@V?$allocator@V?$basic_json@Vmap@std@@Vvector@2@V?$basic_string@DU?$char_traits@D@std@@V?$allocator@D@2@@2@_N_J_KNVallocator@2@Uadl_serializer@nlohmann@@@nlohmann@@@std@@@std@@PBV?$json_ref@V?$basic_json@Vmap@std@@Vvector@2@V?$basic_string@DU?$char_traits@D@std@@V?$allocator@D@2@@2@_N_J_KNVallocator@2@Uadl_serializer@nlohmann@@@nlohmann@@@detail@nlohmann@@PBV345@@?$basic_json@Vmap@std@@Vvector@2@V?$basic_string@DU?$char_traits@D@std@@V?$allocator@D@2@@2@_N_J_KNVallocator@2@Uadl_serializer@nlohmann@@@nlohmann@@CAPAV?$vector@V?$basic_json@Vmap@std@@Vvector@2@V?$basic_string@DU?$char_traits@D@std@@V?$allocator@D@2@@2@_N_J_KNVallocator@2@Uadl_serializer@nlohmann@@@nlohmann@@V?$allocator@V?$basic_json@Vmap@std@@Vvector@2@V?$basic_string@DU?$char_traits@D@std@@V?$allocator@D@2@@2@_N_J_KNVallocator@2@Uadl_serializer@nlohmann@@@nlohmann@@@std@@@std@@$$QAPBV?$json_ref@V?$basic_json@Vmap@std@@Vvector@2@V?$basic_string@DU?$char_traits@D@std@@V?$allocator@D@2@@2@_N_J_KNVallocator@2@Uadl_serializer@nlohmann@@@nlohmann@@@detail@2@0@Z@$0A@@?$unique_ptr@V?$vector@V?$basic_json@Vmap@std@@Vvector@2@V?$basic_string@DU?$char_traits@D@std@@V?$allocator@D@2@@2@_N_J_KNVallocator@2@Uadl_serializer@nlohmann@@@nlohmann@@V?$allocator@V?$basic_json@Vmap@std@@Vvector@2@V?$basic_string@DU?$char_traits@D@std@@V?$allocator@D@2@@2@_N_J_KNVallocator@2@Uadl_serializer@nlohmann@@@nlohmann@@@std@@@std@@V<lambda_1>@?1???$create@V?$vector@V?$basic_json@Vmap@std@@Vvector@2@V?$basic_string@DU?$char_traits@D@std@@V?$allocator@D@2@@2@_N_J_KNVallocator@2@Uadl_serializer@nlohmann@@@nlohmann@@V?$allocator@V?$basic_json@Vmap@std@@Vvector@2@V?$basic_string@DU?$char_traits@D@std@@V?$allocator@D@2@@2@_N_J_KNVallocator@2@Uadl_serializer@nlohmann@@@nlohmann@@@std@@@std@@PBV?$json_ref@V?$basic_json@Vmap@std@@Vvector@2@V?$basic_string@DU?$char_traits@D@std@@V?$allocator@D@2@@2@_N_J_KNVallocator@2@Uadl_serializer@nlohmann@@@nlohmann@@@detail@nlohmann@@PBV345@@?$basic_json@Vmap@std@@Vvector@2@V?$basic_string@DU?$char_traits@D@std@@V?$allocator@D@2@@2@_N_J_KNVallocator@2@Uadl_serializer@nlohmann@@@nlohmann@@CAPAV12@$$QAPBV?$json_ref@V?$basic_json@Vmap@std@@Vvector@2@V?$basic_string@DU?$char_traits@D@std@@V?$allocator@D@2@@2@_N_J_KNVallocator@2@Uadl_serializer@nlohmann@@@nlohmann@@@detail@5@0@Z@@std@@QAE@PAV?$vector@V?$basic_json@Vmap@std@@Vvector@2@V?$basic_string@DU?$char_traits@D@std@@V?$allocator@D@2@@2@_N_J_KNVallocator@2@Uadl_serializer@nlohmann@@@nlohmann@@V?$allocator@V?$basic_json@Vmap@std@@Vvector@2@V?$basic_string@DU?$char_traits@D@std@@V?$allocator@D@2@@2@_N_J_KNVallocator@2@Uadl_serializer@nlohmann@@@nlohmann@@@std@@@1@ABV<lambda_1>@?1???$create@V?$vector@V?$basic_json@Vmap@std@@Vvector@2@V?$basic_string@DU?$char_traits@D@std@@V?$allocator@D@2@@2@_N_J_KNVallocator@2@Uadl_serializer@nlohmann@@@nlohmann@@V?$allocator@V?$basic_json@Vmap@std@@Vvector@2@V?$basic_string@DU?$char_traits@D@std@@V?$allocator@D@2@@2@_N_J_KNVallocator@2@Uadl_serializer@nlohmann@@@nlohmann@@@std@@@std@@PBV?$json_ref@V?$basic_json@Vmap@std@@Vvector@2@V?$basic_string@DU?$char_traits@D@std@@V?$allocator@D@2@@2@_N_J_KNVallocator@2@Uadl_serializer@nlohmann@@@nlohmann@@@detail@nlohmann@@PBV345@@?$basic_json@Vmap@std@@Vvector@2@V?$basic_string@DU?$char_traits@D@std@@V?$allocator@D@2@@2@_N_J_KNVallocator@2@Uadl_serializer@nlohmann@@@nlohmann@@CAPAV21@$$QAPBV?$json_ref@V?$basic_json@Vmap@std@@Vvector@2@V?$basic_string@DU?$char_traits@D@std@@V?$allocator@D@2@@2@_N_J_KNVallocator@2@Uadl_serializer@nlohmann@@@nlohmann@@@detail@5@1@Z@@Z 10020380 f i tab_Login.obj
 0001:0001f380       ??$?0V<lambda_1>@?1???$create@V?$basic_string@DU?$char_traits@D@std@@V?$allocator@D@2@@std@@AAY00$$CBD@?$basic_json@Vmap@std@@Vvector@2@V?$basic_string@DU?$char_traits@D@std@@V?$allocator@D@2@@2@_N_J_KNVallocator@2@Uadl_serializer@nlohmann@@@nlohmann@@CAPAV?$basic_string@DU?$char_traits@D@std@@V?$allocator@D@2@@std@@AAY00$$CBD@Z@$0A@@?$unique_ptr@V?$basic_string@DU?$char_traits@D@std@@V?$allocator@D@2@@std@@V<lambda_1>@?1???$create@V?$basic_string@DU?$char_traits@D@std@@V?$allocator@D@2@@std@@AAY00$$CBD@?$basic_json@Vmap@std@@Vvector@2@V?$basic_string@DU?$char_traits@D@std@@V?$allocator@D@2@@2@_N_J_KNVallocator@2@Uadl_serializer@nlohmann@@@nlohmann@@CAPAV12@AAY00$$CBD@Z@@std@@QAE@PAV?$basic_string@DU?$char_traits@D@std@@V?$allocator@D@2@@1@ABV<lambda_1>@?1???$create@V?$basic_string@DU?$char_traits@D@std@@V?$allocator@D@2@@std@@AAY00$$CBD@?$basic_json@Vmap@std@@Vvector@2@V?$basic_string@DU?$char_traits@D@std@@V?$allocator@D@2@@2@_N_J_KNVallocator@2@Uadl_serializer@nlohmann@@@nlohmann@@CAPAV21@AAY00$$CBD@Z@@Z 10020380 f i Config.obj
 0001:0001f380       ??$?0V<lambda_1>@?1???$create@V?$map@V?$basic_string@DU?$char_traits@D@std@@V?$allocator@D@2@@std@@V?$basic_json@Vmap@std@@Vvector@2@V?$basic_string@DU?$char_traits@D@std@@V?$allocator@D@2@@2@_N_J_KNVallocator@2@Uadl_serializer@nlohmann@@@nlohmann@@U?$less@X@2@V?$allocator@U?$pair@$$CBV?$basic_string@DU?$char_traits@D@std@@V?$allocator@D@2@@std@@V?$basic_json@Vmap@std@@Vvector@2@V?$basic_string@DU?$char_traits@D@std@@V?$allocator@D@2@@2@_N_J_KNVallocator@2@Uadl_serializer@nlohmann@@@nlohmann@@@std@@@2@@std@@$$V@?$basic_json@Vmap@std@@Vvector@2@V?$basic_string@DU?$char_traits@D@std@@V?$allocator@D@2@@2@_N_J_KNVallocator@2@Uadl_serializer@nlohmann@@@nlohmann@@CAPAV?$map@V?$basic_string@DU?$char_traits@D@std@@V?$allocator@D@2@@std@@V?$basic_json@Vmap@std@@Vvector@2@V?$basic_string@DU?$char_traits@D@std@@V?$allocator@D@2@@2@_N_J_KNVallocator@2@Uadl_serializer@nlohmann@@@nlohmann@@U?$less@X@2@V?$allocator@U?$pair@$$CBV?$basic_string@DU?$char_traits@D@std@@V?$allocator@D@2@@std@@V?$basic_json@Vmap@std@@Vvector@2@V?$basic_string@DU?$char_traits@D@std@@V?$allocator@D@2@@2@_N_J_KNVallocator@2@Uadl_serializer@nlohmann@@@nlohmann@@@std@@@2@@std@@XZ@$0A@@?$unique_ptr@V?$map@V?$basic_string@DU?$char_traits@D@std@@V?$allocator@D@2@@std@@V?$basic_json@Vmap@std@@Vvector@2@V?$basic_string@DU?$char_traits@D@std@@V?$allocator@D@2@@2@_N_J_KNVallocator@2@Uadl_serializer@nlohmann@@@nlohmann@@U?$less@X@2@V?$allocator@U?$pair@$$CBV?$basic_string@DU?$char_traits@D@std@@V?$allocator@D@2@@std@@V?$basic_json@Vmap@std@@Vvector@2@V?$basic_string@DU?$char_traits@D@std@@V?$allocator@D@2@@2@_N_J_KNVallocator@2@Uadl_serializer@nlohmann@@@nlohmann@@@std@@@2@@std@@V<lambda_1>@?1???$create@V?$map@V?$basic_string@DU?$char_traits@D@std@@V?$allocator@D@2@@std@@V?$basic_json@Vmap@std@@Vvector@2@V?$basic_string@DU?$char_traits@D@std@@V?$allocator@D@2@@2@_N_J_KNVallocator@2@Uadl_serializer@nlohmann@@@nlohmann@@U?$less@X@2@V?$allocator@U?$pair@$$CBV?$basic_string@DU?$char_traits@D@std@@V?$allocator@D@2@@std@@V?$basic_json@Vmap@std@@Vvector@2@V?$basic_string@DU?$char_traits@D@std@@V?$allocator@D@2@@2@_N_J_KNVallocator@2@Uadl_serializer@nlohmann@@@nlohmann@@@std@@@2@@std@@$$V@?$basic_json@Vmap@std@@Vvector@2@V?$basic_string@DU?$char_traits@D@std@@V?$allocator@D@2@@2@_N_J_KNVallocator@2@Uadl_serializer@nlohmann@@@nlohmann@@CAPAV12@XZ@@std@@QAE@PAV?$map@V?$basic_string@DU?$char_traits@D@std@@V?$allocator@D@2@@std@@V?$basic_json@Vmap@std@@Vvector@2@V?$basic_string@DU?$char_traits@D@std@@V?$allocator@D@2@@2@_N_J_KNVallocator@2@Uadl_serializer@nlohmann@@@nlohmann@@U?$less@X@2@V?$allocator@U?$pair@$$CBV?$basic_string@DU?$char_traits@D@std@@V?$allocator@D@2@@std@@V?$basic_json@Vmap@std@@Vvector@2@V?$basic_string@DU?$char_traits@D@std@@V?$allocator@D@2@@2@_N_J_KNVallocator@2@Uadl_serializer@nlohmann@@@nlohmann@@@std@@@2@@1@ABV<lambda_1>@?1???$create@V?$map@V?$basic_string@DU?$char_traits@D@std@@V?$allocator@D@2@@std@@V?$basic_json@Vmap@std@@Vvector@2@V?$basic_string@DU?$char_traits@D@std@@V?$allocator@D@2@@2@_N_J_KNVallocator@2@Uadl_serializer@nlohmann@@@nlohmann@@U?$less@X@2@V?$allocator@U?$pair@$$CBV?$basic_string@DU?$char_traits@D@std@@V?$allocator@D@2@@std@@V?$basic_json@Vmap@std@@Vvector@2@V?$basic_string@DU?$char_traits@D@std@@V?$allocator@D@2@@2@_N_J_KNVallocator@2@Uadl_serializer@nlohmann@@@nlohmann@@@std@@@2@@std@@$$V@?$basic_json@Vmap@std@@Vvector@2@V?$basic_string@DU?$char_traits@D@std@@V?$allocator@D@2@@2@_N_J_KNVallocator@2@Uadl_serializer@nlohmann@@@nlohmann@@CAPAV21@XZ@@Z 10020380 f i Config.obj
 0001:0001f380       ??$?0V<lambda_1>@?1???$create@V?$vector@V?$basic_json@Vmap@std@@Vvector@2@V?$basic_string@DU?$char_traits@D@std@@V?$allocator@D@2@@2@_N_J_KNVallocator@2@Uadl_serializer@nlohmann@@@nlohmann@@V?$allocator@V?$basic_json@Vmap@std@@Vvector@2@V?$basic_string@DU?$char_traits@D@std@@V?$allocator@D@2@@2@_N_J_KNVallocator@2@Uadl_serializer@nlohmann@@@nlohmann@@@std@@@std@@$$V@?$basic_json@Vmap@std@@Vvector@2@V?$basic_string@DU?$char_traits@D@std@@V?$allocator@D@2@@2@_N_J_KNVallocator@2@Uadl_serializer@nlohmann@@@nlohmann@@CAPAV?$vector@V?$basic_json@Vmap@std@@Vvector@2@V?$basic_string@DU?$char_traits@D@std@@V?$allocator@D@2@@2@_N_J_KNVallocator@2@Uadl_serializer@nlohmann@@@nlohmann@@V?$allocator@V?$basic_json@Vmap@std@@Vvector@2@V?$basic_string@DU?$char_traits@D@std@@V?$allocator@D@2@@2@_N_J_KNVallocator@2@Uadl_serializer@nlohmann@@@nlohmann@@@std@@@std@@XZ@$0A@@?$unique_ptr@V?$vector@V?$basic_json@Vmap@std@@Vvector@2@V?$basic_string@DU?$char_traits@D@std@@V?$allocator@D@2@@2@_N_J_KNVallocator@2@Uadl_serializer@nlohmann@@@nlohmann@@V?$allocator@V?$basic_json@Vmap@std@@Vvector@2@V?$basic_string@DU?$char_traits@D@std@@V?$allocator@D@2@@2@_N_J_KNVallocator@2@Uadl_serializer@nlohmann@@@nlohmann@@@std@@@std@@V<lambda_1>@?1???$create@V?$vector@V?$basic_json@Vmap@std@@Vvector@2@V?$basic_string@DU?$char_traits@D@std@@V?$allocator@D@2@@2@_N_J_KNVallocator@2@Uadl_serializer@nlohmann@@@nlohmann@@V?$allocator@V?$basic_json@Vmap@std@@Vvector@2@V?$basic_string@DU?$char_traits@D@std@@V?$allocator@D@2@@2@_N_J_KNVallocator@2@Uadl_serializer@nlohmann@@@nlohmann@@@std@@@std@@$$V@?$basic_json@Vmap@std@@Vvector@2@V?$basic_string@DU?$char_traits@D@std@@V?$allocator@D@2@@2@_N_J_KNVallocator@2@Uadl_serializer@nlohmann@@@nlohmann@@CAPAV12@XZ@@std@@QAE@PAV?$vector@V?$basic_json@Vmap@std@@Vvector@2@V?$basic_string@DU?$char_traits@D@std@@V?$allocator@D@2@@2@_N_J_KNVallocator@2@Uadl_serializer@nlohmann@@@nlohmann@@V?$allocator@V?$basic_json@Vmap@std@@Vvector@2@V?$basic_string@DU?$char_traits@D@std@@V?$allocator@D@2@@2@_N_J_KNVallocator@2@Uadl_serializer@nlohmann@@@nlohmann@@@std@@@1@ABV<lambda_1>@?1???$create@V?$vector@V?$basic_json@Vmap@std@@Vvector@2@V?$basic_string@DU?$char_traits@D@std@@V?$allocator@D@2@@2@_N_J_KNVallocator@2@Uadl_serializer@nlohmann@@@nlohmann@@V?$allocator@V?$basic_json@Vmap@std@@Vvector@2@V?$basic_string@DU?$char_traits@D@std@@V?$allocator@D@2@@2@_N_J_KNVallocator@2@Uadl_serializer@nlohmann@@@nlohmann@@@std@@@std@@$$V@?$basic_json@Vmap@std@@Vvector@2@V?$basic_string@DU?$char_traits@D@std@@V?$allocator@D@2@@2@_N_J_KNVallocator@2@Uadl_serializer@nlohmann@@@nlohmann@@CAPAV21@XZ@@Z 10020380 f i Config.obj
 0001:0001f380       ??$?0V<lambda_1>@?1???$create@V?$vector@V?$basic_json@Vmap@std@@Vvector@2@V?$basic_string@DU?$char_traits@D@std@@V?$allocator@D@2@@2@_N_J_KNVallocator@2@Uadl_serializer@nlohmann@@@nlohmann@@V?$allocator@V?$basic_json@Vmap@std@@Vvector@2@V?$basic_string@DU?$char_traits@D@std@@V?$allocator@D@2@@2@_N_J_KNVallocator@2@Uadl_serializer@nlohmann@@@nlohmann@@@std@@@std@@ABV12@@?$basic_json@Vmap@std@@Vvector@2@V?$basic_string@DU?$char_traits@D@std@@V?$allocator@D@2@@2@_N_J_KNVallocator@2@Uadl_serializer@nlohmann@@@nlohmann@@CAPAV?$vector@V?$basic_json@Vmap@std@@Vvector@2@V?$basic_string@DU?$char_traits@D@std@@V?$allocator@D@2@@2@_N_J_KNVallocator@2@Uadl_serializer@nlohmann@@@nlohmann@@V?$allocator@V?$basic_json@Vmap@std@@Vvector@2@V?$basic_string@DU?$char_traits@D@std@@V?$allocator@D@2@@2@_N_J_KNVallocator@2@Uadl_serializer@nlohmann@@@nlohmann@@@std@@@std@@ABV34@@Z@$0A@@?$unique_ptr@V?$vector@V?$basic_json@Vmap@std@@Vvector@2@V?$basic_string@DU?$char_traits@D@std@@V?$allocator@D@2@@2@_N_J_KNVallocator@2@Uadl_serializer@nlohmann@@@nlohmann@@V?$allocator@V?$basic_json@Vmap@std@@Vvector@2@V?$basic_string@DU?$char_traits@D@std@@V?$allocator@D@2@@2@_N_J_KNVallocator@2@Uadl_serializer@nlohmann@@@nlohmann@@@std@@@std@@V<lambda_1>@?1???$create@V?$vector@V?$basic_json@Vmap@std@@Vvector@2@V?$basic_string@DU?$char_traits@D@std@@V?$allocator@D@2@@2@_N_J_KNVallocator@2@Uadl_serializer@nlohmann@@@nlohmann@@V?$allocator@V?$basic_json@Vmap@std@@Vvector@2@V?$basic_string@DU?$char_traits@D@std@@V?$allocator@D@2@@2@_N_J_KNVallocator@2@Uadl_serializer@nlohmann@@@nlohmann@@@std@@@std@@ABV12@@?$basic_json@Vmap@std@@Vvector@2@V?$basic_string@DU?$char_traits@D@std@@V?$allocator@D@2@@2@_N_J_KNVallocator@2@Uadl_serializer@nlohmann@@@nlohmann@@CAPAV12@ABV12@@Z@@std@@QAE@PAV?$vector@V?$basic_json@Vmap@std@@Vvector@2@V?$basic_string@DU?$char_traits@D@std@@V?$allocator@D@2@@2@_N_J_KNVallocator@2@Uadl_serializer@nlohmann@@@nlohmann@@V?$allocator@V?$basic_json@Vmap@std@@Vvector@2@V?$basic_string@DU?$char_traits@D@std@@V?$allocator@D@2@@2@_N_J_KNVallocator@2@Uadl_serializer@nlohmann@@@nlohmann@@@std@@@1@ABV<lambda_1>@?1???$create@V?$vector@V?$basic_json@Vmap@std@@Vvector@2@V?$basic_string@DU?$char_traits@D@std@@V?$allocator@D@2@@2@_N_J_KNVallocator@2@Uadl_serializer@nlohmann@@@nlohmann@@V?$allocator@V?$basic_json@Vmap@std@@Vvector@2@V?$basic_string@DU?$char_traits@D@std@@V?$allocator@D@2@@2@_N_J_KNVallocator@2@Uadl_serializer@nlohmann@@@nlohmann@@@std@@@std@@ABV12@@?$basic_json@Vmap@std@@Vvector@2@V?$basic_string@DU?$char_traits@D@std@@V?$allocator@D@2@@2@_N_J_KNVallocator@2@Uadl_serializer@nlohmann@@@nlohmann@@CAPAV21@ABV21@@Z@@Z 10020380 f i tab_Login.obj
 0001:0001f380       ??$?0V<lambda_1>@?1???$create@V?$map@V?$basic_string@DU?$char_traits@D@std@@V?$allocator@D@2@@std@@V?$basic_json@Vmap@std@@Vvector@2@V?$basic_string@DU?$char_traits@D@std@@V?$allocator@D@2@@2@_N_J_KNVallocator@2@Uadl_serializer@nlohmann@@@nlohmann@@U?$less@X@2@V?$allocator@U?$pair@$$CBV?$basic_string@DU?$char_traits@D@std@@V?$allocator@D@2@@std@@V?$basic_json@Vmap@std@@Vvector@2@V?$basic_string@DU?$char_traits@D@std@@V?$allocator@D@2@@2@_N_J_KNVallocator@2@Uadl_serializer@nlohmann@@@nlohmann@@@std@@@2@@std@@ABV12@@?$basic_json@Vmap@std@@Vvector@2@V?$basic_string@DU?$char_traits@D@std@@V?$allocator@D@2@@2@_N_J_KNVallocator@2@Uadl_serializer@nlohmann@@@nlohmann@@CAPAV?$map@V?$basic_string@DU?$char_traits@D@std@@V?$allocator@D@2@@std@@V?$basic_json@Vmap@std@@Vvector@2@V?$basic_string@DU?$char_traits@D@std@@V?$allocator@D@2@@2@_N_J_KNVallocator@2@Uadl_serializer@nlohmann@@@nlohmann@@U?$less@X@2@V?$allocator@U?$pair@$$CBV?$basic_string@DU?$char_traits@D@std@@V?$allocator@D@2@@std@@V?$basic_json@Vmap@std@@Vvector@2@V?$basic_string@DU?$char_traits@D@std@@V?$allocator@D@2@@2@_N_J_KNVallocator@2@Uadl_serializer@nlohmann@@@nlohmann@@@std@@@2@@std@@ABV34@@Z@$0A@@?$unique_ptr@V?$map@V?$basic_string@DU?$char_traits@D@std@@V?$allocator@D@2@@std@@V?$basic_json@Vmap@std@@Vvector@2@V?$basic_string@DU?$char_traits@D@std@@V?$allocator@D@2@@2@_N_J_KNVallocator@2@Uadl_serializer@nlohmann@@@nlohmann@@U?$less@X@2@V?$allocator@U?$pair@$$CBV?$basic_string@DU?$char_traits@D@std@@V?$allocator@D@2@@std@@V?$basic_json@Vmap@std@@Vvector@2@V?$basic_string@DU?$char_traits@D@std@@V?$allocator@D@2@@2@_N_J_KNVallocator@2@Uadl_serializer@nlohmann@@@nlohmann@@@std@@@2@@std@@V<lambda_1>@?1???$create@V?$map@V?$basic_string@DU?$char_traits@D@std@@V?$allocator@D@2@@std@@V?$basic_json@Vmap@std@@Vvector@2@V?$basic_string@DU?$char_traits@D@std@@V?$allocator@D@2@@2@_N_J_KNVallocator@2@Uadl_serializer@nlohmann@@@nlohmann@@U?$less@X@2@V?$allocator@U?$pair@$$CBV?$basic_string@DU?$char_traits@D@std@@V?$allocator@D@2@@std@@V?$basic_json@Vmap@std@@Vvector@2@V?$basic_string@DU?$char_traits@D@std@@V?$allocator@D@2@@2@_N_J_KNVallocator@2@Uadl_serializer@nlohmann@@@nlohmann@@@std@@@2@@std@@ABV12@@?$basic_json@Vmap@std@@Vvector@2@V?$basic_string@DU?$char_traits@D@std@@V?$allocator@D@2@@2@_N_J_KNVallocator@2@Uadl_serializer@nlohmann@@@nlohmann@@CAPAV12@ABV12@@Z@@std@@QAE@PAV?$map@V?$basic_string@DU?$char_traits@D@std@@V?$allocator@D@2@@std@@V?$basic_json@Vmap@std@@Vvector@2@V?$basic_string@DU?$char_traits@D@std@@V?$allocator@D@2@@2@_N_J_KNVallocator@2@Uadl_serializer@nlohmann@@@nlohmann@@U?$less@X@2@V?$allocator@U?$pair@$$CBV?$basic_string@DU?$char_traits@D@std@@V?$allocator@D@2@@std@@V?$basic_json@Vmap@std@@Vvector@2@V?$basic_string@DU?$char_traits@D@std@@V?$allocator@D@2@@2@_N_J_KNVallocator@2@Uadl_serializer@nlohmann@@@nlohmann@@@std@@@2@@1@ABV<lambda_1>@?1???$create@V?$map@V?$basic_string@DU?$char_traits@D@std@@V?$allocator@D@2@@std@@V?$basic_json@Vmap@std@@Vvector@2@V?$basic_string@DU?$char_traits@D@std@@V?$allocator@D@2@@2@_N_J_KNVallocator@2@Uadl_serializer@nlohmann@@@nlohmann@@U?$less@X@2@V?$allocator@U?$pair@$$CBV?$basic_string@DU?$char_traits@D@std@@V?$allocator@D@2@@std@@V?$basic_json@Vmap@std@@Vvector@2@V?$basic_string@DU?$char_traits@D@std@@V?$allocator@D@2@@2@_N_J_KNVallocator@2@Uadl_serializer@nlohmann@@@nlohmann@@@std@@@2@@std@@ABV12@@?$basic_json@Vmap@std@@Vvector@2@V?$basic_string@DU?$char_traits@D@std@@V?$allocator@D@2@@2@_N_J_KNVallocator@2@Uadl_serializer@nlohmann@@@nlohmann@@CAPAV21@ABV21@@Z@@Z 10020380 f i tab_Login.obj
 0001:0001f380       ??$?0V<lambda_1>@?1???$create@V?$basic_string@DU?$char_traits@D@std@@V?$allocator@D@2@@std@@V12@@?$basic_json@Vmap@std@@Vvector@2@V?$basic_string@DU?$char_traits@D@std@@V?$allocator@D@2@@2@_N_J_KNVallocator@2@Uadl_serializer@nlohmann@@@nlohmann@@CAPAV?$basic_string@DU?$char_traits@D@std@@V?$allocator@D@2@@std@@$$QAV34@@Z@$0A@@?$unique_ptr@V?$basic_string@DU?$char_traits@D@std@@V?$allocator@D@2@@std@@V<lambda_1>@?1???$create@V?$basic_string@DU?$char_traits@D@std@@V?$allocator@D@2@@std@@V12@@?$basic_json@Vmap@std@@Vvector@2@V?$basic_string@DU?$char_traits@D@std@@V?$allocator@D@2@@2@_N_J_KNVallocator@2@Uadl_serializer@nlohmann@@@nlohmann@@CAPAV12@$$QAV12@@Z@@std@@QAE@PAV?$basic_string@DU?$char_traits@D@std@@V?$allocator@D@2@@1@ABV<lambda_1>@?1???$create@V?$basic_string@DU?$char_traits@D@std@@V?$allocator@D@2@@std@@V12@@?$basic_json@Vmap@std@@Vvector@2@V?$basic_string@DU?$char_traits@D@std@@V?$allocator@D@2@@2@_N_J_KNVallocator@2@Uadl_serializer@nlohmann@@@nlohmann@@CAPAV21@$$QAV21@@Z@@Z 10020380 f i Config.obj
 0001:0001f380       ??$?0V<lambda_1>@?1???$create@V?$basic_string@DU?$char_traits@D@std@@V?$allocator@D@2@@std@@AAY0PP@$$CBD@?$basic_json@Vmap@std@@Vvector@2@V?$basic_string@DU?$char_traits@D@std@@V?$allocator@D@2@@2@_N_J_KNVallocator@2@Uadl_serializer@nlohmann@@@nlohmann@@CAPAV?$basic_string@DU?$char_traits@D@std@@V?$allocator@D@2@@std@@AAY0PP@$$CBD@Z@$0A@@?$unique_ptr@V?$basic_string@DU?$char_traits@D@std@@V?$allocator@D@2@@std@@V<lambda_1>@?1???$create@V?$basic_string@DU?$char_traits@D@std@@V?$allocator@D@2@@std@@AAY0PP@$$CBD@?$basic_json@Vmap@std@@Vvector@2@V?$basic_string@DU?$char_traits@D@std@@V?$allocator@D@2@@2@_N_J_KNVallocator@2@Uadl_serializer@nlohmann@@@nlohmann@@CAPAV12@AAY0PP@$$CBD@Z@@std@@QAE@PAV?$basic_string@DU?$char_traits@D@std@@V?$allocator@D@2@@1@ABV<lambda_1>@?1???$create@V?$basic_string@DU?$char_traits@D@std@@V?$allocator@D@2@@std@@AAY0PP@$$CBD@?$basic_json@Vmap@std@@Vvector@2@V?$basic_string@DU?$char_traits@D@std@@V?$allocator@D@2@@2@_N_J_KNVallocator@2@Uadl_serializer@nlohmann@@@nlohmann@@CAPAV21@AAY0PP@$$CBD@Z@@Z 10020380 f i tab_Login.obj
 0001:0001f380       ??$?0V<lambda_1>@?1???$create@V?$basic_string@DU?$char_traits@D@std@@V?$allocator@D@2@@std@@AAY04$$CBD@?$basic_json@Vmap@std@@Vvector@2@V?$basic_string@DU?$char_traits@D@std@@V?$allocator@D@2@@2@_N_J_KNVallocator@2@Uadl_serializer@nlohmann@@@nlohmann@@CAPAV?$basic_string@DU?$char_traits@D@std@@V?$allocator@D@2@@std@@AAY04$$CBD@Z@$0A@@?$unique_ptr@V?$basic_string@DU?$char_traits@D@std@@V?$allocator@D@2@@std@@V<lambda_1>@?1???$create@V?$basic_string@DU?$char_traits@D@std@@V?$allocator@D@2@@std@@AAY04$$CBD@?$basic_json@Vmap@std@@Vvector@2@V?$basic_string@DU?$char_traits@D@std@@V?$allocator@D@2@@2@_N_J_KNVallocator@2@Uadl_serializer@nlohmann@@@nlohmann@@CAPAV12@AAY04$$CBD@Z@@std@@QAE@PAV?$basic_string@DU?$char_traits@D@std@@V?$allocator@D@2@@1@ABV<lambda_1>@?1???$create@V?$basic_string@DU?$char_traits@D@std@@V?$allocator@D@2@@std@@AAY04$$CBD@?$basic_json@Vmap@std@@Vvector@2@V?$basic_string@DU?$char_traits@D@std@@V?$allocator@D@2@@2@_N_J_KNVallocator@2@Uadl_serializer@nlohmann@@@nlohmann@@CAPAV21@AAY04$$CBD@Z@@Z 10020380 f i tab_Login.obj
 0001:0001f3b0       ??$?0V?$_List_iterator@V?$_List_val@U?$_List_simple_types@U?$pair@$$CBV?$basic_string@DU?$char_traits@D@std@@V?$allocator@D@2@@std@@I@std@@@std@@@std@@@std@@_N$0A@@?$pair@V?$_List_iterator@V?$_List_val@U?$_List_simple_types@U?$pair@$$CBV?$basic_string@DU?$char_traits@D@std@@V?$allocator@D@2@@std@@I@std@@@std@@@std@@@std@@_N@std@@QAE@$$QAV?$_List_iterator@V?$_List_val@U?$_List_simple_types@U?$pair@$$CBV?$basic_string@DU?$char_traits@D@std@@V?$allocator@D@2@@std@@I@std@@@std@@@std@@@1@$$QA_N@Z 100203b0 f i NetvarManager.obj
 0001:0001f3b0       ??$?0V?$_Tree_iterator@V?$_Tree_val@U?$_Tree_simple_types@U?$pair@$$CBV?$basic_string@DU?$char_traits@D@std@@V?$allocator@D@2@@std@@V?$basic_json@Vmap@std@@Vvector@2@V?$basic_string@DU?$char_traits@D@std@@V?$allocator@D@2@@2@_N_J_KNVallocator@2@Uadl_serializer@nlohmann@@@nlohmann@@@std@@@std@@@std@@@std@@AB_N$0A@@?$pair@V?$_Tree_iterator@V?$_Tree_val@U?$_Tree_simple_types@U?$pair@$$CBV?$basic_string@DU?$char_traits@D@std@@V?$allocator@D@2@@std@@V?$basic_json@Vmap@std@@Vvector@2@V?$basic_string@DU?$char_traits@D@std@@V?$allocator@D@2@@2@_N_J_KNVallocator@2@Uadl_serializer@nlohmann@@@nlohmann@@@std@@@std@@@std@@@std@@_N@std@@QAE@$$QAV?$_Tree_iterator@V?$_Tree_val@U?$_Tree_simple_types@U?$pair@$$CBV?$basic_string@DU?$char_traits@D@std@@V?$allocator@D@2@@std@@V?$basic_json@Vmap@std@@Vvector@2@V?$basic_string@DU?$char_traits@D@std@@V?$allocator@D@2@@2@_N_J_KNVallocator@2@Uadl_serializer@nlohmann@@@nlohmann@@@std@@@std@@@std@@@1@AB_N@Z 100203b0 f i Config.obj
 0001:0001f3b0       ??$?0V?$_List_iterator@V?$_List_val@U?$_List_simple_types@U?$pair@$$CBV?$basic_string@DU?$char_traits@D@std@@V?$allocator@D@2@@std@@V?$unique_ptr@UNetvarTable@@U?$default_delete@UNetvarTable@@@std@@@2@@std@@@std@@@std@@@std@@_N$0A@@?$pair@V?$_List_iterator@V?$_List_val@U?$_List_simple_types@U?$pair@$$CBV?$basic_string@DU?$char_traits@D@std@@V?$allocator@D@2@@std@@V?$unique_ptr@UNetvarTable@@U?$default_delete@UNetvarTable@@@std@@@2@@std@@@std@@@std@@@std@@_N@std@@QAE@$$QAV?$_List_iterator@V?$_List_val@U?$_List_simple_types@U?$pair@$$CBV?$basic_string@DU?$char_traits@D@std@@V?$allocator@D@2@@std@@V?$unique_ptr@UNetvarTable@@U?$default_delete@UNetvarTable@@@std@@@2@@std@@@std@@@std@@@1@$$QA_N@Z 100203b0 f i NetvarManager.obj
 0001:0001f3f0       ??$?0V?$basic_string@DU?$char_traits@D@std@@V?$allocator@D@2@@std@@$$V$0A@@?$tuple@$$QAV?$basic_string@DU?$char_traits@D@std@@V?$allocator@D@2@@std@@@std@@QAE@$$QAV?$basic_string@DU?$char_traits@D@std@@V?$allocator@D@2@@1@@Z 100203f0 f i Config.obj
 0001:0001f460       ??$?0V?$basic_string@DU?$char_traits@D@std@@V?$allocator@D@2@@std@@$0A@@path@filesystem@std@@QAE@ABV?$basic_string@DU?$char_traits@D@std@@V?$allocator@D@2@@2@W4format@012@@Z 10020460 f i Config.obj
 0001:0001f490       ??$?0V?$basic_string@DU?$char_traits@D@std@@V?$allocator@D@2@@std@@V?$basic_json@Vmap@std@@Vvector@2@V?$basic_string@DU?$char_traits@D@std@@V?$allocator@D@2@@2@_N_J_KNVallocator@2@Uadl_serializer@nlohmann@@@nlohmann@@$0A@@?$pair@$$CBV?$basic_string@DU?$char_traits@D@std@@V?$allocator@D@2@@std@@V?$basic_json@Vmap@std@@Vvector@2@V?$basic_string@DU?$char_traits@D@std@@V?$allocator@D@2@@2@_N_J_KNVallocator@2@Uadl_serializer@nlohmann@@@nlohmann@@@std@@QAE@$$QAV?$basic_string@DU?$char_traits@D@std@@V?$allocator@D@2@@1@$$QAV?$basic_json@Vmap@std@@Vvector@2@V?$basic_string@DU?$char_traits@D@std@@V?$allocator@D@2@@2@_N_J_KNVallocator@2@Uadl_serializer@nlohmann@@@nlohmann@@@Z 10020490 f i Config.obj
 0001:0001f4e0       ??$?0V?$basic_string@DU?$char_traits@D@std@@V?$allocator@D@2@@std@@V?$basic_json@Vmap@std@@Vvector@2@V?$basic_string@DU?$char_traits@D@std@@V?$allocator@D@2@@2@_N_J_KNVallocator@2@Uadl_serializer@nlohmann@@@nlohmann@@@?$_Tree_temp_node@V?$allocator@U?$_Tree_node@U?$pair@$$CBV?$basic_string@DU?$char_traits@D@std@@V?$allocator@D@2@@std@@V?$basic_json@Vmap@std@@Vvector@2@V?$basic_string@DU?$char_traits@D@std@@V?$allocator@D@2@@2@_N_J_KNVallocator@2@Uadl_serializer@nlohmann@@@nlohmann@@@std@@PAX@std@@@std@@@std@@QAE@AAV?$allocator@U?$_Tree_node@U?$pair@$$CBV?$basic_string@DU?$char_traits@D@std@@V?$allocator@D@2@@std@@V?$basic_json@Vmap@std@@Vvector@2@V?$basic_string@DU?$char_traits@D@std@@V?$allocator@D@2@@2@_N_J_KNVallocator@2@Uadl_serializer@nlohmann@@@nlohmann@@@std@@PAX@std@@@1@PAU?$_Tree_node@U?$pair@$$CBV?$basic_string@DU?$char_traits@D@std@@V?$allocator@D@2@@std@@V?$basic_json@Vmap@std@@Vvector@2@V?$basic_string@DU?$char_traits@D@std@@V?$allocator@D@2@@2@_N_J_KNVallocator@2@Uadl_serializer@nlohmann@@@nlohmann@@@std@@PAX@1@$$QAV?$basic_string@DU?$char_traits@D@std@@V?$allocator@D@2@@1@$$QAV?$basic_json@Vmap@std@@Vvector@2@V?$basic_string@DU?$char_traits@D@std@@V?$allocator@D@2@@2@_N_J_KNVallocator@2@Uadl_serializer@nlohmann@@@nlohmann@@@Z 100204e0 f i Config.obj
 0001:0001f5e0       ??$?0V?$basic_string_view@_WU?$char_traits@_W@std@@@std@@$0A@@?$basic_string@_WU?$char_traits@_W@std@@V?$allocator@_W@2@@std@@QAE@ABV?$basic_string_view@_WU?$char_traits@_W@std@@@1@ABV?$allocator@_W@1@@Z 100205e0 f i Config.obj
 0001:0001f680       ??$?0V?$basic_string_view@_WU?$char_traits@_W@std@@@std@@$0A@@path@filesystem@std@@QAE@ABV?$basic_string_view@_WU?$char_traits@_W@std@@@2@W4format@012@@Z 10020680 f i Config.obj
 0001:0001f6b0       ??0?$shared_ptr@U?$output_adapter_protocol@D@detail@nlohmann@@@std@@QAE@$$QAV01@@Z 100206b0 f i Config.obj
 0001:0001f6b0       ??$?0Vinput_stream_adapter@detail@nlohmann@@$0A@@?$shared_ptr@Uinput_adapter_protocol@detail@nlohmann@@@std@@QAE@$$QAV?$shared_ptr@Vinput_stream_adapter@detail@nlohmann@@@1@@Z 100206b0 f i Config.obj
 0001:0001f6b0       ??0?$shared_ptr@V?$output_stream_adapter@D@detail@nlohmann@@@std@@QAE@$$QAV01@@Z 100206b0 f i Config.obj
 0001:0001f6b0       ??0?$shared_ptr@U_Recursive_dir_enum_impl@filesystem@std@@@std@@QAE@$$QAV01@@Z 100206b0 f i Config.obj
 0001:0001f6b0       ??0?$shared_ptr@Uinput_adapter_protocol@detail@nlohmann@@@std@@QAE@$$QAV01@@Z 100206b0 f i Config.obj
 0001:0001f6b0       ??0?$shared_ptr@Vinput_stream_adapter@detail@nlohmann@@@std@@QAE@$$QAV01@@Z 100206b0 f i Config.obj
 0001:0001f6b0       ??$?0V?$output_stream_adapter@D@detail@nlohmann@@$0A@@?$shared_ptr@U?$output_adapter_protocol@D@detail@nlohmann@@@std@@QAE@$$QAV?$shared_ptr@V?$output_stream_adapter@D@detail@nlohmann@@@1@@Z 100206b0 f i Config.obj
 0001:0001f6b0       ??0?$shared_ptr@VColor@@@std@@QAE@$$QAV01@@Z 100206b0 f i Config.obj
 0001:0001f6e0       ??$?0V?$tuple@$$QAV?$basic_string@DU?$char_traits@D@std@@V?$allocator@D@2@@std@@@std@@V?$tuple@$$V@1@$0A@$$Z$S@?$pair@$$CBV?$basic_string@DU?$char_traits@D@std@@V?$allocator@D@2@@std@@V?$basic_json@Vmap@std@@Vvector@2@V?$basic_string@DU?$char_traits@D@std@@V?$allocator@D@2@@2@_N_J_KNVallocator@2@Uadl_serializer@nlohmann@@@nlohmann@@@std@@QAE@AAV?$tuple@$$QAV?$basic_string@DU?$char_traits@D@std@@V?$allocator@D@2@@std@@@1@AAV?$tuple@$$V@1@U?$integer_sequence@I$0A@@1@U?$integer_sequence@I$S@1@@Z 100206e0 f i Config.obj
 0001:0001f730       ??$?0V?$tuple@ABV?$basic_string@DU?$char_traits@D@std@@V?$allocator@D@2@@std@@@std@@V?$tuple@$$V@1@$0A@$$Z$S@?$pair@$$CBV?$basic_string@DU?$char_traits@D@std@@V?$allocator@D@2@@std@@V?$basic_json@Vmap@std@@Vvector@2@V?$basic_string@DU?$char_traits@D@std@@V?$allocator@D@2@@2@_N_J_KNVallocator@2@Uadl_serializer@nlohmann@@@nlohmann@@@std@@QAE@AAV?$tuple@ABV?$basic_string@DU?$char_traits@D@std@@V?$allocator@D@2@@std@@@1@AAV?$tuple@$$V@1@U?$integer_sequence@I$0A@@1@U?$integer_sequence@I$S@1@@Z 10020730 f i Config.obj
 0001:0001f780       ??$?6DU?$char_traits@D@std@@D@std@@YAAAV?$basic_ostream@DU?$char_traits@D@std@@@0@AAV10@ABU?$_Fillobj@D@0@@Z 10020780 f i Config.obj
 0001:0001f7b0       ??$?6_WU?$char_traits@_W@std@@_J@std@@YAAAV?$basic_ostream@_WU?$char_traits@_W@std@@@0@AAV10@ABU?$_Smanip@_J@0@@Z 100207b0 f i Hooks.obj
 0001:0001f7b0       ??$?6DU?$char_traits@D@std@@_J@std@@YAAAV?$basic_ostream@DU?$char_traits@D@std@@@0@AAV10@ABU?$_Smanip@_J@0@@Z 100207b0 f i Config.obj
 0001:0001f7e0       ??$?6U?$char_traits@D@std@@@std@@YAAAV?$basic_ostream@DU?$char_traits@D@std@@@0@AAV10@PBD@Z 100207e0 f i Config.obj
 0001:0001fb60       ??$?8PB_WPB_W@std@@YA_NABV?$reverse_iterator@PB_W@0@0@Z 10020b60 f i Config.obj
 0001:0001fba0       ??$?9PB_WPB_W@std@@YA_NABV?$reverse_iterator@PB_W@0@0@Z 10020ba0 f i Config.obj
 0001:0001fbe0       ??$?9U_Recursive_dir_enum_impl@filesystem@std@@U012@@std@@YA_NABV?$shared_ptr@U_Recursive_dir_enum_impl@filesystem@std@@@0@0@Z 10020be0 f i Config.obj
 0001:0001fc20       ??$?A$$CBD@?$basic_json@Vmap@std@@Vvector@2@V?$basic_string@DU?$char_traits@D@std@@V?$allocator@D@2@@2@_N_J_KNVallocator@2@Uadl_serializer@nlohmann@@@nlohmann@@QAEAAV01@PBD@Z 10020c20 f i Config.obj
 0001:0001fd80       ??$?CU_Recursive_dir_enum_impl@filesystem@std@@$0A@@?$shared_ptr@U_Recursive_dir_enum_impl@filesystem@std@@@std@@QBEPAU_Recursive_dir_enum_impl@filesystem@1@XZ 10020d80 f i Config.obj
 0001:0001fd80       ??D?$_Vector_iterator@V?$_Vector_val@U?$_Simple_types@VVector@@@std@@@std@@@std@@QBEAAVVector@@XZ 10020d80 f i grenadetracer.obj
 0001:0001fd80       ?_Unwrapped@?$_Array_iterator@D$0EA@@std@@QBEPADXZ 10020d80 f i Config.obj
 0001:0001fd80       ??D?$_Vector_iterator@V?$_Vector_val@U?$_Simple_types@PAVDot@@@std@@@std@@@std@@QBEAAPAVDot@@XZ 10020d80 f i Drops+.obj
 0001:0001fd80       ??$?DVColor@@$0A@@?$shared_ptr@VColor@@@std@@QBEAAVColor@@XZ 10020d80 f i Config.obj
 0001:0001fd80       ??D?$_Vector_iterator@V?$_Vector_val@U?$_Simple_types@V?$basic_string@DU?$char_traits@D@std@@V?$allocator@D@2@@std@@@std@@@std@@@std@@QBEAAV?$basic_string@DU?$char_traits@D@std@@V?$allocator@D@2@@1@XZ 10020d80 f i NetvarManager.obj
 0001:0001fd80       ??$?DU_Recursive_dir_enum_impl@filesystem@std@@$0A@@?$shared_ptr@U_Recursive_dir_enum_impl@filesystem@std@@@std@@QBEAAU_Recursive_dir_enum_impl@filesystem@1@XZ 10020d80 f i Config.obj
 0001:0001fd80       ??$?CU?$output_adapter_protocol@D@detail@nlohmann@@$0A@@?$shared_ptr@U?$output_adapter_protocol@D@detail@nlohmann@@@std@@QBEPAU?$output_adapter_protocol@D@detail@nlohmann@@XZ 10020d80 f i Config.obj
 0001:0001fd80       ??$?CUinput_adapter_protocol@detail@nlohmann@@$0A@@?$shared_ptr@Uinput_adapter_protocol@detail@nlohmann@@@std@@QBEPAUinput_adapter_protocol@detail@nlohmann@@XZ 10020d80 f i Config.obj
 0001:0001fda0       ??$?GPB_WPB_W@std@@YAHABV?$reverse_iterator@PB_W@0@0@Z 10020da0 f i Config.obj
 0001:0001fdc0       ??$?HDU?$char_traits@D@std@@V?$allocator@D@1@@std@@YA?AV?$basic_string@DU?$char_traits@D@std@@V?$allocator@D@2@@0@$$QAV10@0@Z 10020dc0 f i Config.obj
 0001:0001fe70       ??$?HDU?$char_traits@D@std@@V?$allocator@D@1@@std@@YA?AV?$basic_string@DU?$char_traits@D@std@@V?$allocator@D@2@@0@$$QAV10@ABV10@@Z 10020e70 f i Config.obj
 0001:0001feb0       ??$?HDU?$char_traits@D@std@@V?$allocator@D@1@@std@@YA?AV?$basic_string@DU?$char_traits@D@std@@V?$allocator@D@2@@0@$$QAV10@QBD@Z 10020eb0 f i Config.obj
 0001:0001fef0       ??$?HDU?$char_traits@D@std@@V?$allocator@D@1@@std@@YA?AV?$basic_string@DU?$char_traits@D@std@@V?$allocator@D@2@@0@ABV10@$$QAV10@@Z 10020ef0 f i Config.obj
 0001:0001ff30       ??$?HDU?$char_traits@D@std@@V?$allocator@D@1@@std@@YA?AV?$basic_string@DU?$char_traits@D@std@@V?$allocator@D@2@@0@QBD$$QAV10@@Z 10020f30 f i Config.obj
 0001:0001ff70       ??$?HDU?$char_traits@D@std@@V?$allocator@D@1@@std@@YA?AV?$basic_string@DU?$char_traits@D@std@@V?$allocator@D@2@@0@QBDABV10@@Z 10020f70 f i Config.obj
 0001:00020040       ??$?MDU?$char_traits@D@std@@V?$allocator@D@1@@std@@YA_NABV?$basic_string@DU?$char_traits@D@std@@V?$allocator@D@2@@0@0@Z 10021040 f i Config.obj
 0001:00020070       ??$?RAAV?$basic_string@DU?$char_traits@D@std@@V?$allocator@D@2@@std@@AAV01@@?$less@X@std@@QBE_NAAV?$basic_string@DU?$char_traits@D@std@@V?$allocator@D@2@@1@0@Z 10021070 f i Config.obj
 0001:00020070       ??$?RABV?$basic_string@DU?$char_traits@D@std@@V?$allocator@D@2@@std@@ABV01@@?$less@X@std@@QBE_NABV?$basic_string@DU?$char_traits@D@std@@V?$allocator@D@2@@1@0@Z 10021070 f i Config.obj
 0001:00020090       ??$?RV?$basic_json@Vmap@std@@Vvector@2@V?$basic_string@DU?$char_traits@D@std@@V?$allocator@D@2@@2@_N_J_KNVallocator@2@Uadl_serializer@nlohmann@@@nlohmann@@AAE@to_json_fn@detail@nlohmann@@QBEXAAV?$basic_json@Vmap@std@@Vvector@2@V?$basic_string@DU?$char_traits@D@std@@V?$allocator@D@2@@2@_N_J_KNVallocator@2@Uadl_serializer@nlohmann@@@2@AAE@Z 10021090 f i Config.obj
 0001:000200d0       ??$?RV?$basic_json@Vmap@std@@Vvector@2@V?$basic_string@DU?$char_traits@D@std@@V?$allocator@D@2@@2@_N_J_KNVallocator@2@Uadl_serializer@nlohmann@@@nlohmann@@AAH@to_json_fn@detail@nlohmann@@QBEXAAV?$basic_json@Vmap@std@@Vvector@2@V?$basic_string@DU?$char_traits@D@std@@V?$allocator@D@2@@2@_N_J_KNVallocator@2@Uadl_serializer@nlohmann@@@2@AAH@Z 100210d0 f i Config.obj
 0001:00020110       ??$?RV?$basic_json@Vmap@std@@Vvector@2@V?$basic_string@DU?$char_traits@D@std@@V?$allocator@D@2@@2@_N_J_KNVallocator@2@Uadl_serializer@nlohmann@@@nlohmann@@AAM@to_json_fn@detail@nlohmann@@QBEXAAV?$basic_json@Vmap@std@@Vvector@2@V?$basic_string@DU?$char_traits@D@std@@V?$allocator@D@2@@2@_N_J_KNVallocator@2@Uadl_serializer@nlohmann@@@2@AAM@Z 10021110 f i Config.obj
 0001:00020150       ??$?RV?$basic_json@Vmap@std@@Vvector@2@V?$basic_string@DU?$char_traits@D@std@@V?$allocator@D@2@@2@_N_J_KNVallocator@2@Uadl_serializer@nlohmann@@@nlohmann@@AAV?$basic_string@DU?$char_traits@D@std@@V?$allocator@D@2@@std@@@to_json_fn@detail@nlohmann@@QBEXAAV?$basic_json@Vmap@std@@Vvector@2@V?$basic_string@DU?$char_traits@D@std@@V?$allocator@D@2@@2@_N_J_KNVallocator@2@Uadl_serializer@nlohmann@@@2@AAV?$basic_string@DU?$char_traits@D@std@@V?$allocator@D@2@@std@@@Z 10021150 f i Config.obj
 0001:00020190       ??$?RV?$basic_json@Vmap@std@@Vvector@2@V?$basic_string@DU?$char_traits@D@std@@V?$allocator@D@2@@2@_N_J_KNVallocator@2@Uadl_serializer@nlohmann@@@nlohmann@@AA_N@to_json_fn@detail@nlohmann@@QBEXAAV?$basic_json@Vmap@std@@Vvector@2@V?$basic_string@DU?$char_traits@D@std@@V?$allocator@D@2@@2@_N_J_KNVallocator@2@Uadl_serializer@nlohmann@@@2@AA_N@Z 10021190 f i Config.obj
 0001:000201d0       ??$?RV?$basic_json@Vmap@std@@Vvector@2@V?$basic_string@DU?$char_traits@D@std@@V?$allocator@D@2@@2@_N_J_KNVallocator@2@Uadl_serializer@nlohmann@@@nlohmann@@H@from_json_fn@detail@nlohmann@@QBEXABV?$basic_json@Vmap@std@@Vvector@2@V?$basic_string@DU?$char_traits@D@std@@V?$allocator@D@2@@2@_N_J_KNVallocator@2@Uadl_serializer@nlohmann@@@2@AAH@Z 100211d0 f i Config.obj
 0001:00020200       ??$?RV?$basic_json@Vmap@std@@Vvector@2@V?$basic_string@DU?$char_traits@D@std@@V?$allocator@D@2@@2@_N_J_KNVallocator@2@Uadl_serializer@nlohmann@@@nlohmann@@M@from_json_fn@detail@nlohmann@@QBEXABV?$basic_json@Vmap@std@@Vvector@2@V?$basic_string@DU?$char_traits@D@std@@V?$allocator@D@2@@2@_N_J_KNVallocator@2@Uadl_serializer@nlohmann@@@2@AAM@Z 10021200 f i Config.obj
 0001:00020230       ??$?RV?$basic_json@Vmap@std@@Vvector@2@V?$basic_string@DU?$char_traits@D@std@@V?$allocator@D@2@@2@_N_J_KNVallocator@2@Uadl_serializer@nlohmann@@@nlohmann@@V?$basic_string@DU?$char_traits@D@std@@V?$allocator@D@2@@std@@@from_json_fn@detail@nlohmann@@QBEXABV?$basic_json@Vmap@std@@Vvector@2@V?$basic_string@DU?$char_traits@D@std@@V?$allocator@D@2@@2@_N_J_KNVallocator@2@Uadl_serializer@nlohmann@@@2@AAV?$basic_string@DU?$char_traits@D@std@@V?$allocator@D@2@@std@@@Z 10021230 f i Config.obj
 0001:00020260       ??$?RV?$basic_json@Vmap@std@@Vvector@2@V?$basic_string@DU?$char_traits@D@std@@V?$allocator@D@2@@2@_N_J_KNVallocator@2@Uadl_serializer@nlohmann@@@nlohmann@@_N@from_json_fn@detail@nlohmann@@QBEXABV?$basic_json@Vmap@std@@Vvector@2@V?$basic_string@DU?$char_traits@D@std@@V?$allocator@D@2@@2@_N_J_KNVallocator@2@Uadl_serializer@nlohmann@@@2@AA_N@Z 10021260 f i Config.obj
 0001:00020290       ??$?YV?$basic_string_view@DU?$char_traits@D@std@@@std@@$0A@@?$basic_string@DU?$char_traits@D@std@@V?$allocator@D@2@@std@@QAEAAV01@ABV?$basic_string_view@DU?$char_traits@D@std@@@1@@Z 10021290 f i Config.obj
 0001:000202b0       ??$?_0V?$basic_string_view@_WU?$char_traits@_W@std@@@std@@$0A@@path@filesystem@std@@QAEAAV012@ABV?$basic_string_view@_WU?$char_traits@_W@std@@@2@@Z 100212b0 f i Config.obj
 0001:00020340       ??$Load@H@ConfigSys@@AAEXAAHV?$basic_string@DU?$char_traits@D@std@@V?$allocator@D@2@@std@@@Z 10021340 f i Config.obj
 0001:000203e0       ??$Load@M@ConfigSys@@AAEXAAMV?$basic_string@DU?$char_traits@D@std@@V?$allocator@D@2@@std@@@Z 100213e0 f i Config.obj
 0001:00020480       ??$Load@V?$basic_string@DU?$char_traits@D@std@@V?$allocator@D@2@@std@@@ConfigSys@@AAEXAAV?$basic_string@DU?$char_traits@D@std@@V?$allocator@D@2@@std@@V12@@Z 10021480 f i Config.obj
 0001:00020540       ??$Load@_N@ConfigSys@@AAEXAA_NV?$basic_string@DU?$char_traits@D@std@@V?$allocator@D@2@@std@@@Z 10021540 f i Config.obj
 0001:000205e0       ??$Save@H@ConfigSys@@AAEXAAHV?$basic_string@DU?$char_traits@D@std@@V?$allocator@D@2@@std@@@Z 100215e0 f i Config.obj
 0001:00020660       ??$Save@M@ConfigSys@@AAEXAAMV?$basic_string@DU?$char_traits@D@std@@V?$allocator@D@2@@std@@@Z 10021660 f i Config.obj
 0001:000206e0       ??$Save@V?$basic_string@DU?$char_traits@D@std@@V?$allocator@D@2@@std@@@ConfigSys@@AAEXAAV?$basic_string@DU?$char_traits@D@std@@V?$allocator@D@2@@std@@V12@@Z 100216e0 f i Config.obj
 0001:00020760       ??$Save@_N@ConfigSys@@AAEXAA_NV?$basic_string@DU?$char_traits@D@std@@V?$allocator@D@2@@std@@@Z 10021760 f i Config.obj
 0001:000207e0       ??$_Buyheadnode@V?$allocator@U?$_Tree_node@U?$pair@$$CBV?$basic_string@DU?$char_traits@D@std@@V?$allocator@D@2@@std@@V?$basic_json@Vmap@std@@Vvector@2@V?$basic_string@DU?$char_traits@D@std@@V?$allocator@D@2@@2@_N_J_KNVallocator@2@Uadl_serializer@nlohmann@@@nlohmann@@@std@@PAX@std@@@std@@@?$_Tree_node@U?$pair@$$CBV?$basic_string@DU?$char_traits@D@std@@V?$allocator@D@2@@std@@V?$basic_json@Vmap@std@@Vvector@2@V?$basic_string@DU?$char_traits@D@std@@V?$allocator@D@2@@2@_N_J_KNVallocator@2@Uadl_serializer@nlohmann@@@nlohmann@@@std@@PAX@std@@SAPAU01@AAV?$allocator@U?$_Tree_node@U?$pair@$$CBV?$basic_string@DU?$char_traits@D@std@@V?$allocator@D@2@@std@@V?$basic_json@Vmap@std@@Vvector@2@V?$basic_string@DU?$char_traits@D@std@@V?$allocator@D@2@@2@_N_J_KNVallocator@2@Uadl_serializer@nlohmann@@@nlohmann@@@std@@PAX@std@@@1@@Z 100217e0 f i Config.obj
 0001:000207e0       ??$_Buyheadnode@V?$allocator@U?$_Tree_node@U?$pair@QAXU?$pair@V?$basic_string@DU?$char_traits@D@std@@V?$allocator@D@2@@std@@V?$vector@V?$basic_string@DU?$char_traits@D@std@@V?$allocator@D@2@@std@@V?$allocator@V?$basic_string@DU?$char_traits@D@std@@V?$allocator@D@2@@std@@@2@@2@@std@@@std@@PAX@std@@@std@@@?$_Tree_node@U?$pair@QAXU?$pair@V?$basic_string@DU?$char_traits@D@std@@V?$allocator@D@2@@std@@V?$vector@V?$basic_string@DU?$char_traits@D@std@@V?$allocator@D@2@@std@@V?$allocator@V?$basic_string@DU?$char_traits@D@std@@V?$allocator@D@2@@std@@@2@@2@@std@@@std@@PAX@std@@SAPAU01@AAV?$allocator@U?$_Tree_node@U?$pair@QAXU?$pair@V?$basic_string@DU?$char_traits@D@std@@V?$allocator@D@2@@std@@V?$vector@V?$basic_string@DU?$char_traits@D@std@@V?$allocator@D@2@@std@@V?$allocator@V?$basic_string@DU?$char_traits@D@std@@V?$allocator@D@2@@std@@@2@@2@@std@@@std@@PAX@std@@@1@@Z 100217e0 f i NetvarManager.obj
 0001:00020840       ??$_Construct_in_place@U_Recursive_dir_enum_impl@filesystem@std@@U_Creator@_Dir_enum_impl@23@ABW4directory_options@23@@std@@YAXAAU_Recursive_dir_enum_impl@filesystem@0@$$QAU_Creator@_Dir_enum_impl@20@ABW4directory_options@20@@Z 10021840 f i Config.obj
 0001:000208a0       ??$_Construct_in_place@V?$output_stream_adapter@D@detail@nlohmann@@AAV?$basic_ostream@DU?$char_traits@D@std@@@std@@@std@@YAXAAV?$output_stream_adapter@D@detail@nlohmann@@AAV?$basic_ostream@DU?$char_traits@D@std@@@0@@Z 100218a0 f i Config.obj
 0001:000208e0       ??$_Construct_in_place@V?$_List_unchecked_iterator@V?$_List_val@U?$_List_simple_types@U?$pair@QADPAD@std@@@std@@@std@@@std@@ABV12@@std@@YAXAAV?$_List_unchecked_iterator@V?$_List_val@U?$_List_simple_types@U?$pair@QADPAD@std@@@std@@@std@@@0@ABV10@@Z 100218e0 f i skinchanger.obj
 0001:000208e0       ??$_Construct_in_place@V?$_List_unchecked_iterator@V?$_List_val@U?$_List_simple_types@U?$pair@$$CBV?$basic_string@DU?$char_traits@D@std@@V?$allocator@D@2@@std@@I@std@@@std@@@std@@@std@@ABV12@@std@@YAXAAV?$_List_unchecked_iterator@V?$_List_val@U?$_List_simple_types@U?$pair@$$CBV?$basic_string@DU?$char_traits@D@std@@V?$allocator@D@2@@std@@I@std@@@std@@@std@@@0@ABV10@@Z 100218e0 f i NetvarManager.obj
 0001:000208e0       ??$_Construct_in_place@V?$_List_unchecked_iterator@V?$_List_val@U?$_List_simple_types@U?$pair@$$CBV?$basic_string@DU?$char_traits@D@std@@V?$allocator@D@2@@std@@V?$unique_ptr@UNetvarTable@@U?$default_delete@UNetvarTable@@@std@@@2@@std@@@std@@@std@@@std@@ABV12@@std@@YAXAAV?$_List_unchecked_iterator@V?$_List_val@U?$_List_simple_types@U?$pair@$$CBV?$basic_string@DU?$char_traits@D@std@@V?$allocator@D@2@@std@@V?$unique_ptr@UNetvarTable@@U?$default_delete@UNetvarTable@@@std@@@2@@std@@@std@@@std@@@0@ABV10@@Z 100218e0 f i NetvarManager.obj
 0001:000208e0       ??$_Construct_in_place@VColor@@AAV1@@std@@YAXAAVColor@@0@Z 100218e0 f i Config.obj
 0001:00020920       ??$_Construct_in_place@Vinput_stream_adapter@detail@nlohmann@@AAV?$basic_istream@DU?$char_traits@D@std@@@std@@@std@@YAXAAVinput_stream_adapter@detail@nlohmann@@AAV?$basic_istream@DU?$char_traits@D@std@@@0@@Z 10021920 f i Config.obj
 0001:00020960       ??$_Convert_Source_to_wide@V?$basic_string@DU?$char_traits@D@std@@V?$allocator@D@2@@std@@U_Normal_conversion@filesystem@2@@filesystem@std@@YA?AV?$basic_string@_WU?$char_traits@_W@std@@V?$allocator@_W@2@@1@ABV?$basic_string@DU?$char_traits@D@std@@V?$allocator@D@2@@1@U_Normal_conversion@01@@Z 10021960 f i Config.obj
 0001:000209b0       ??$_Convert_Source_to_wide@V?$basic_string_view@_WU?$char_traits@_W@std@@@std@@U_Normal_conversion@filesystem@2@@filesystem@std@@YA?AV?$basic_string@_WU?$char_traits@_W@std@@V?$allocator@_W@2@@1@ABV?$basic_string_view@_WU?$char_traits@_W@std@@@1@U_Normal_conversion@01@@Z 100219b0 f i Config.obj
 0001:00020a00       ??$_Convert_stringoid_to_wide@U_Normal_conversion@filesystem@std@@@filesystem@std@@YA?AV?$basic_string@_WU?$char_traits@_W@std@@V?$allocator@_W@2@@1@V?$basic_string_view@DU?$char_traits@D@std@@@1@U_Normal_conversion@01@@Z 10021a00 f i Config.obj
 0001:00020a40       ??$_Convert_stringoid_to_wide@U_Normal_conversion@filesystem@std@@@filesystem@std@@YA?AV?$basic_string@_WU?$char_traits@_W@std@@V?$allocator@_W@2@@1@V?$basic_string_view@_WU?$char_traits@_W@std@@@1@U_Normal_conversion@01@@Z 10021a40 f i Config.obj
 0001:00020a80       ??$_Convert_wide_to@U?$char_traits@D@std@@V?$allocator@D@2@D@filesystem@std@@YA?AV?$basic_string@DU?$char_traits@D@std@@V?$allocator@D@2@@1@V?$basic_string_view@_WU?$char_traits@_W@std@@@1@ABV?$allocator@D@1@@Z 10021a80 f i Config.obj
 0001:00020ac0       ??$_Convert_wide_to_narrow@U?$char_traits@D@std@@V?$allocator@D@2@@filesystem@std@@YA?AV?$basic_string@DU?$char_traits@D@std@@V?$allocator@D@2@@1@W4__std_code_page@@V?$basic_string_view@_WU?$char_traits@_W@std@@@1@ABV?$allocator@D@1@@Z 10021ac0 f i Config.obj
 0001:00020c10       ??$_Copy_construct_from@U?$output_adapter_protocol@D@detail@nlohmann@@@?$_Ptr_base@U?$output_adapter_protocol@D@detail@nlohmann@@@std@@IAEXABV?$shared_ptr@U?$output_adapter_protocol@D@detail@nlohmann@@@1@@Z 10021c10 f i Config.obj
 0001:00020c10       ??$_Copy_construct_from@Uinput_adapter_protocol@detail@nlohmann@@@?$_Ptr_base@Uinput_adapter_protocol@detail@nlohmann@@@std@@IAEXABV?$shared_ptr@Uinput_adapter_protocol@detail@nlohmann@@@1@@Z 10021c10 f i Config.obj
 0001:00020c50       ??$_Copy_memmove@PBQBDPAPBD@std@@YAPAPBDPBQBD0PAPBD@Z 10021c50 f i Hooks.obj
 0001:00020c50       ??$_Copy_memmove@PAUimpact_info@@PAU1@@std@@YAPAUimpact_info@@PAU1@00@Z 10021c50 f i otheresp.obj
 0001:00020c50       ??$_Copy_memmove@PAPAVDot@@PAPAV1@@std@@YAPAPAVDot@@PAPAV1@00@Z 10021c50 f i Drops+.obj
 0001:00020c50       ??$_Copy_memmove@PADPAD@std@@YAPADPAD00@Z 10021c50 f i Config.obj
 0001:00020c50       ??$_Copy_memmove@PAUhitmarker_info@@PAU1@@std@@YAPAUhitmarker_info@@PAU1@00@Z 10021c50 f i otheresp.obj
 0001:00020c50       ??$_Copy_memmove@PBUwskin@@PAU1@@std@@YAPAUwskin@@PBU1@0PAU1@@Z 10021c50 f i Protobuffs.obj
 0001:00020c50       ??$_Copy_memmove@PBIPAI@std@@YAPAIPBI0PAI@Z 10021c50 f i Protobuffs.obj
 0001:00020c50       ??$_Copy_memmove@PAHPAH@std@@YAPAHPAH00@Z 10021c50 f i Controls.obj
 0001:00020c50       ??$_Copy_memmove@PBHPAH@std@@YAPAHPBH0PAH@Z 10021c50 f i Aimbot.obj
 0001:00020c50       ??$_Copy_memmove@PAPAUPlayerRecords@@PAPAU1@@std@@YAPAPAUPlayerRecords@@PAPAU1@00@Z 10021c50 f i LagComp.obj
 0001:00020c90       ??$_Destroy_in_place@U_Recursive_dir_enum_impl@filesystem@std@@@std@@YAXAAU_Recursive_dir_enum_impl@filesystem@0@@Z 10021c90 f i Config.obj
 0001:00020ca0       ??$_Destroy_in_place@Vinput_stream_adapter@detail@nlohmann@@@std@@YAXAAVinput_stream_adapter@detail@nlohmann@@@Z 10021ca0 f i Config.obj
 0001:00020ca0       ??$_Destroy_in_place@V?$output_stream_adapter@D@detail@nlohmann@@@std@@YAXAAV?$output_stream_adapter@D@detail@nlohmann@@@Z 10021ca0 f i Config.obj
 0001:00020cc0       ??$_Destroy_range@V?$allocator@U_Find_file_handle@filesystem@std@@@std@@@std@@YAXPAU_Find_file_handle@filesystem@0@QAU120@AAV?$allocator@U_Find_file_handle@filesystem@std@@@0@@Z 10021cc0 f i Config.obj
 0001:00020d20       ??$_Destroy_range@V?$allocator@V?$basic_json@Vmap@std@@Vvector@2@V?$basic_string@DU?$char_traits@D@std@@V?$allocator@D@2@@2@_N_J_KNVallocator@2@Uadl_serializer@nlohmann@@@nlohmann@@@std@@@std@@YAXPAV?$basic_json@Vmap@std@@Vvector@2@V?$basic_string@DU?$char_traits@D@std@@V?$allocator@D@2@@2@_N_J_KNVallocator@2@Uadl_serializer@nlohmann@@@nlohmann@@QAV12@AAV?$allocator@V?$basic_json@Vmap@std@@Vvector@2@V?$basic_string@DU?$char_traits@D@std@@V?$allocator@D@2@@2@_N_J_KNVallocator@2@Uadl_serializer@nlohmann@@@nlohmann@@@0@@Z 10021d20 f i Config.obj
 0001:00020d80       ??$_Destroy_range@V?$allocator@V?$basic_string@DU?$char_traits@D@std@@V?$allocator@D@2@@std@@@std@@@std@@YAXPAV?$basic_string@DU?$char_traits@D@std@@V?$allocator@D@2@@0@QAV10@AAV?$allocator@V?$basic_string@DU?$char_traits@D@std@@V?$allocator@D@2@@std@@@0@@Z 10021d80 f i Config.obj
 0001:00020de0       ??$_Destroy_range@V?$allocator@VConfigFile@@@std@@@std@@YAXPAVConfigFile@@QAV1@AAV?$allocator@VConfigFile@@@0@@Z 10021de0 f i Config.obj
 0001:00020e40       ??$_Emplace@V?$basic_string@DU?$char_traits@D@std@@V?$allocator@D@2@@std@@V?$basic_json@Vmap@std@@Vvector@2@V?$basic_string@DU?$char_traits@D@std@@V?$allocator@D@2@@2@_N_J_KNVallocator@2@Uadl_serializer@nlohmann@@@nlohmann@@@?$_Tree@V?$_Tmap_traits@V?$basic_string@DU?$char_traits@D@std@@V?$allocator@D@2@@std@@V?$basic_json@Vmap@std@@Vvector@2@V?$basic_string@DU?$char_traits@D@std@@V?$allocator@D@2@@2@_N_J_KNVallocator@2@Uadl_serializer@nlohmann@@@nlohmann@@U?$less@X@2@V?$allocator@U?$pair@$$CBV?$basic_string@DU?$char_traits@D@std@@V?$allocator@D@2@@std@@V?$basic_json@Vmap@std@@Vvector@2@V?$basic_string@DU?$char_traits@D@std@@V?$allocator@D@2@@2@_N_J_KNVallocator@2@Uadl_serializer@nlohmann@@@nlohmann@@@std@@@2@$0A@@std@@@std@@IAE?AU?$pair@PAU?$_Tree_node@U?$pair@$$CBV?$basic_string@DU?$char_traits@D@std@@V?$allocator@D@2@@std@@V?$basic_json@Vmap@std@@Vvector@2@V?$basic_string@DU?$char_traits@D@std@@V?$allocator@D@2@@2@_N_J_KNVallocator@2@Uadl_serializer@nlohmann@@@nlohmann@@@std@@PAX@std@@_N@1@$$QAV?$basic_string@DU?$char_traits@D@std@@V?$allocator@D@2@@1@$$QAV?$basic_json@Vmap@std@@Vvector@2@V?$basic_string@DU?$char_traits@D@std@@V?$allocator@D@2@@2@_N_J_KNVallocator@2@Uadl_serializer@nlohmann@@@nlohmann@@@Z 10021e40 f i Config.obj
 0001:00020f60       ??$_Emplace_back@ABU?$pair@HPBD@std@@@?$_Uninitialized_backout_al@V?$allocator@U?$pair@HPBD@std@@@std@@@std@@QAEXABU?$pair@HPBD@1@@Z 10021f60 f i Config.obj
 0001:00020f60       ??$_Emplace_back@AAU?$pair@HPBD@std@@@?$_Uninitialized_backout_al@V?$allocator@U?$pair@HPBD@std@@@std@@@std@@QAEXAAU?$pair@HPBD@1@@Z 10021f60 f i tab_Skin_Changer.obj
 0001:00020fc0       ??$_Emplace_back@U_Find_file_handle@filesystem@std@@@?$_Uninitialized_backout_al@V?$allocator@U_Find_file_handle@filesystem@std@@@std@@@std@@QAEX$$QAU_Find_file_handle@filesystem@1@@Z 10021fc0 f i Config.obj
 0001:00021020       ??$_Emplace_back@V?$basic_json@Vmap@std@@Vvector@2@V?$basic_string@DU?$char_traits@D@std@@V?$allocator@D@2@@2@_N_J_KNVallocator@2@Uadl_serializer@nlohmann@@@nlohmann@@@?$_Uninitialized_backout_al@V?$allocator@V?$basic_json@Vmap@std@@Vvector@2@V?$basic_string@DU?$char_traits@D@std@@V?$allocator@D@2@@2@_N_J_KNVallocator@2@Uadl_serializer@nlohmann@@@nlohmann@@@std@@@std@@QAEX$$QAV?$basic_json@Vmap@std@@Vvector@2@V?$basic_string@DU?$char_traits@D@std@@V?$allocator@D@2@@2@_N_J_KNVallocator@2@Uadl_serializer@nlohmann@@@nlohmann@@@Z 10022020 f i Config.obj
 0001:00021080       ??$_Emplace_back@V?$basic_string@DU?$char_traits@D@std@@V?$allocator@D@2@@std@@@?$_Uninitialized_backout_al@V?$allocator@V?$basic_string@DU?$char_traits@D@std@@V?$allocator@D@2@@std@@@std@@@std@@QAEX$$QAV?$basic_string@DU?$char_traits@D@std@@V?$allocator@D@2@@1@@Z 10022080 f i Config.obj
 0001:000210e0       ??$_Emplace_back@VConfigFile@@@?$_Uninitialized_backout_al@V?$allocator@VConfigFile@@@std@@@std@@QAEX$$QAVConfigFile@@@Z 100220e0 f i Config.obj
 0001:00021140       ??$_Emplace_back_with_unused_capacity@AAVConfigFile@@@?$vector@VConfigFile@@V?$allocator@VConfigFile@@@std@@@std@@AAEAAVConfigFile@@AAV2@@Z 10022140 f i Config.obj
 0001:000211d0       ??$_Emplace_back_with_unused_capacity@D@?$vector@DV?$allocator@D@std@@@std@@AAEAAD$$QAD@Z 100221d0 f i Config.obj
 0001:00021260       ??$_Emplace_back_with_unused_capacity@U_Find_file_handle@filesystem@std@@@?$vector@U_Find_file_handle@filesystem@std@@V?$allocator@U_Find_file_handle@filesystem@std@@@3@@std@@AAEAAU_Find_file_handle@filesystem@1@$$QAU231@@Z 10022260 f i Config.obj
 0001:000212f0       ??$_Emplace_back_with_unused_capacity@V?$basic_json@Vmap@std@@Vvector@2@V?$basic_string@DU?$char_traits@D@std@@V?$allocator@D@2@@2@_N_J_KNVallocator@2@Uadl_serializer@nlohmann@@@nlohmann@@@?$vector@V?$basic_json@Vmap@std@@Vvector@2@V?$basic_string@DU?$char_traits@D@std@@V?$allocator@D@2@@2@_N_J_KNVallocator@2@Uadl_serializer@nlohmann@@@nlohmann@@V?$allocator@V?$basic_json@Vmap@std@@Vvector@2@V?$basic_string@DU?$char_traits@D@std@@V?$allocator@D@2@@2@_N_J_KNVallocator@2@Uadl_serializer@nlohmann@@@nlohmann@@@std@@@std@@AAEAAV?$basic_json@Vmap@std@@Vvector@2@V?$basic_string@DU?$char_traits@D@std@@V?$allocator@D@2@@2@_N_J_KNVallocator@2@Uadl_serializer@nlohmann@@@nlohmann@@$$QAV23@@Z 100222f0 f i Config.obj
 0001:00021380       ??$_Emplace_back_with_unused_capacity@V?$basic_string@DU?$char_traits@D@std@@V?$allocator@D@2@@std@@@?$vector@V?$basic_string@DU?$char_traits@D@std@@V?$allocator@D@2@@std@@V?$allocator@V?$basic_string@DU?$char_traits@D@std@@V?$allocator@D@2@@std@@@2@@std@@AAEAAV?$basic_string@DU?$char_traits@D@std@@V?$allocator@D@2@@1@$$QAV21@@Z 10022380 f i Config.obj
 0001:00021410       ??$_Emplace_reallocate@AAVConfigFile@@@?$vector@VConfigFile@@V?$allocator@VConfigFile@@@std@@@std@@QAEPAVConfigFile@@QAV2@AAV2@@Z 10022410 f i Config.obj
 0001:000215f0       ??$_Emplace_reallocate@D@?$vector@DV?$allocator@D@std@@@std@@QAEPADQAD$$QAD@Z 100225f0 f i Config.obj
 0001:000217c0       ??$_Emplace_reallocate@U_Find_file_handle@filesystem@std@@@?$vector@U_Find_file_handle@filesystem@std@@V?$allocator@U_Find_file_handle@filesystem@std@@@3@@std@@QAEPAU_Find_file_handle@filesystem@1@QAU231@$$QAU231@@Z 100227c0 f i Config.obj
 0001:000219a0       ??$_Emplace_reallocate@V?$basic_json@Vmap@std@@Vvector@2@V?$basic_string@DU?$char_traits@D@std@@V?$allocator@D@2@@2@_N_J_KNVallocator@2@Uadl_serializer@nlohmann@@@nlohmann@@@?$vector@V?$basic_json@Vmap@std@@Vvector@2@V?$basic_string@DU?$char_traits@D@std@@V?$allocator@D@2@@2@_N_J_KNVallocator@2@Uadl_serializer@nlohmann@@@nlohmann@@V?$allocator@V?$basic_json@Vmap@std@@Vvector@2@V?$basic_string@DU?$char_traits@D@std@@V?$allocator@D@2@@2@_N_J_KNVallocator@2@Uadl_serializer@nlohmann@@@nlohmann@@@std@@@std@@QAEPAV?$basic_json@Vmap@std@@Vvector@2@V?$basic_string@DU?$char_traits@D@std@@V?$allocator@D@2@@2@_N_J_KNVallocator@2@Uadl_serializer@nlohmann@@@nlohmann@@QAV23@$$QAV23@@Z 100229a0 f i Config.obj
 0001:00021b80       ??$_Emplace_reallocate@V?$basic_string@DU?$char_traits@D@std@@V?$allocator@D@2@@std@@@?$vector@V?$basic_string@DU?$char_traits@D@std@@V?$allocator@D@2@@std@@V?$allocator@V?$basic_string@DU?$char_traits@D@std@@V?$allocator@D@2@@std@@@2@@std@@QAEPAV?$basic_string@DU?$char_traits@D@std@@V?$allocator@D@2@@1@QAV21@$$QAV21@@Z 10022b80 f i Config.obj
 0001:00021d60       ??$_Erase_head@V?$allocator@U?$_Tree_node@U?$pair@$$CBV?$basic_string@DU?$char_traits@D@std@@V?$allocator@D@2@@std@@V?$basic_json@Vmap@std@@Vvector@2@V?$basic_string@DU?$char_traits@D@std@@V?$allocator@D@2@@2@_N_J_KNVallocator@2@Uadl_serializer@nlohmann@@@nlohmann@@@std@@PAX@std@@@std@@@?$_Tree_val@U?$_Tree_simple_types@U?$pair@$$CBV?$basic_string@DU?$char_traits@D@std@@V?$allocator@D@2@@std@@V?$basic_json@Vmap@std@@Vvector@2@V?$basic_string@DU?$char_traits@D@std@@V?$allocator@D@2@@2@_N_J_KNVallocator@2@Uadl_serializer@nlohmann@@@nlohmann@@@std@@@std@@@std@@QAEXAAV?$allocator@U?$_Tree_node@U?$pair@$$CBV?$basic_string@DU?$char_traits@D@std@@V?$allocator@D@2@@std@@V?$basic_json@Vmap@std@@Vvector@2@V?$basic_string@DU?$char_traits@D@std@@V?$allocator@D@2@@2@_N_J_KNVallocator@2@Uadl_serializer@nlohmann@@@nlohmann@@@std@@PAX@std@@@1@@Z 10022d60 f i Config.obj
 0001:00021da0       ??$_Erase_tree@V?$allocator@U?$_Tree_node@U?$pair@$$CBV?$basic_string@DU?$char_traits@D@std@@V?$allocator@D@2@@std@@V?$basic_json@Vmap@std@@Vvector@2@V?$basic_string@DU?$char_traits@D@std@@V?$allocator@D@2@@2@_N_J_KNVallocator@2@Uadl_serializer@nlohmann@@@nlohmann@@@std@@PAX@std@@@std@@@?$_Tree_val@U?$_Tree_simple_types@U?$pair@$$CBV?$basic_string@DU?$char_traits@D@std@@V?$allocator@D@2@@std@@V?$basic_json@Vmap@std@@Vvector@2@V?$basic_string@DU?$char_traits@D@std@@V?$allocator@D@2@@2@_N_J_KNVallocator@2@Uadl_serializer@nlohmann@@@nlohmann@@@std@@@std@@@std@@QAEXAAV?$allocator@U?$_Tree_node@U?$pair@$$CBV?$basic_string@DU?$char_traits@D@std@@V?$allocator@D@2@@std@@V?$basic_json@Vmap@std@@Vvector@2@V?$basic_string@DU?$char_traits@D@std@@V?$allocator@D@2@@2@_N_J_KNVallocator@2@Uadl_serializer@nlohmann@@@nlohmann@@@std@@PAX@std@@@1@PAU?$_Tree_node@U?$pair@$$CBV?$basic_string@DU?$char_traits@D@std@@V?$allocator@D@2@@std@@V?$basic_json@Vmap@std@@Vvector@2@V?$basic_string@DU?$char_traits@D@std@@V?$allocator@D@2@@2@_N_J_KNVallocator@2@Uadl_serializer@nlohmann@@@nlohmann@@@std@@PAX@1@@Z 10022da0 f i Config.obj
 0001:00021df0       ??$_Fgetc@D@std@@YA_NAADPAU_iobuf@@@Z 10022df0 f i Config.obj
 0001:00021e20       ??$_Find_lower_bound@V?$basic_string@DU?$char_traits@D@std@@V?$allocator@D@2@@std@@@?$_Tree@V?$_Tmap_traits@V?$basic_string@DU?$char_traits@D@std@@V?$allocator@D@2@@std@@V?$basic_json@Vmap@std@@Vvector@2@V?$basic_string@DU?$char_traits@D@std@@V?$allocator@D@2@@2@_N_J_KNVallocator@2@Uadl_serializer@nlohmann@@@nlohmann@@U?$less@X@2@V?$allocator@U?$pair@$$CBV?$basic_string@DU?$char_traits@D@std@@V?$allocator@D@2@@std@@V?$basic_json@Vmap@std@@Vvector@2@V?$basic_string@DU?$char_traits@D@std@@V?$allocator@D@2@@2@_N_J_KNVallocator@2@Uadl_serializer@nlohmann@@@nlohmann@@@std@@@2@$0A@@std@@@std@@IBE?AU?$_Tree_find_result@PAU?$_Tree_node@U?$pair@$$CBV?$basic_string@DU?$char_traits@D@std@@V?$allocator@D@2@@std@@V?$basic_json@Vmap@std@@Vvector@2@V?$basic_string@DU?$char_traits@D@std@@V?$allocator@D@2@@2@_N_J_KNVallocator@2@Uadl_serializer@nlohmann@@@nlohmann@@@std@@PAX@std@@@1@ABV?$basic_string@DU?$char_traits@D@std@@V?$allocator@D@2@@1@@Z 10022e20 f i Config.obj
 0001:00021ee0       ??$_Find_unchecked1@PB_W_W@std@@YAPB_WPB_WQB_WAB_WU?$integral_constant@_N$0A@@0@@Z 10022ee0 f i Config.obj
 0001:00021f10       ??$_Find_unchecked@PB_W_W@std@@YAPB_WQB_W0AB_W@Z 10022f10 f i Config.obj
 0001:00021f40       ??$_Fputc@D@std@@YA_NDPAU_iobuf@@@Z 10022f40 f i Config.obj
 0001:00021f80       ??$_Freenode0@V?$allocator@U?$_Tree_node@U?$pair@QAXU?$pair@V?$basic_string@DU?$char_traits@D@std@@V?$allocator@D@2@@std@@V?$vector@V?$basic_string@DU?$char_traits@D@std@@V?$allocator@D@2@@std@@V?$allocator@V?$basic_string@DU?$char_traits@D@std@@V?$allocator@D@2@@std@@@2@@2@@std@@@std@@PAX@std@@@std@@@?$_Tree_node@U?$pair@QAXU?$pair@V?$basic_string@DU?$char_traits@D@std@@V?$allocator@D@2@@std@@V?$vector@V?$basic_string@DU?$char_traits@D@std@@V?$allocator@D@2@@std@@V?$allocator@V?$basic_string@DU?$char_traits@D@std@@V?$allocator@D@2@@std@@@2@@2@@std@@@std@@PAX@std@@SAXAAV?$allocator@U?$_Tree_node@U?$pair@QAXU?$pair@V?$basic_string@DU?$char_traits@D@std@@V?$allocator@D@2@@std@@V?$vector@V?$basic_string@DU?$char_traits@D@std@@V?$allocator@D@2@@std@@V?$allocator@V?$basic_string@DU?$char_traits@D@std@@V?$allocator@D@2@@std@@@2@@2@@std@@@std@@PAX@std@@@1@PAU01@@Z 10022f80 f i NetvarManager.obj
 0001:00021f80       ??$_Freenode0@V?$allocator@U?$_Tree_node@U?$pair@$$CBV?$basic_string@DU?$char_traits@D@std@@V?$allocator@D@2@@std@@V?$basic_json@Vmap@std@@Vvector@2@V?$basic_string@DU?$char_traits@D@std@@V?$allocator@D@2@@2@_N_J_KNVallocator@2@Uadl_serializer@nlohmann@@@nlohmann@@@std@@PAX@std@@@std@@@?$_Tree_node@U?$pair@$$CBV?$basic_string@DU?$char_traits@D@std@@V?$allocator@D@2@@std@@V?$basic_json@Vmap@std@@Vvector@2@V?$basic_string@DU?$char_traits@D@std@@V?$allocator@D@2@@2@_N_J_KNVallocator@2@Uadl_serializer@nlohmann@@@nlohmann@@@std@@PAX@std@@SAXAAV?$allocator@U?$_Tree_node@U?$pair@$$CBV?$basic_string@DU?$char_traits@D@std@@V?$allocator@D@2@@std@@V?$basic_json@Vmap@std@@Vvector@2@V?$basic_string@DU?$char_traits@D@std@@V?$allocator@D@2@@2@_N_J_KNVallocator@2@Uadl_serializer@nlohmann@@@nlohmann@@@std@@PAX@std@@@1@PAU01@@Z 10022f80 f i Config.obj
 0001:00021ff0       ??$_Freenode@V?$allocator@U?$_Tree_node@U?$pair@$$CBV?$basic_string@DU?$char_traits@D@std@@V?$allocator@D@2@@std@@V?$basic_json@Vmap@std@@Vvector@2@V?$basic_string@DU?$char_traits@D@std@@V?$allocator@D@2@@2@_N_J_KNVallocator@2@Uadl_serializer@nlohmann@@@nlohmann@@@std@@PAX@std@@@std@@@?$_Tree_node@U?$pair@$$CBV?$basic_string@DU?$char_traits@D@std@@V?$allocator@D@2@@std@@V?$basic_json@Vmap@std@@Vvector@2@V?$basic_string@DU?$char_traits@D@std@@V?$allocator@D@2@@2@_N_J_KNVallocator@2@Uadl_serializer@nlohmann@@@nlohmann@@@std@@PAX@std@@SAXAAV?$allocator@U?$_Tree_node@U?$pair@$$CBV?$basic_string@DU?$char_traits@D@std@@V?$allocator@D@2@@std@@V?$basic_json@Vmap@std@@Vvector@2@V?$basic_string@DU?$char_traits@D@std@@V?$allocator@D@2@@2@_N_J_KNVallocator@2@Uadl_serializer@nlohmann@@@nlohmann@@@std@@PAX@std@@@1@PAU01@@Z 10022ff0 f i Config.obj
 0001:00022050       ??$_Get_size_of_n@$01@std@@YAII@Z 10023050 f i Config.obj
 0001:00022080       ??$_Get_size_of_n@$03@std@@YAII@Z 10023080 f i Config.obj
 0001:000220b0       ??$_Get_size_of_n@$07@std@@YAII@Z 100230b0 f i Config.obj
 0001:000220e0       ??$_Get_size_of_n@$0BA@@std@@YAII@Z 100230e0 f i Config.obj
 0001:00022110       ??$_Get_size_of_n@$0BI@@std@@YAII@Z 10023110 f i Config.obj
 0001:00022140       ??$_Get_size_of_n@$0DA@@std@@YAII@Z 10023140 f i Config.obj
 0001:00022170       ??$_Get_size_of_n@$0DI@@std@@YAII@Z 10023170 f i Config.obj
 0001:000221a0       ??$_Get_size_of_n@$0M@@std@@YAII@Z 100231a0 f i Config.obj
 0001:000221d0       ??$_Get_unwrapped@ABQAUhitmarker_info@@@std@@YAPAUhitmarker_info@@ABQAU1@@Z 100231d0 f i otheresp.obj
 0001:000221d0       ??$_Get_unwrapped@ABQAUVertex_t@@@std@@YAPAUVertex_t@@ABQAU1@@Z 100231d0 f i Visuals.obj
 0001:000221d0       ??$_Get_unwrapped@ABQAU?$pair@HPBD@std@@@std@@YAPAU?$pair@HPBD@0@ABQAU10@@Z 100231d0 f i tab_Skin_Changer.obj
 0001:000221d0       ??$_Get_unwrapped@ABQAVVector@@@std@@YAPAVVector@@ABQAV1@@Z 100231d0 f i grenadetracer.obj
 0001:000221d0       ??$get@$0A@ABQAD@std@@YAABQAD$$QAV?$tuple@ABQAD@0@@Z 100231d0 f i skinchanger.obj
 0001:000221d0       ??$_Get_unwrapped@ABQAUimpact_info@@@std@@YAPAUimpact_info@@ABQAU1@@Z 100231d0 f i otheresp.obj
 0001:000221d0       ??$_Get_unwrapped@ABQBQBD@std@@YAPBQBDABQBQBD@Z 100231d0 f i Hooks.obj
 0001:000221d0       ??$_Get_unwrapped@AAPAD@std@@YAPADAAPAD@Z 100231d0 f i Config.obj
 0001:000221d0       ??$_Get_unwrapped@ABQAV?$basic_json@Vmap@std@@Vvector@2@V?$basic_string@DU?$char_traits@D@std@@V?$allocator@D@2@@2@_N_J_KNVallocator@2@Uadl_serializer@nlohmann@@@nlohmann@@@std@@YAPAV?$basic_json@Vmap@std@@Vvector@2@V?$basic_string@DU?$char_traits@D@std@@V?$allocator@D@2@@2@_N_J_KNVallocator@2@Uadl_serializer@nlohmann@@@nlohmann@@ABQAV12@@Z 100231d0 f i Config.obj
 0001:000221d0       ??$_Get_unwrapped@ABQAPAUPlayerRecords@@@std@@YAPAPAUPlayerRecords@@ABQAPAU1@@Z 100231d0 f i LagComp.obj
 0001:000221d0       ??$_Get_unwrapped@ABQAH@std@@YAPAHABQAH@Z 100231d0 f i Controls.obj
 0001:000221d0       ??$_Get_unwrapped_n@AAPAPAUPlayerRecords@@H@std@@YAPAPAUPlayerRecords@@AAPAPAU1@H@Z 100231d0 f i LagComp.obj
 0001:000221d0       ??$_Get_unwrapped@AAPBV?$json_ref@V?$basic_json@Vmap@std@@Vvector@2@V?$basic_string@DU?$char_traits@D@std@@V?$allocator@D@2@@2@_N_J_KNVallocator@2@Uadl_serializer@nlohmann@@@nlohmann@@@detail@nlohmann@@@std@@YAPBV?$json_ref@V?$basic_json@Vmap@std@@Vvector@2@V?$basic_string@DU?$char_traits@D@std@@V?$allocator@D@2@@2@_N_J_KNVallocator@2@Uadl_serializer@nlohmann@@@nlohmann@@@detail@nlohmann@@AAPBV123@@Z 100231d0 f i tab_Login.obj
 0001:000221d0       ??$_Get_unwrapped@ABQAVsound_info@@@std@@YAPAVsound_info@@ABQAV1@@Z 100231d0 f i Hooks.obj
 0001:000221d0       ??$_Get_unwrapped@ABQBI@std@@YAPBIABQBI@Z 100231d0 f i Protobuffs.obj
 0001:000221d0       ??$_Get_unwrapped@ABQAVtrace_info@bullettracers@@@std@@YAPAVtrace_info@bullettracers@@ABQAV12@@Z 100231d0 f i bullettracers.obj
 0001:000221d0       ??$_Get_unwrapped@ABQAV?$_List_unchecked_iterator@V?$_List_val@U?$_List_simple_types@U?$pair@QADPAD@std@@@std@@@std@@@std@@@std@@YAPAV?$_List_unchecked_iterator@V?$_List_val@U?$_List_simple_types@U?$pair@QADPAD@std@@@std@@@std@@@0@ABQAV10@@Z 100231d0 f i skinchanger.obj
 0001:000221d0       ??$_Get_unwrapped@ABQB_W@std@@YAPB_WABQB_W@Z 100231d0 f i Config.obj
 0001:000221d0       ??$get@$0A@ABV?$basic_string@DU?$char_traits@D@std@@V?$allocator@D@2@@std@@@std@@YAABV?$basic_string@DU?$char_traits@D@std@@V?$allocator@D@2@@0@$$QAV?$tuple@ABV?$basic_string@DU?$char_traits@D@std@@V?$allocator@D@2@@std@@@0@@Z 100231d0 f i Config.obj
 0001:000221d0       ??$_Get_unwrapped@ABQAU_Find_file_handle@filesystem@std@@@std@@YAPAU_Find_file_handle@filesystem@0@ABQAU120@@Z 100231d0 f i Config.obj
 0001:000221d0       ??$_Get_unwrapped@ABQAD@std@@YAPADABQAD@Z 100231d0 f i Config.obj
 0001:000221d0       ??$_Get_unwrapped@ABQAU?$pair@V?$basic_string@DU?$char_traits@D@std@@V?$allocator@D@2@@std@@VColor@@@std@@@std@@YAPAU?$pair@V?$basic_string@DU?$char_traits@D@std@@V?$allocator@D@2@@std@@VColor@@@0@ABQAU10@@Z 100231d0 f i Visuals.obj
 0001:000221d0       ??$_Get_unwrapped@AAPB_W@std@@YAPB_WAAPB_W@Z 100231d0 f i Config.obj
 0001:000221d0       ??$_Get_unwrapped@ABQAV?$vector@UField@@V?$allocator@UField@@@std@@@std@@@std@@YAPAV?$vector@UField@@V?$allocator@UField@@@std@@@0@ABQAV10@@Z 100231d0 f i Protobuffs.obj
 0001:000221d0       ??$_Get_unwrapped@ABQAV?$_List_unchecked_iterator@V?$_List_val@U?$_List_simple_types@U?$pair@$$CBV?$basic_string@DU?$char_traits@D@std@@V?$allocator@D@2@@std@@I@std@@@std@@@std@@@std@@@std@@YAPAV?$_List_unchecked_iterator@V?$_List_val@U?$_List_simple_types@U?$pair@$$CBV?$basic_string@DU?$char_traits@D@std@@V?$allocator@D@2@@std@@I@std@@@std@@@std@@@0@ABQAV10@@Z 100231d0 f i NetvarManager.obj
 0001:000221d0       ??$_Get_unwrapped@ABQAVConfigFile@@@std@@YAPAVConfigFile@@ABQAV1@@Z 100231d0 f i Config.obj
 0001:000221d0       ??$_Get_unwrapped@ABQBV?$json_ref@V?$basic_json@Vmap@std@@Vvector@2@V?$basic_string@DU?$char_traits@D@std@@V?$allocator@D@2@@2@_N_J_KNVallocator@2@Uadl_serializer@nlohmann@@@nlohmann@@@detail@nlohmann@@@std@@YAPBV?$json_ref@V?$basic_json@Vmap@std@@Vvector@2@V?$basic_string@DU?$char_traits@D@std@@V?$allocator@D@2@@2@_N_J_KNVallocator@2@Uadl_serializer@nlohmann@@@nlohmann@@@detail@nlohmann@@ABQBV123@@Z 100231d0 f i tab_Login.obj
 0001:000221d0       ??$_Get_unwrapped@ABQAV?$basic_string@DU?$char_traits@D@std@@V?$allocator@D@2@@std@@@std@@YAPAV?$basic_string@DU?$char_traits@D@std@@V?$allocator@D@2@@0@ABQAV10@@Z 100231d0 f i Config.obj
 0001:000221d0       ??$_Get_unwrapped@ABQAUnotify_data_t@@@std@@YAPAUnotify_data_t@@ABQAU1@@Z 100231d0 f i notifies.obj
 0001:000221d0       ??$_Get_unwrapped@AAPAU?$pair@HPBD@std@@@std@@YAPAU?$pair@HPBD@0@AAPAU10@@Z 100231d0 f i tab_Skin_Changer.obj
 0001:000221d0       ??$_Get_unwrapped@ABQBUwskin@@@std@@YAPBUwskin@@ABQBU1@@Z 100231d0 f i Protobuffs.obj
 0001:000221d0       ??$get@$0A@$$QAV?$basic_string@DU?$char_traits@D@std@@V?$allocator@D@2@@std@@@std@@YA$$QAV?$basic_string@DU?$char_traits@D@std@@V?$allocator@D@2@@0@$$QAV?$tuple@$$QAV?$basic_string@DU?$char_traits@D@std@@V?$allocator@D@2@@std@@@0@@Z 100231d0 f i Config.obj
 0001:000221d0       ??$_Get_unwrapped@ABQAPAVDot@@@std@@YAPAPAVDot@@ABQAPAV1@@Z 100231d0 f i Drops+.obj
 0001:000221d0       ??$_Get_unwrapped@ABQBH@std@@YAPBHABQBH@Z 100231d0 f i Aimbot.obj
 0001:000221d0       ??$_Get_unwrapped@ABQAV?$_List_unchecked_iterator@V?$_List_val@U?$_List_simple_types@U?$pair@$$CBV?$basic_string@DU?$char_traits@D@std@@V?$allocator@D@2@@std@@V?$unique_ptr@UNetvarTable@@U?$default_delete@UNetvarTable@@@std@@@2@@std@@@std@@@std@@@std@@@std@@YAPAV?$_List_unchecked_iterator@V?$_List_val@U?$_List_simple_types@U?$pair@$$CBV?$basic_string@DU?$char_traits@D@std@@V?$allocator@D@2@@std@@V?$unique_ptr@UNetvarTable@@U?$default_delete@UNetvarTable@@@std@@@2@@std@@@std@@@std@@@0@ABQAV10@@Z 100231d0 f i NetvarManager.obj
 0001:000221d0       ??$_Get_unwrapped@ABQAU?$pair@VVector@@VQAngle@@@std@@@std@@YAPAU?$pair@VVector@@VQAngle@@@0@ABQAU10@@Z 100231d0 f i grenadetracer.obj
 0001:000221d0       ??$_Get_unwrapped@ABQBU?$pair@HPBD@std@@@std@@YAPBU?$pair@HPBD@0@ABQBU10@@Z 100231d0 f i Config.obj
 0001:000221d0       ??$_Get_unwrapped@ABQAUField@@@std@@YAPAUField@@ABQAU1@@Z 100231d0 f i Protobuffs.obj
 0001:000221e0       ??$_Get_unwrapped@ABV?$_Array_iterator@D$0EA@@std@@@std@@YAPADABV?$_Array_iterator@D$0EA@@0@@Z 100231e0 f i Config.obj
 0001:000221f0       ??$_Get_unwrapped@AAV?$_Vector_const_iterator@V?$_Vector_val@U?$_Simple_types@H@std@@@std@@@std@@@std@@YAPBHAAV?$_Vector_const_iterator@V?$_Vector_val@U?$_Simple_types@H@std@@@std@@@0@@Z 100231f0 f i Aimbot.obj
 0001:000221f0       ??$_Get_unwrapped@ABV?$_Vector_const_iterator@V?$_Vector_val@U?$_Simple_types@H@std@@@std@@@std@@@std@@YAPBHABV?$_Vector_const_iterator@V?$_Vector_val@U?$_Simple_types@H@std@@@std@@@0@@Z 100231f0 f i Aimbot.obj
 0001:000221f0       ??$_Get_unwrapped@ABV?$_Vector_iterator@V?$_Vector_val@U?$_Simple_types@H@std@@@std@@@std@@@std@@YAPAHABV?$_Vector_iterator@V?$_Vector_val@U?$_Simple_types@H@std@@@std@@@0@@Z 100231f0 f i Hooks.obj
 0001:000221f0       ??$_Get_unwrapped@ABV?$_Vector_iterator@V?$_Vector_val@U?$_Simple_types@V?$basic_string@DU?$char_traits@D@std@@V?$allocator@D@2@@std@@@std@@@std@@@std@@@std@@YAPAV?$basic_string@DU?$char_traits@D@std@@V?$allocator@D@2@@0@ABV?$_Vector_iterator@V?$_Vector_val@U?$_Simple_types@V?$basic_string@DU?$char_traits@D@std@@V?$allocator@D@2@@std@@@std@@@std@@@0@@Z 100231f0 f i Config.obj
 0001:000221f0       ??$_Get_unwrapped@ABV?$_String_iterator@V?$_String_val@U?$_Simple_types@D@std@@@std@@@std@@@std@@YAPADABV?$_String_iterator@V?$_String_val@U?$_Simple_types@D@std@@@std@@@0@@Z 100231f0 f i Visuals.obj
 0001:000221f0       ??$_Get_unwrapped@AAV?$_Vector_iterator@V?$_Vector_val@U?$_Simple_types@H@std@@@std@@@std@@@std@@YAPAHAAV?$_Vector_iterator@V?$_Vector_val@U?$_Simple_types@H@std@@@std@@@0@@Z 100231f0 f i Hooks.obj
 0001:000221f0       ??$_Get_unwrapped@AAV?$_String_iterator@V?$_String_val@U?$_Simple_types@D@std@@@std@@@std@@@std@@YAPADAAV?$_String_iterator@V?$_String_val@U?$_Simple_types@D@std@@@std@@@0@@Z 100231f0 f i Hooks.obj
 0001:000221f0       ??$_Get_unwrapped@ABV?$_Vector_iterator@V?$_Vector_val@U?$_Simple_types@PAVDot@@@std@@@std@@@std@@@std@@YAPAPAVDot@@ABV?$_Vector_iterator@V?$_Vector_val@U?$_Simple_types@PAVDot@@@std@@@std@@@0@@Z 100231f0 f i Drops+.obj
 0001:000221f0       ??$_Get_unwrapped@AAV?$_Vector_iterator@V?$_Vector_val@U?$_Simple_types@PAVDot@@@std@@@std@@@std@@@std@@YAPAPAVDot@@AAV?$_Vector_iterator@V?$_Vector_val@U?$_Simple_types@PAVDot@@@std@@@std@@@0@@Z 100231f0 f i Drops+.obj
 0001:00022200       ??$_Guess_median_unchecked@PAV?$basic_string@DU?$char_traits@D@std@@V?$allocator@D@2@@std@@U?$less@X@2@@std@@YAXPAV?$basic_string@DU?$char_traits@D@std@@V?$allocator@D@2@@0@00U?$less@X@0@@Z 10023200 f i Config.obj
 0001:000222e0       ??$_Immortalize@V_Generic_error_category@std@@@std@@YAAAV_Generic_error_category@0@XZ 100232e0 f i Config.obj
 0001:00022310       ??$_Immortalize@V_System_error_category@std@@@std@@YAAAV_System_error_category@0@XZ 10023310 f i Config.obj
 0001:00022340       ??$_Immortalize_impl@V_Generic_error_category@std@@@std@@YGHPAX0PAPAX@Z 10023340 f i Config.obj
 0001:00022370       ??$_Immortalize_impl@V_System_error_category@std@@@std@@YGHPAX0PAPAX@Z 10023370 f i Config.obj
 0001:000223a0       ??$_Initialize_dir_enum@U_Recursive_dir_enum_impl@filesystem@std@@@_Dir_enum_impl@filesystem@std@@SA?AW4__std_win_error@@AAV?$shared_ptr@U_Recursive_dir_enum_impl@filesystem@std@@@2@ABVpath@12@W4directory_options@12@@Z 100233a0 f i Config.obj
 0001:00022470       ??$_Insertion_sort_unchecked@PAV?$basic_string@DU?$char_traits@D@std@@V?$allocator@D@2@@std@@U?$less@X@2@@std@@YAPAV?$basic_string@DU?$char_traits@D@std@@V?$allocator@D@2@@0@PAV10@QAV10@U?$less@X@0@@Z 10023470 f i Config.obj
 0001:000225c0       ??$_Integral_to_string@DH@std@@YA?AV?$basic_string@DU?$char_traits@D@std@@V?$allocator@D@2@@0@H@Z 100235c0 f i Config.obj
 0001:00022670       ??$_Integral_to_string@DI@std@@YA?AV?$basic_string@DU?$char_traits@D@std@@V?$allocator@D@2@@0@I@Z 10023670 f i Config.obj
 0001:00022720       ??$_Lower_bound_duplicate@V?$basic_string@DU?$char_traits@D@std@@V?$allocator@D@2@@std@@@?$_Tree@V?$_Tmap_traits@V?$basic_string@DU?$char_traits@D@std@@V?$allocator@D@2@@std@@V?$basic_json@Vmap@std@@Vvector@2@V?$basic_string@DU?$char_traits@D@std@@V?$allocator@D@2@@2@_N_J_KNVallocator@2@Uadl_serializer@nlohmann@@@nlohmann@@U?$less@X@2@V?$allocator@U?$pair@$$CBV?$basic_string@DU?$char_traits@D@std@@V?$allocator@D@2@@std@@V?$basic_json@Vmap@std@@Vvector@2@V?$basic_string@DU?$char_traits@D@std@@V?$allocator@D@2@@2@_N_J_KNVallocator@2@Uadl_serializer@nlohmann@@@nlohmann@@@std@@@2@$0A@@std@@@std@@IBE_NQAU?$_Tree_node@U?$pair@$$CBV?$basic_string@DU?$char_traits@D@std@@V?$allocator@D@2@@std@@V?$basic_json@Vmap@std@@Vvector@2@V?$basic_string@DU?$char_traits@D@std@@V?$allocator@D@2@@2@_N_J_KNVallocator@2@Uadl_serializer@nlohmann@@@nlohmann@@@std@@PAX@1@ABV?$basic_string@DU?$char_traits@D@std@@V?$allocator@D@2@@1@@Z 10023720 f i Config.obj
 0001:00022790       ??$_Make_heap_unchecked@PAV?$basic_string@DU?$char_traits@D@std@@V?$allocator@D@2@@std@@U?$less@X@2@@std@@YAXPAV?$basic_string@DU?$char_traits@D@std@@V?$allocator@D@2@@0@0U?$less@X@0@@Z 10023790 f i Config.obj
 0001:00022850       ??$_Med3_unchecked@PAV?$basic_string@DU?$char_traits@D@std@@V?$allocator@D@2@@std@@U?$less@X@2@@std@@YAXPAV?$basic_string@DU?$char_traits@D@std@@V?$allocator@D@2@@0@00U?$less@X@0@@Z 10023850 f i Config.obj
 0001:000228d0       ??$_Move_backward_unchecked@PAV?$basic_string@DU?$char_traits@D@std@@V?$allocator@D@2@@std@@PAV12@@std@@YAPAV?$basic_string@DU?$char_traits@D@std@@V?$allocator@D@2@@0@PAV10@00@Z 100238d0 f i Config.obj
 0001:00022910       ??$_Move_construct_from@Vinput_stream_adapter@detail@nlohmann@@@?$_Ptr_base@Vinput_stream_adapter@detail@nlohmann@@@std@@IAEX$$QAV01@@Z 10023910 f i Config.obj
 0001:00022910       ??$_Move_construct_from@VColor@@@?$_Ptr_base@VColor@@@std@@IAEX$$QAV01@@Z 10023910 f i Config.obj
 0001:00022910       ??$_Move_construct_from@V?$output_stream_adapter@D@detail@nlohmann@@@?$_Ptr_base@V?$output_stream_adapter@D@detail@nlohmann@@@std@@IAEX$$QAV01@@Z 10023910 f i Config.obj
 0001:00022910       ??$_Move_construct_from@V?$output_stream_adapter@D@detail@nlohmann@@@?$_Ptr_base@U?$output_adapter_protocol@D@detail@nlohmann@@@std@@IAEX$$QAV?$_Ptr_base@V?$output_stream_adapter@D@detail@nlohmann@@@1@@Z 10023910 f i Config.obj
 0001:00022910       ??$_Move_construct_from@Uinput_adapter_protocol@detail@nlohmann@@@?$_Ptr_base@Uinput_adapter_protocol@detail@nlohmann@@@std@@IAEX$$QAV01@@Z 10023910 f i Config.obj
 0001:00022910       ??$_Move_construct_from@U_Recursive_dir_enum_impl@filesystem@std@@@?$_Ptr_base@U_Recursive_dir_enum_impl@filesystem@std@@@std@@IAEX$$QAV01@@Z 10023910 f i Config.obj
 0001:00022910       ??$_Move_construct_from@Vinput_stream_adapter@detail@nlohmann@@@?$_Ptr_base@Uinput_adapter_protocol@detail@nlohmann@@@std@@IAEX$$QAV?$_Ptr_base@Vinput_stream_adapter@detail@nlohmann@@@1@@Z 10023910 f i Config.obj
 0001:00022910       ??$_Move_construct_from@U?$output_adapter_protocol@D@detail@nlohmann@@@?$_Ptr_base@U?$output_adapter_protocol@D@detail@nlohmann@@@std@@IAEX$$QAV01@@Z 10023910 f i Config.obj
 0001:00022950       ??$_Partition_by_median_guess_unchecked@PAV?$basic_string@DU?$char_traits@D@std@@V?$allocator@D@2@@std@@U?$less@X@2@@std@@YA?AU?$pair@PAV?$basic_string@DU?$char_traits@D@std@@V?$allocator@D@2@@std@@PAV12@@0@PAV?$basic_string@DU?$char_traits@D@std@@V?$allocator@D@2@@0@0U?$less@X@0@@Z 10023950 f i Config.obj
 0001:00022c10       ??$_Pass_fn@U?$less@X@std@@$0A@@std@@YA?AU?$less@X@0@U10@@Z 10023c10 f i Config.obj
 0001:00022c20       ??$_Pocma@V?$allocator@D@std@@@std@@YAXAAV?$allocator@D@0@0@Z 10023c20 f i Config.obj
 0001:00022c20       ??$_Pocma@V?$allocator@V?$basic_string@DU?$char_traits@D@std@@V?$allocator@D@2@@std@@@std@@@std@@YAXAAV?$allocator@V?$basic_string@DU?$char_traits@D@std@@V?$allocator@D@2@@std@@@0@0@Z 10023c20 f i tab_Misc.obj
 0001:00022c20       ??$_Pocma@V?$allocator@_W@std@@@std@@YAXAAV?$allocator@_W@0@0@Z 10023c20 f i Config.obj
 0001:00022c40       ??$_Pop_heap_hole_by_index@PAV?$basic_string@DU?$char_traits@D@std@@V?$allocator@D@2@@std@@V12@U?$less@X@2@@std@@YAXPAV?$basic_string@DU?$char_traits@D@std@@V?$allocator@D@2@@0@HH$$QAV10@U?$less@X@0@@Z 10023c40 f i Config.obj
 0001:00022d40       ??$_Pop_heap_hole_unchecked@PAV?$basic_string@DU?$char_traits@D@std@@V?$allocator@D@2@@std@@V12@U?$less@X@2@@std@@YAXPAV?$basic_string@DU?$char_traits@D@std@@V?$allocator@D@2@@0@00$$QAV10@U?$less@X@0@@Z 10023d40 f i Config.obj
 0001:00022d90       ??$_Pop_heap_unchecked@PAV?$basic_string@DU?$char_traits@D@std@@V?$allocator@D@2@@std@@U?$less@X@2@@std@@YAXPAV?$basic_string@DU?$char_traits@D@std@@V?$allocator@D@2@@0@0U?$less@X@0@@Z 10023d90 f i Config.obj
 0001:00022e40       ??$_Push_heap_by_index@PAV?$basic_string@DU?$char_traits@D@std@@V?$allocator@D@2@@std@@V12@U?$less@X@2@@std@@YAXPAV?$basic_string@DU?$char_traits@D@std@@V?$allocator@D@2@@0@HH$$QAV10@U?$less@X@0@@Z 10023e40 f i Config.obj
 0001:00022ed0       ??$_Range_construct_or_tidy@PBU?$pair@HPBD@std@@@?$vector@U?$pair@HPBD@std@@V?$allocator@U?$pair@HPBD@std@@@2@@std@@AAEXPBU?$pair@HPBD@1@0Uforward_iterator_tag@1@@Z 10023ed0 f i Config.obj
 0001:00022f80       ??$_Reallocate_for@V<lambda_1>@?1??assign@?$basic_string@DU?$char_traits@D@std@@V?$allocator@D@2@@std@@QAEAAV34@ID@Z@D@?$basic_string@DU?$char_traits@D@std@@V?$allocator@D@2@@std@@AAEAAV01@IV<lambda_1>@?1??assign@01@QAEAAV01@ID@Z@D@Z 10023f80 f i Config.obj
 0001:00023050       ??$_Reallocate_for@V<lambda_1>@?1??assign@?$basic_string@_WU?$char_traits@_W@std@@V?$allocator@_W@2@@std@@QAEAAV34@QB_WI@Z@PB_W@?$basic_string@_WU?$char_traits@_W@std@@V?$allocator@_W@2@@std@@AAEAAV01@IV<lambda_1>@?1??assign@01@QAEAAV01@QB_WI@Z@PB_W@Z 10024050 f i Config.obj
 0001:00023120       ??$_Reallocate_grow_by@V<lambda_1>@?1??append@?$basic_string@DU?$char_traits@D@std@@V?$allocator@D@2@@std@@QAEAAV34@ID@Z@ID@?$basic_string@DU?$char_traits@D@std@@V?$allocator@D@2@@std@@AAEAAV01@IV<lambda_1>@?1??append@01@QAEAAV01@ID@Z@ID@Z 10024120 f i Config.obj
 0001:00023240       ??$_Reallocate_grow_by@V<lambda_1>@?1??append@?$basic_string@DU?$char_traits@D@std@@V?$allocator@D@2@@std@@QAEAAV34@QBDI@Z@PBDI@?$basic_string@DU?$char_traits@D@std@@V?$allocator@D@2@@std@@AAEAAV01@IV<lambda_1>@?1??append@01@QAEAAV01@QBDI@Z@PBDI@Z 10024240 f i Config.obj
 0001:00023360       ??$_Reallocate_grow_by@V<lambda_1>@?1??append@?$basic_string@_WU?$char_traits@_W@std@@V?$allocator@_W@2@@std@@QAEAAV34@I_W@Z@I_W@?$basic_string@_WU?$char_traits@_W@std@@V?$allocator@_W@2@@std@@AAEAAV01@IV<lambda_1>@?1??append@01@QAEAAV01@I_W@Z@I_W@Z 10024360 f i Config.obj
 0001:00023480       ??$_Reallocate_grow_by@V<lambda_1>@?1??append@?$basic_string@_WU?$char_traits@_W@std@@V?$allocator@_W@2@@std@@QAEAAV34@QB_WI@Z@PB_WI@?$basic_string@_WU?$char_traits@_W@std@@V?$allocator@_W@2@@std@@AAEAAV01@IV<lambda_1>@?1??append@01@QAEAAV01@QB_WI@Z@PB_WI@Z 10024480 f i Config.obj
 0001:000235a0       ??$_Reallocate_grow_by@V<lambda_1>@?1??insert@?$basic_string@DU?$char_traits@D@std@@V?$allocator@D@2@@std@@QAEAAV34@IQBDI@Z@IPBDI@?$basic_string@DU?$char_traits@D@std@@V?$allocator@D@2@@std@@AAEAAV01@IV<lambda_1>@?1??insert@01@QAEAAV01@IQBDI@Z@IPBDI@Z 100245a0 f i Config.obj
 0001:000236d0       ??$_Reallocate_grow_by@V<lambda_1>@?1??push_back@?$basic_string@DU?$char_traits@D@std@@V?$allocator@D@2@@std@@QAEXD@Z@D@?$basic_string@DU?$char_traits@D@std@@V?$allocator@D@2@@std@@AAEAAV01@IV<lambda_1>@?1??push_back@01@QAEXD@Z@D@Z 100246d0 f i Config.obj
 0001:000237f0       ??$_Reallocate_grow_by@V<lambda_1>@?1??push_back@?$basic_string@_WU?$char_traits@_W@std@@V?$allocator@_W@2@@std@@QAEX_W@Z@_W@?$basic_string@_WU?$char_traits@_W@std@@V?$allocator@_W@2@@std@@AAEAAV01@IV<lambda_1>@?1??push_back@01@QAEX_W@Z@_W@Z 100247f0 f i Config.obj
 0001:00023910       ??$_Reallocate_grow_by@V<lambda_1>@?1??reserve@?$basic_string@DU?$char_traits@D@std@@V?$allocator@D@2@@std@@QAEXI@Z@$$V@?$basic_string@DU?$char_traits@D@std@@V?$allocator@D@2@@std@@AAEAAV01@IV<lambda_1>@?1??reserve@01@QAEXI@Z@@Z 10024910 f i Config.obj
 0001:00023a20       ??$_Seek_wrapped@PAPAUPlayerRecords@@AAPAPAU1@@std@@YAXAAPAPAUPlayerRecords@@0@Z 10024a20 f i LagComp.obj
 0001:00023a20       ??$_Seek_wrapped@PB_WAAPB_W@std@@YAXAAPB_W0@Z 10024a20 f i Config.obj
 0001:00023a20       ??$_Seek_wrapped@PB_WPB_W@std@@YAXAAPB_W$$QAPB_W@Z 10024a20 f i Config.obj
 0001:00023a30       ??$_Seek_wrapped@V?$reverse_iterator@PB_W@std@@AAV12@@std@@YAXAAV?$reverse_iterator@PB_W@0@0@Z 10024a30 f i Config.obj
 0001:00023a40       ??$_Set_ptr_rep_and_enable_shared@V?$output_stream_adapter@D@detail@nlohmann@@@?$shared_ptr@V?$output_stream_adapter@D@detail@nlohmann@@@std@@AAEXQAV?$output_stream_adapter@D@detail@nlohmann@@QAV_Ref_count_base@1@@Z 10024a40 f i Config.obj
 0001:00023a40       ??$_Set_ptr_rep_and_enable_shared@Vinput_stream_adapter@detail@nlohmann@@@?$shared_ptr@Vinput_stream_adapter@detail@nlohmann@@@std@@AAEXQAVinput_stream_adapter@detail@nlohmann@@QAV_Ref_count_base@1@@Z 10024a40 f i Config.obj
 0001:00023a40       ?Set@ParseResult@rapidjson@@QAEXW4ParseErrorCode@2@I@Z 10024a40 f i http.obj
 0001:00023a40       ??$_Set_ptr_rep_and_enable_shared@VColor@@@?$shared_ptr@VColor@@@std@@AAEXQAVColor@@QAV_Ref_count_base@1@@Z 10024a40 f i Config.obj
 0001:00023a40       ??$_Set_ptr_rep_and_enable_shared@U_Recursive_dir_enum_impl@filesystem@std@@@?$shared_ptr@U_Recursive_dir_enum_impl@filesystem@std@@@std@@AAEXQAU_Recursive_dir_enum_impl@filesystem@1@QAV_Ref_count_base@1@@Z 10024a40 f i Config.obj
 0001:00023a60       ??$_Sort_heap_unchecked@PAV?$basic_string@DU?$char_traits@D@std@@V?$allocator@D@2@@std@@U?$less@X@2@@std@@YAXPAV?$basic_string@DU?$char_traits@D@std@@V?$allocator@D@2@@0@0U?$less@X@0@@Z 10024a60 f i Config.obj
 0001:00023aa0       ??$_Sort_unchecked@PAV?$basic_string@DU?$char_traits@D@std@@V?$allocator@D@2@@std@@U?$less@X@2@@std@@YAXPAV?$basic_string@DU?$char_traits@D@std@@V?$allocator@D@2@@0@0HU?$less@X@0@@Z 10024aa0 f i Config.obj
 0001:00023bc0       ??$_Stringoid_from_Source@DU?$char_traits@D@std@@V?$allocator@D@2@@filesystem@std@@YA?AV?$basic_string_view@DU?$char_traits@D@std@@@1@ABV?$basic_string@DU?$char_traits@D@std@@V?$allocator@D@2@@1@@Z 10024bc0 f i Config.obj
 0001:00023c00       ??$_Stringoid_from_Source@_WU?$char_traits@_W@std@@@filesystem@std@@YA?AV?$basic_string_view@_WU?$char_traits@_W@std@@@1@ABV21@@Z 10024c00 f i Config.obj
 0001:00023c40       ??$_Traits_compare@U?$char_traits@D@std@@@std@@YAHQBDI0I@Z 10024c40 f i Config.obj
 0001:00023ca0       ??$_Traits_compare@U?$char_traits@_W@std@@@std@@YAHQB_WI0I@Z 10024ca0 f i Config.obj
 0001:00023d00       ??$_Traits_find@U?$char_traits@D@std@@@std@@YAIQBDII0I@Z 10024d00 f i Config.obj
 0001:00023da0       ??$_Try_emplace@ABV?$basic_string@DU?$char_traits@D@std@@V?$allocator@D@2@@std@@$$V@?$map@V?$basic_string@DU?$char_traits@D@std@@V?$allocator@D@2@@std@@V?$basic_json@Vmap@std@@Vvector@2@V?$basic_string@DU?$char_traits@D@std@@V?$allocator@D@2@@2@_N_J_KNVallocator@2@Uadl_serializer@nlohmann@@@nlohmann@@U?$less@X@2@V?$allocator@U?$pair@$$CBV?$basic_string@DU?$char_traits@D@std@@V?$allocator@D@2@@std@@V?$basic_json@Vmap@std@@Vvector@2@V?$basic_string@DU?$char_traits@D@std@@V?$allocator@D@2@@2@_N_J_KNVallocator@2@Uadl_serializer@nlohmann@@@nlohmann@@@std@@@2@@std@@AAE?AU?$pair@PAU?$_Tree_node@U?$pair@$$CBV?$basic_string@DU?$char_traits@D@std@@V?$allocator@D@2@@std@@V?$basic_json@Vmap@std@@Vvector@2@V?$basic_string@DU?$char_traits@D@std@@V?$allocator@D@2@@2@_N_J_KNVallocator@2@Uadl_serializer@nlohmann@@@nlohmann@@@std@@PAX@std@@_N@1@ABV?$basic_string@DU?$char_traits@D@std@@V?$allocator@D@2@@1@@Z 10024da0 f i Config.obj
 0001:00023eb0       ??$_Try_emplace@V?$basic_string@DU?$char_traits@D@std@@V?$allocator@D@2@@std@@$$V@?$map@V?$basic_string@DU?$char_traits@D@std@@V?$allocator@D@2@@std@@V?$basic_json@Vmap@std@@Vvector@2@V?$basic_string@DU?$char_traits@D@std@@V?$allocator@D@2@@2@_N_J_KNVallocator@2@Uadl_serializer@nlohmann@@@nlohmann@@U?$less@X@2@V?$allocator@U?$pair@$$CBV?$basic_string@DU?$char_traits@D@std@@V?$allocator@D@2@@std@@V?$basic_json@Vmap@std@@Vvector@2@V?$basic_string@DU?$char_traits@D@std@@V?$allocator@D@2@@2@_N_J_KNVallocator@2@Uadl_serializer@nlohmann@@@nlohmann@@@std@@@2@@std@@AAE?AU?$pair@PAU?$_Tree_node@U?$pair@$$CBV?$basic_string@DU?$char_traits@D@std@@V?$allocator@D@2@@std@@V?$basic_json@Vmap@std@@Vvector@2@V?$basic_string@DU?$char_traits@D@std@@V?$allocator@D@2@@2@_N_J_KNVallocator@2@Uadl_serializer@nlohmann@@@nlohmann@@@std@@PAX@std@@_N@1@$$QAV?$basic_string@DU?$char_traits@D@std@@V?$allocator@D@2@@1@@Z 10024eb0 f i Config.obj
 0001:00023fc0       ??$_UIntegral_to_buff@DI@std@@YAPADPADI@Z 10024fc0 f i Config.obj
 0001:00024010       ??$_Ucopy@PAU?$pair@HPBD@std@@@?$vector@U?$pair@HPBD@std@@V?$allocator@U?$pair@HPBD@std@@@2@@std@@AAEPAU?$pair@HPBD@1@PAU21@00@Z 10025010 f i tab_Skin_Changer.obj
 0001:00024010       ??$_Ucopy@PBU?$pair@HPBD@std@@@?$vector@U?$pair@HPBD@std@@V?$allocator@U?$pair@HPBD@std@@@2@@std@@AAEPAU?$pair@HPBD@1@PBU21@0PAU21@@Z 10025010 f i Config.obj
 0001:00024040       ??$_Unaligned_load@I@filesystem@std@@YAIPBX@Z 10025040 f i Config.obj
 0001:00024060       ??$_Ungetc@D@std@@YA_NABDPAU_iobuf@@@Z 10025060 f i Config.obj
 0001:000240a0       ??$_Uninitialized_copy@PAU?$pair@HPBD@std@@V?$allocator@U?$pair@HPBD@std@@@2@@std@@YAPAU?$pair@HPBD@0@QAU10@0PAU10@AAV?$allocator@U?$pair@HPBD@std@@@0@@Z 100250a0 f i tab_Skin_Changer.obj
 0001:000240a0       ??$_Uninitialized_copy@PBU?$pair@HPBD@std@@V?$allocator@U?$pair@HPBD@std@@@2@@std@@YAPAU?$pair@HPBD@0@QBU10@0PAU10@AAV?$allocator@U?$pair@HPBD@std@@@0@@Z 100250a0 f i Config.obj
 0001:00024150       ??$_Uninitialized_move@PADV?$allocator@D@std@@@std@@YAPADQAD0PADAAV?$allocator@D@0@@Z 10025150 f i Config.obj
 0001:000241a0       ??$_Uninitialized_move@PAU_Find_file_handle@filesystem@std@@V?$allocator@U_Find_file_handle@filesystem@std@@@3@@std@@YAPAU_Find_file_handle@filesystem@0@QAU120@0PAU120@AAV?$allocator@U_Find_file_handle@filesystem@std@@@0@@Z 100251a0 f i Config.obj
 0001:00024250       ??$_Uninitialized_move@PAV?$basic_json@Vmap@std@@Vvector@2@V?$basic_string@DU?$char_traits@D@std@@V?$allocator@D@2@@2@_N_J_KNVallocator@2@Uadl_serializer@nlohmann@@@nlohmann@@V?$allocator@V?$basic_json@Vmap@std@@Vvector@2@V?$basic_string@DU?$char_traits@D@std@@V?$allocator@D@2@@2@_N_J_KNVallocator@2@Uadl_serializer@nlohmann@@@nlohmann@@@std@@@std@@YAPAV?$basic_json@Vmap@std@@Vvector@2@V?$basic_string@DU?$char_traits@D@std@@V?$allocator@D@2@@2@_N_J_KNVallocator@2@Uadl_serializer@nlohmann@@@nlohmann@@QAV12@0PAV12@AAV?$allocator@V?$basic_json@Vmap@std@@Vvector@2@V?$basic_string@DU?$char_traits@D@std@@V?$allocator@D@2@@2@_N_J_KNVallocator@2@Uadl_serializer@nlohmann@@@nlohmann@@@0@@Z 10025250 f i Config.obj
 0001:00024300       ??$_Uninitialized_move@PAV?$basic_string@DU?$char_traits@D@std@@V?$allocator@D@2@@std@@V?$allocator@V?$basic_string@DU?$char_traits@D@std@@V?$allocator@D@2@@std@@@2@@std@@YAPAV?$basic_string@DU?$char_traits@D@std@@V?$allocator@D@2@@0@QAV10@0PAV10@AAV?$allocator@V?$basic_string@DU?$char_traits@D@std@@V?$allocator@D@2@@std@@@0@@Z 10025300 f i Config.obj
 0001:000243b0       ??$_Uninitialized_move@PAVConfigFile@@V?$allocator@VConfigFile@@@std@@@std@@YAPAVConfigFile@@QAV1@0PAV1@AAV?$allocator@VConfigFile@@@0@@Z 100253b0 f i Config.obj
 0001:00024460       ??$append@V?$basic_string_view@DU?$char_traits@D@std@@@std@@$0A@@?$basic_string@DU?$char_traits@D@std@@V?$allocator@D@2@@std@@QAEAAV01@ABV?$basic_string_view@DU?$char_traits@D@std@@@1@@Z 10025460 f i Config.obj
 0001:000244b0       ??$assign@V?$basic_string_view@_WU?$char_traits@_W@std@@@std@@$0A@@?$basic_string@_WU?$char_traits@_W@std@@V?$allocator@_W@2@@std@@QAEAAV01@ABV?$basic_string_view@_WU?$char_traits@_W@std@@@1@@Z 100254b0 f i Config.obj
 0001:00024500       ??$call@V?$basic_json@Vmap@std@@Vvector@2@V?$basic_string@DU?$char_traits@D@std@@V?$allocator@D@2@@2@_N_J_KNVallocator@2@Uadl_serializer@nlohmann@@@nlohmann@@AAE@to_json_fn@detail@nlohmann@@ABEXAAV?$basic_json@Vmap@std@@Vvector@2@V?$basic_string@DU?$char_traits@D@std@@V?$allocator@D@2@@2@_N_J_KNVallocator@2@Uadl_serializer@nlohmann@@@2@AAEU?$priority_tag@$00@12@@Z 10025500 f i Config.obj
 0001:00024530       ??$call@V?$basic_json@Vmap@std@@Vvector@2@V?$basic_string@DU?$char_traits@D@std@@V?$allocator@D@2@@2@_N_J_KNVallocator@2@Uadl_serializer@nlohmann@@@nlohmann@@AAH@to_json_fn@detail@nlohmann@@ABEXAAV?$basic_json@Vmap@std@@Vvector@2@V?$basic_string@DU?$char_traits@D@std@@V?$allocator@D@2@@2@_N_J_KNVallocator@2@Uadl_serializer@nlohmann@@@2@AAHU?$priority_tag@$00@12@@Z 10025530 f i Config.obj
 0001:00024560       ??$call@V?$basic_json@Vmap@std@@Vvector@2@V?$basic_string@DU?$char_traits@D@std@@V?$allocator@D@2@@2@_N_J_KNVallocator@2@Uadl_serializer@nlohmann@@@nlohmann@@AAM@to_json_fn@detail@nlohmann@@ABEXAAV?$basic_json@Vmap@std@@Vvector@2@V?$basic_string@DU?$char_traits@D@std@@V?$allocator@D@2@@2@_N_J_KNVallocator@2@Uadl_serializer@nlohmann@@@2@AAMU?$priority_tag@$00@12@@Z 10025560 f i Config.obj
 0001:00024590       ??$call@V?$basic_json@Vmap@std@@Vvector@2@V?$basic_string@DU?$char_traits@D@std@@V?$allocator@D@2@@2@_N_J_KNVallocator@2@Uadl_serializer@nlohmann@@@nlohmann@@AAV?$basic_string@DU?$char_traits@D@std@@V?$allocator@D@2@@std@@@to_json_fn@detail@nlohmann@@ABEXAAV?$basic_json@Vmap@std@@Vvector@2@V?$basic_string@DU?$char_traits@D@std@@V?$allocator@D@2@@2@_N_J_KNVallocator@2@Uadl_serializer@nlohmann@@@2@AAV?$basic_string@DU?$char_traits@D@std@@V?$allocator@D@2@@std@@U?$priority_tag@$00@12@@Z 10025590 f i Config.obj
 0001:000245c0       ??$call@V?$basic_json@Vmap@std@@Vvector@2@V?$basic_string@DU?$char_traits@D@std@@V?$allocator@D@2@@2@_N_J_KNVallocator@2@Uadl_serializer@nlohmann@@@nlohmann@@AA_N@to_json_fn@detail@nlohmann@@ABEXAAV?$basic_json@Vmap@std@@Vvector@2@V?$basic_string@DU?$char_traits@D@std@@V?$allocator@D@2@@2@_N_J_KNVallocator@2@Uadl_serializer@nlohmann@@@2@AA_NU?$priority_tag@$00@12@@Z 100255c0 f i Config.obj
 0001:000245f0       ??$call@V?$basic_json@Vmap@std@@Vvector@2@V?$basic_string@DU?$char_traits@D@std@@V?$allocator@D@2@@2@_N_J_KNVallocator@2@Uadl_serializer@nlohmann@@@nlohmann@@H@from_json_fn@detail@nlohmann@@ABEXABV?$basic_json@Vmap@std@@Vvector@2@V?$basic_string@DU?$char_traits@D@std@@V?$allocator@D@2@@2@_N_J_KNVallocator@2@Uadl_serializer@nlohmann@@@2@AAHU?$priority_tag@$00@12@@Z 100255f0 f i Config.obj
 0001:00024610       ??$call@V?$basic_json@Vmap@std@@Vvector@2@V?$basic_string@DU?$char_traits@D@std@@V?$allocator@D@2@@2@_N_J_KNVallocator@2@Uadl_serializer@nlohmann@@@nlohmann@@M@from_json_fn@detail@nlohmann@@ABEXABV?$basic_json@Vmap@std@@Vvector@2@V?$basic_string@DU?$char_traits@D@std@@V?$allocator@D@2@@2@_N_J_KNVallocator@2@Uadl_serializer@nlohmann@@@2@AAMU?$priority_tag@$00@12@@Z 10025610 f i Config.obj
 0001:00024630       ??$call@V?$basic_json@Vmap@std@@Vvector@2@V?$basic_string@DU?$char_traits@D@std@@V?$allocator@D@2@@2@_N_J_KNVallocator@2@Uadl_serializer@nlohmann@@@nlohmann@@V?$basic_string@DU?$char_traits@D@std@@V?$allocator@D@2@@std@@@from_json_fn@detail@nlohmann@@ABEXABV?$basic_json@Vmap@std@@Vvector@2@V?$basic_string@DU?$char_traits@D@std@@V?$allocator@D@2@@2@_N_J_KNVallocator@2@Uadl_serializer@nlohmann@@@2@AAV?$basic_string@DU?$char_traits@D@std@@V?$allocator@D@2@@std@@U?$priority_tag@$00@12@@Z 10025630 f i Config.obj
 0001:00024650       ??$call@V?$basic_json@Vmap@std@@Vvector@2@V?$basic_string@DU?$char_traits@D@std@@V?$allocator@D@2@@2@_N_J_KNVallocator@2@Uadl_serializer@nlohmann@@@nlohmann@@_N@from_json_fn@detail@nlohmann@@ABEXABV?$basic_json@Vmap@std@@Vvector@2@V?$basic_string@DU?$char_traits@D@std@@V?$allocator@D@2@@2@_N_J_KNVallocator@2@Uadl_serializer@nlohmann@@@2@AA_NU?$priority_tag@$00@12@@Z 10025650 f i Config.obj
 0001:00024670       ??$compute_boundaries@N@dtoa_impl@detail@nlohmann@@YA?AUboundaries@012@N@Z 10025670 f i Config.obj
 0001:00024910       ??$construct@DD@?$_Default_allocator_traits@V?$allocator@D@std@@@std@@SAXAAV?$allocator@D@1@QAD$$QAD@Z 10025910 f i Config.obj
 0001:00024940       ??$construct@U?$pair@$$CBV?$basic_string@DU?$char_traits@D@std@@V?$allocator@D@2@@std@@V?$basic_json@Vmap@std@@Vvector@2@V?$basic_string@DU?$char_traits@D@std@@V?$allocator@D@2@@2@_N_J_KNVallocator@2@Uadl_serializer@nlohmann@@@nlohmann@@@std@@ABUpiecewise_construct_t@2@V?$tuple@$$QAV?$basic_string@DU?$char_traits@D@std@@V?$allocator@D@2@@std@@@2@V?$tuple@$$V@2@@?$_Default_allocator_traits@V?$allocator@U?$_Tree_node@U?$pair@$$CBV?$basic_string@DU?$char_traits@D@std@@V?$allocator@D@2@@std@@V?$basic_json@Vmap@std@@Vvector@2@V?$basic_string@DU?$char_traits@D@std@@V?$allocator@D@2@@2@_N_J_KNVallocator@2@Uadl_serializer@nlohmann@@@nlohmann@@@std@@PAX@std@@@std@@@std@@SAXAAV?$allocator@U?$_Tree_node@U?$pair@$$CBV?$basic_string@DU?$char_traits@D@std@@V?$allocator@D@2@@std@@V?$basic_json@Vmap@std@@Vvector@2@V?$basic_string@DU?$char_traits@D@std@@V?$allocator@D@2@@2@_N_J_KNVallocator@2@Uadl_serializer@nlohmann@@@nlohmann@@@std@@PAX@std@@@1@QAU?$pair@$$CBV?$basic_string@DU?$char_traits@D@std@@V?$allocator@D@2@@std@@V?$basic_json@Vmap@std@@Vvector@2@V?$basic_string@DU?$char_traits@D@std@@V?$allocator@D@2@@2@_N_J_KNVallocator@2@Uadl_serializer@nlohmann@@@nlohmann@@@1@ABUpiecewise_construct_t@1@$$QAV?$tuple@$$QAV?$basic_string@DU?$char_traits@D@std@@V?$allocator@D@2@@std@@@1@$$QAV?$tuple@$$V@1@@Z 10025940 f i Config.obj
 0001:000249c0       ??$construct@U?$pair@$$CBV?$basic_string@DU?$char_traits@D@std@@V?$allocator@D@2@@std@@V?$basic_json@Vmap@std@@Vvector@2@V?$basic_string@DU?$char_traits@D@std@@V?$allocator@D@2@@2@_N_J_KNVallocator@2@Uadl_serializer@nlohmann@@@nlohmann@@@std@@ABUpiecewise_construct_t@2@V?$tuple@ABV?$basic_string@DU?$char_traits@D@std@@V?$allocator@D@2@@std@@@2@V?$tuple@$$V@2@@?$_Default_allocator_traits@V?$allocator@U?$_Tree_node@U?$pair@$$CBV?$basic_string@DU?$char_traits@D@std@@V?$allocator@D@2@@std@@V?$basic_json@Vmap@std@@Vvector@2@V?$basic_string@DU?$char_traits@D@std@@V?$allocator@D@2@@2@_N_J_KNVallocator@2@Uadl_serializer@nlohmann@@@nlohmann@@@std@@PAX@std@@@std@@@std@@SAXAAV?$allocator@U?$_Tree_node@U?$pair@$$CBV?$basic_string@DU?$char_traits@D@std@@V?$allocator@D@2@@std@@V?$basic_json@Vmap@std@@Vvector@2@V?$basic_string@DU?$char_traits@D@std@@V?$allocator@D@2@@2@_N_J_KNVallocator@2@Uadl_serializer@nlohmann@@@nlohmann@@@std@@PAX@std@@@1@QAU?$pair@$$CBV?$basic_string@DU?$char_traits@D@std@@V?$allocator@D@2@@std@@V?$basic_json@Vmap@std@@Vvector@2@V?$basic_string@DU?$char_traits@D@std@@V?$allocator@D@2@@2@_N_J_KNVallocator@2@Uadl_serializer@nlohmann@@@nlohmann@@@1@ABUpiecewise_construct_t@1@$$QAV?$tuple@ABV?$basic_string@DU?$char_traits@D@std@@V?$allocator@D@2@@std@@@1@$$QAV?$tuple@$$V@1@@Z 100259c0 f i Config.obj
 0001:00024a40       ??$construct@U?$pair@$$CBV?$basic_string@DU?$char_traits@D@std@@V?$allocator@D@2@@std@@V?$basic_json@Vmap@std@@Vvector@2@V?$basic_string@DU?$char_traits@D@std@@V?$allocator@D@2@@2@_N_J_KNVallocator@2@Uadl_serializer@nlohmann@@@nlohmann@@@std@@V?$basic_string@DU?$char_traits@D@std@@V?$allocator@D@2@@2@V?$basic_json@Vmap@std@@Vvector@2@V?$basic_string@DU?$char_traits@D@std@@V?$allocator@D@2@@2@_N_J_KNVallocator@2@Uadl_serializer@nlohmann@@@nlohmann@@@?$_Default_allocator_traits@V?$allocator@U?$_Tree_node@U?$pair@$$CBV?$basic_string@DU?$char_traits@D@std@@V?$allocator@D@2@@std@@V?$basic_json@Vmap@std@@Vvector@2@V?$basic_string@DU?$char_traits@D@std@@V?$allocator@D@2@@2@_N_J_KNVallocator@2@Uadl_serializer@nlohmann@@@nlohmann@@@std@@PAX@std@@@std@@@std@@SAXAAV?$allocator@U?$_Tree_node@U?$pair@$$CBV?$basic_string@DU?$char_traits@D@std@@V?$allocator@D@2@@std@@V?$basic_json@Vmap@std@@Vvector@2@V?$basic_string@DU?$char_traits@D@std@@V?$allocator@D@2@@2@_N_J_KNVallocator@2@Uadl_serializer@nlohmann@@@nlohmann@@@std@@PAX@std@@@1@QAU?$pair@$$CBV?$basic_string@DU?$char_traits@D@std@@V?$allocator@D@2@@std@@V?$basic_json@Vmap@std@@Vvector@2@V?$basic_string@DU?$char_traits@D@std@@V?$allocator@D@2@@2@_N_J_KNVallocator@2@Uadl_serializer@nlohmann@@@nlohmann@@@1@$$QAV?$basic_string@DU?$char_traits@D@std@@V?$allocator@D@2@@1@$$QAV?$basic_json@Vmap@std@@Vvector@2@V?$basic_string@DU?$char_traits@D@std@@V?$allocator@D@2@@2@_N_J_KNVallocator@2@Uadl_serializer@nlohmann@@@nlohmann@@@Z 10025a40 f i Config.obj
 0001:00024a90       ??$construct@U?$pair@HPBD@std@@ABU12@@?$_Default_allocator_traits@V?$allocator@U?$pair@HPBD@std@@@std@@@std@@SAXAAV?$allocator@U?$pair@HPBD@std@@@1@QAU?$pair@HPBD@1@ABU31@@Z 10025a90 f i Config.obj
 0001:00024a90       ??$construct@U?$pair@HPBD@std@@AAU12@@?$_Default_allocator_traits@V?$allocator@U?$pair@HPBD@std@@@std@@@std@@SAXAAV?$allocator@U?$pair@HPBD@std@@@1@QAU?$pair@HPBD@1@AAU31@@Z 10025a90 f i tab_Skin_Changer.obj
 0001:00024ad0       ??$construct@U_Find_file_handle@filesystem@std@@U123@@?$_Default_allocator_traits@V?$allocator@U_Find_file_handle@filesystem@std@@@std@@@std@@SAXAAV?$allocator@U_Find_file_handle@filesystem@std@@@1@QAU_Find_file_handle@filesystem@1@$$QAU341@@Z 10025ad0 f i Config.obj
 0001:00024b10       ??$construct@V?$basic_json@Vmap@std@@Vvector@2@V?$basic_string@DU?$char_traits@D@std@@V?$allocator@D@2@@2@_N_J_KNVallocator@2@Uadl_serializer@nlohmann@@@nlohmann@@@?$external_constructor@$02@detail@nlohmann@@SAXAAV?$basic_json@Vmap@std@@Vvector@2@V?$basic_string@DU?$char_traits@D@std@@V?$allocator@D@2@@2@_N_J_KNVallocator@2@Uadl_serializer@nlohmann@@@2@ABV?$basic_string@DU?$char_traits@D@std@@V?$allocator@D@2@@std@@@Z 10025b10 f i Config.obj
 0001:00024b50       ??$construct@V?$basic_json@Vmap@std@@Vvector@2@V?$basic_string@DU?$char_traits@D@std@@V?$allocator@D@2@@2@_N_J_KNVallocator@2@Uadl_serializer@nlohmann@@@nlohmann@@@?$external_constructor@$03@detail@nlohmann@@SAXAAV?$basic_json@Vmap@std@@Vvector@2@V?$basic_string@DU?$char_traits@D@std@@V?$allocator@D@2@@2@_N_J_KNVallocator@2@Uadl_serializer@nlohmann@@@2@_N@Z 10025b50 f i Config.obj
 0001:00024b90       ??$construct@V?$basic_json@Vmap@std@@Vvector@2@V?$basic_string@DU?$char_traits@D@std@@V?$allocator@D@2@@2@_N_J_KNVallocator@2@Uadl_serializer@nlohmann@@@nlohmann@@@?$external_constructor@$04@detail@nlohmann@@SAXAAV?$basic_json@Vmap@std@@Vvector@2@V?$basic_string@DU?$char_traits@D@std@@V?$allocator@D@2@@2@_N_J_KNVallocator@2@Uadl_serializer@nlohmann@@@2@_J@Z 10025b90 f i Config.obj
 0001:00024bd0       ??$construct@V?$basic_json@Vmap@std@@Vvector@2@V?$basic_string@DU?$char_traits@D@std@@V?$allocator@D@2@@2@_N_J_KNVallocator@2@Uadl_serializer@nlohmann@@@nlohmann@@@?$external_constructor@$05@detail@nlohmann@@SAXAAV?$basic_json@Vmap@std@@Vvector@2@V?$basic_string@DU?$char_traits@D@std@@V?$allocator@D@2@@2@_N_J_KNVallocator@2@Uadl_serializer@nlohmann@@@2@_K@Z 10025bd0 f i Config.obj
 0001:00024c10       ??$construct@V?$basic_json@Vmap@std@@Vvector@2@V?$basic_string@DU?$char_traits@D@std@@V?$allocator@D@2@@2@_N_J_KNVallocator@2@Uadl_serializer@nlohmann@@@nlohmann@@@?$external_constructor@$06@detail@nlohmann@@SAXAAV?$basic_json@Vmap@std@@Vvector@2@V?$basic_string@DU?$char_traits@D@std@@V?$allocator@D@2@@2@_N_J_KNVallocator@2@Uadl_serializer@nlohmann@@@2@N@Z 10025c10 f i Config.obj
 0001:00024c50       ??$construct@V?$basic_json@Vmap@std@@Vvector@2@V?$basic_string@DU?$char_traits@D@std@@V?$allocator@D@2@@2@_N_J_KNVallocator@2@Uadl_serializer@nlohmann@@@nlohmann@@V12@@?$_Default_allocator_traits@V?$allocator@V?$basic_json@Vmap@std@@Vvector@2@V?$basic_string@DU?$char_traits@D@std@@V?$allocator@D@2@@2@_N_J_KNVallocator@2@Uadl_serializer@nlohmann@@@nlohmann@@@std@@@std@@SAXAAV?$allocator@V?$basic_json@Vmap@std@@Vvector@2@V?$basic_string@DU?$char_traits@D@std@@V?$allocator@D@2@@2@_N_J_KNVallocator@2@Uadl_serializer@nlohmann@@@nlohmann@@@1@QAV?$basic_json@Vmap@std@@Vvector@2@V?$basic_string@DU?$char_traits@D@std@@V?$allocator@D@2@@2@_N_J_KNVallocator@2@Uadl_serializer@nlohmann@@@nlohmann@@$$QAV34@@Z 10025c50 f i Config.obj
 0001:00024c90       ??$construct@V?$basic_string@DU?$char_traits@D@std@@V?$allocator@D@2@@std@@AAY0PP@$$CBD@?$_Default_allocator_traits@V?$allocator@V?$basic_string@DU?$char_traits@D@std@@V?$allocator@D@2@@std@@@std@@@std@@SAXAAV?$allocator@V?$basic_string@DU?$char_traits@D@std@@V?$allocator@D@2@@std@@@1@QAV?$basic_string@DU?$char_traits@D@std@@V?$allocator@D@2@@1@AAY0PP@$$CBD@Z 10025c90 f i tab_Login.obj
 0001:00024c90       ??$construct@V?$basic_string@DU?$char_traits@D@std@@V?$allocator@D@2@@std@@AAY04$$CBD@?$_Default_allocator_traits@V?$allocator@V?$basic_string@DU?$char_traits@D@std@@V?$allocator@D@2@@std@@@std@@@std@@SAXAAV?$allocator@V?$basic_string@DU?$char_traits@D@std@@V?$allocator@D@2@@std@@@1@QAV?$basic_string@DU?$char_traits@D@std@@V?$allocator@D@2@@1@AAY04$$CBD@Z 10025c90 f i tab_Login.obj
 0001:00024c90       ??$construct@V?$basic_string@DU?$char_traits@D@std@@V?$allocator@D@2@@std@@AAY00$$CBD@?$_Default_allocator_traits@V?$allocator@V?$basic_string@DU?$char_traits@D@std@@V?$allocator@D@2@@std@@@std@@@std@@SAXAAV?$allocator@V?$basic_string@DU?$char_traits@D@std@@V?$allocator@D@2@@std@@@1@QAV?$basic_string@DU?$char_traits@D@std@@V?$allocator@D@2@@1@AAY00$$CBD@Z 10025c90 f i Config.obj
 0001:00024cd0       ??$construct@V?$basic_string@DU?$char_traits@D@std@@V?$allocator@D@2@@std@@ABV12@@?$_Default_allocator_traits@V?$allocator@V?$basic_string@DU?$char_traits@D@std@@V?$allocator@D@2@@std@@@std@@@std@@SAXAAV?$allocator@V?$basic_string@DU?$char_traits@D@std@@V?$allocator@D@2@@std@@@1@QAV?$basic_string@DU?$char_traits@D@std@@V?$allocator@D@2@@1@ABV31@@Z 10025cd0 f i Config.obj
 0001:00024cd0       ??$construct@V?$basic_string@DU?$char_traits@D@std@@V?$allocator@D@2@@std@@AAV12@@?$_Default_allocator_traits@V?$allocator@V?$basic_string@DU?$char_traits@D@std@@V?$allocator@D@2@@std@@@std@@@std@@SAXAAV?$allocator@V?$basic_string@DU?$char_traits@D@std@@V?$allocator@D@2@@std@@@1@QAV?$basic_string@DU?$char_traits@D@std@@V?$allocator@D@2@@1@AAV31@@Z 10025cd0 f i NetvarManager.obj
 0001:00024d10       ??$construct@V?$basic_string@DU?$char_traits@D@std@@V?$allocator@D@2@@std@@V12@@?$_Default_allocator_traits@V?$allocator@V?$basic_string@DU?$char_traits@D@std@@V?$allocator@D@2@@std@@@std@@@std@@SAXAAV?$allocator@V?$basic_string@DU?$char_traits@D@std@@V?$allocator@D@2@@std@@@1@QAV?$basic_string@DU?$char_traits@D@std@@V?$allocator@D@2@@1@$$QAV31@@Z 10025d10 f i Config.obj
 0001:00024d50       ??$construct@V?$map@V?$basic_string@DU?$char_traits@D@std@@V?$allocator@D@2@@std@@V?$basic_json@Vmap@std@@Vvector@2@V?$basic_string@DU?$char_traits@D@std@@V?$allocator@D@2@@2@_N_J_KNVallocator@2@Uadl_serializer@nlohmann@@@nlohmann@@U?$less@X@2@V?$allocator@U?$pair@$$CBV?$basic_string@DU?$char_traits@D@std@@V?$allocator@D@2@@std@@V?$basic_json@Vmap@std@@Vvector@2@V?$basic_string@DU?$char_traits@D@std@@V?$allocator@D@2@@2@_N_J_KNVallocator@2@Uadl_serializer@nlohmann@@@nlohmann@@@std@@@2@@std@@$$V@?$_Default_allocator_traits@V?$allocator@V?$map@V?$basic_string@DU?$char_traits@D@std@@V?$allocator@D@2@@std@@V?$basic_json@Vmap@std@@Vvector@2@V?$basic_string@DU?$char_traits@D@std@@V?$allocator@D@2@@2@_N_J_KNVallocator@2@Uadl_serializer@nlohmann@@@nlohmann@@U?$less@X@2@V?$allocator@U?$pair@$$CBV?$basic_string@DU?$char_traits@D@std@@V?$allocator@D@2@@std@@V?$basic_json@Vmap@std@@Vvector@2@V?$basic_string@DU?$char_traits@D@std@@V?$allocator@D@2@@2@_N_J_KNVallocator@2@Uadl_serializer@nlohmann@@@nlohmann@@@std@@@2@@std@@@std@@@std@@SAXAAV?$allocator@V?$map@V?$basic_string@DU?$char_traits@D@std@@V?$allocator@D@2@@std@@V?$basic_json@Vmap@std@@Vvector@2@V?$basic_string@DU?$char_traits@D@std@@V?$allocator@D@2@@2@_N_J_KNVallocator@2@Uadl_serializer@nlohmann@@@nlohmann@@U?$less@X@2@V?$allocator@U?$pair@$$CBV?$basic_string@DU?$char_traits@D@std@@V?$allocator@D@2@@std@@V?$basic_json@Vmap@std@@Vvector@2@V?$basic_string@DU?$char_traits@D@std@@V?$allocator@D@2@@2@_N_J_KNVallocator@2@Uadl_serializer@nlohmann@@@nlohmann@@@std@@@2@@std@@@1@QAV?$map@V?$basic_string@DU?$char_traits@D@std@@V?$allocator@D@2@@std@@V?$basic_json@Vmap@std@@Vvector@2@V?$basic_string@DU?$char_traits@D@std@@V?$allocator@D@2@@2@_N_J_KNVallocator@2@Uadl_serializer@nlohmann@@@nlohmann@@U?$less@X@2@V?$allocator@U?$pair@$$CBV?$basic_string@DU?$char_traits@D@std@@V?$allocator@D@2@@std@@V?$basic_json@Vmap@std@@Vvector@2@V?$basic_string@DU?$char_traits@D@std@@V?$allocator@D@2@@2@_N_J_KNVallocator@2@Uadl_serializer@nlohmann@@@nlohmann@@@std@@@2@@1@@Z 10025d50 f i Config.obj
 0001:00024d80       ??$construct@V?$vector@UField@@V?$allocator@UField@@@std@@@std@@$$V@?$_Default_allocator_traits@V?$allocator@V?$vector@UField@@V?$allocator@UField@@@std@@@std@@@std@@@std@@SAXAAV?$allocator@V?$vector@UField@@V?$allocator@UField@@@std@@@std@@@1@QAV?$vector@UField@@V?$allocator@UField@@@std@@@1@@Z 10025d80 f i Protobuffs.obj
 0001:00024d80       ??$construct@V?$vector@V?$basic_json@Vmap@std@@Vvector@2@V?$basic_string@DU?$char_traits@D@std@@V?$allocator@D@2@@2@_N_J_KNVallocator@2@Uadl_serializer@nlohmann@@@nlohmann@@V?$allocator@V?$basic_json@Vmap@std@@Vvector@2@V?$basic_string@DU?$char_traits@D@std@@V?$allocator@D@2@@2@_N_J_KNVallocator@2@Uadl_serializer@nlohmann@@@nlohmann@@@std@@@std@@$$V@?$_Default_allocator_traits@V?$allocator@V?$vector@V?$basic_json@Vmap@std@@Vvector@2@V?$basic_string@DU?$char_traits@D@std@@V?$allocator@D@2@@2@_N_J_KNVallocator@2@Uadl_serializer@nlohmann@@@nlohmann@@V?$allocator@V?$basic_json@Vmap@std@@Vvector@2@V?$basic_string@DU?$char_traits@D@std@@V?$allocator@D@2@@2@_N_J_KNVallocator@2@Uadl_serializer@nlohmann@@@nlohmann@@@std@@@std@@@std@@@std@@SAXAAV?$allocator@V?$vector@V?$basic_json@Vmap@std@@Vvector@2@V?$basic_string@DU?$char_traits@D@std@@V?$allocator@D@2@@2@_N_J_KNVallocator@2@Uadl_serializer@nlohmann@@@nlohmann@@V?$allocator@V?$basic_json@Vmap@std@@Vvector@2@V?$basic_string@DU?$char_traits@D@std@@V?$allocator@D@2@@2@_N_J_KNVallocator@2@Uadl_serializer@nlohmann@@@nlohmann@@@std@@@std@@@1@QAV?$vector@V?$basic_json@Vmap@std@@Vvector@2@V?$basic_string@DU?$char_traits@D@std@@V?$allocator@D@2@@2@_N_J_KNVallocator@2@Uadl_serializer@nlohmann@@@nlohmann@@V?$allocator@V?$basic_json@Vmap@std@@Vvector@2@V?$basic_string@DU?$char_traits@D@std@@V?$allocator@D@2@@2@_N_J_KNVallocator@2@Uadl_serializer@nlohmann@@@nlohmann@@@std@@@1@@Z 10025d80 f i Config.obj
 0001:00024db0       ??$construct@VConfigFile@@AAV1@@?$_Default_allocator_traits@V?$allocator@VConfigFile@@@std@@@std@@SAXAAV?$allocator@VConfigFile@@@1@QAVConfigFile@@AAV3@@Z 10025db0 f i Config.obj
 0001:00024df0       ??$construct@VConfigFile@@V1@@?$_Default_allocator_traits@V?$allocator@VConfigFile@@@std@@@std@@SAXAAV?$allocator@VConfigFile@@@1@QAVConfigFile@@$$QAV3@@Z 10025df0 f i Config.obj
 0001:00024e30       ??$create@V?$basic_string@DU?$char_traits@D@std@@V?$allocator@D@2@@std@@AAY00$$CBD@?$basic_json@Vmap@std@@Vvector@2@V?$basic_string@DU?$char_traits@D@std@@V?$allocator@D@2@@2@_N_J_KNVallocator@2@Uadl_serializer@nlohmann@@@nlohmann@@CAPAV?$basic_string@DU?$char_traits@D@std@@V?$allocator@D@2@@std@@AAY00$$CBD@Z 10025e30 f i Config.obj
 0001:00024e30       ??$create@V?$basic_string@DU?$char_traits@D@std@@V?$allocator@D@2@@std@@AAY0PP@$$CBD@?$basic_json@Vmap@std@@Vvector@2@V?$basic_string@DU?$char_traits@D@std@@V?$allocator@D@2@@2@_N_J_KNVallocator@2@Uadl_serializer@nlohmann@@@nlohmann@@CAPAV?$basic_string@DU?$char_traits@D@std@@V?$allocator@D@2@@std@@AAY0PP@$$CBD@Z 10025e30 f i tab_Login.obj
 0001:00024e30       ??$create@V?$basic_string@DU?$char_traits@D@std@@V?$allocator@D@2@@std@@AAY04$$CBD@?$basic_json@Vmap@std@@Vvector@2@V?$basic_string@DU?$char_traits@D@std@@V?$allocator@D@2@@2@_N_J_KNVallocator@2@Uadl_serializer@nlohmann@@@nlohmann@@CAPAV?$basic_string@DU?$char_traits@D@std@@V?$allocator@D@2@@std@@AAY04$$CBD@Z 10025e30 f i tab_Login.obj
 0001:00024ef0       ??$create@V?$basic_string@DU?$char_traits@D@std@@V?$allocator@D@2@@std@@ABV12@@?$basic_json@Vmap@std@@Vvector@2@V?$basic_string@DU?$char_traits@D@std@@V?$allocator@D@2@@2@_N_J_KNVallocator@2@Uadl_serializer@nlohmann@@@nlohmann@@CAPAV?$basic_string@DU?$char_traits@D@std@@V?$allocator@D@2@@std@@ABV23@@Z 10025ef0 f i Config.obj
 0001:00024fb0       ??$create@V?$basic_string@DU?$char_traits@D@std@@V?$allocator@D@2@@std@@V12@@?$basic_json@Vmap@std@@Vvector@2@V?$basic_string@DU?$char_traits@D@std@@V?$allocator@D@2@@2@_N_J_KNVallocator@2@Uadl_serializer@nlohmann@@@nlohmann@@CAPAV?$basic_string@DU?$char_traits@D@std@@V?$allocator@D@2@@std@@$$QAV23@@Z 10025fb0 f i Config.obj
 0001:00025070       ??$create@V?$map@V?$basic_string@DU?$char_traits@D@std@@V?$allocator@D@2@@std@@V?$basic_json@Vmap@std@@Vvector@2@V?$basic_string@DU?$char_traits@D@std@@V?$allocator@D@2@@2@_N_J_KNVallocator@2@Uadl_serializer@nlohmann@@@nlohmann@@U?$less@X@2@V?$allocator@U?$pair@$$CBV?$basic_string@DU?$char_traits@D@std@@V?$allocator@D@2@@std@@V?$basic_json@Vmap@std@@Vvector@2@V?$basic_string@DU?$char_traits@D@std@@V?$allocator@D@2@@2@_N_J_KNVallocator@2@Uadl_serializer@nlohmann@@@nlohmann@@@std@@@2@@std@@$$V@?$basic_json@Vmap@std@@Vvector@2@V?$basic_string@DU?$char_traits@D@std@@V?$allocator@D@2@@2@_N_J_KNVallocator@2@Uadl_serializer@nlohmann@@@nlohmann@@CAPAV?$map@V?$basic_string@DU?$char_traits@D@std@@V?$allocator@D@2@@std@@V?$basic_json@Vmap@std@@Vvector@2@V?$basic_string@DU?$char_traits@D@std@@V?$allocator@D@2@@2@_N_J_KNVallocator@2@Uadl_serializer@nlohmann@@@nlohmann@@U?$less@X@2@V?$allocator@U?$pair@$$CBV?$basic_string@DU?$char_traits@D@std@@V?$allocator@D@2@@std@@V?$basic_json@Vmap@std@@Vvector@2@V?$basic_string@DU?$char_traits@D@std@@V?$allocator@D@2@@2@_N_J_KNVallocator@2@Uadl_serializer@nlohmann@@@nlohmann@@@std@@@2@@std@@XZ 10026070 f i Config.obj
 0001:00025110       ??$create@V?$vector@V?$basic_json@Vmap@std@@Vvector@2@V?$basic_string@DU?$char_traits@D@std@@V?$allocator@D@2@@2@_N_J_KNVallocator@2@Uadl_serializer@nlohmann@@@nlohmann@@V?$allocator@V?$basic_json@Vmap@std@@Vvector@2@V?$basic_string@DU?$char_traits@D@std@@V?$allocator@D@2@@2@_N_J_KNVallocator@2@Uadl_serializer@nlohmann@@@nlohmann@@@std@@@std@@$$V@?$basic_json@Vmap@std@@Vvector@2@V?$basic_string@DU?$char_traits@D@std@@V?$allocator@D@2@@2@_N_J_KNVallocator@2@Uadl_serializer@nlohmann@@@nlohmann@@CAPAV?$vector@V?$basic_json@Vmap@std@@Vvector@2@V?$basic_string@DU?$char_traits@D@std@@V?$allocator@D@2@@2@_N_J_KNVallocator@2@Uadl_serializer@nlohmann@@@nlohmann@@V?$allocator@V?$basic_json@Vmap@std@@Vvector@2@V?$basic_string@DU?$char_traits@D@std@@V?$allocator@D@2@@2@_N_J_KNVallocator@2@Uadl_serializer@nlohmann@@@nlohmann@@@std@@@std@@XZ 10026110 f i Config.obj
 0001:000251b0       ??$destroy@U?$pair@$$CBV?$basic_string@DU?$char_traits@D@std@@V?$allocator@D@2@@std@@V?$basic_json@Vmap@std@@Vvector@2@V?$basic_string@DU?$char_traits@D@std@@V?$allocator@D@2@@2@_N_J_KNVallocator@2@Uadl_serializer@nlohmann@@@nlohmann@@@std@@@?$_Default_allocator_traits@V?$allocator@U?$_Tree_node@U?$pair@$$CBV?$basic_string@DU?$char_traits@D@std@@V?$allocator@D@2@@std@@V?$basic_json@Vmap@std@@Vvector@2@V?$basic_string@DU?$char_traits@D@std@@V?$allocator@D@2@@2@_N_J_KNVallocator@2@Uadl_serializer@nlohmann@@@nlohmann@@@std@@PAX@std@@@std@@@std@@SAXAAV?$allocator@U?$_Tree_node@U?$pair@$$CBV?$basic_string@DU?$char_traits@D@std@@V?$allocator@D@2@@std@@V?$basic_json@Vmap@std@@Vvector@2@V?$basic_string@DU?$char_traits@D@std@@V?$allocator@D@2@@2@_N_J_KNVallocator@2@Uadl_serializer@nlohmann@@@nlohmann@@@std@@PAX@std@@@1@QAU?$pair@$$CBV?$basic_string@DU?$char_traits@D@std@@V?$allocator@D@2@@std@@V?$basic_json@Vmap@std@@Vvector@2@V?$basic_string@DU?$char_traits@D@std@@V?$allocator@D@2@@2@_N_J_KNVallocator@2@Uadl_serializer@nlohmann@@@nlohmann@@@1@@Z 100261b0 f i Config.obj
 0001:000251c0       ??$destroy@U_Find_file_handle@filesystem@std@@@?$_Default_allocator_traits@V?$allocator@U_Find_file_handle@filesystem@std@@@std@@@std@@SAXAAV?$allocator@U_Find_file_handle@filesystem@std@@@1@QAU_Find_file_handle@filesystem@1@@Z 100261c0 f i Config.obj
 0001:000251d0       ??$destroy@V?$basic_json@Vmap@std@@Vvector@2@V?$basic_string@DU?$char_traits@D@std@@V?$allocator@D@2@@2@_N_J_KNVallocator@2@Uadl_serializer@nlohmann@@@nlohmann@@@?$_Default_allocator_traits@V?$allocator@V?$basic_json@Vmap@std@@Vvector@2@V?$basic_string@DU?$char_traits@D@std@@V?$allocator@D@2@@2@_N_J_KNVallocator@2@Uadl_serializer@nlohmann@@@nlohmann@@@std@@@std@@SAXAAV?$allocator@V?$basic_json@Vmap@std@@Vvector@2@V?$basic_string@DU?$char_traits@D@std@@V?$allocator@D@2@@2@_N_J_KNVallocator@2@Uadl_serializer@nlohmann@@@nlohmann@@@1@QAV?$basic_json@Vmap@std@@Vvector@2@V?$basic_string@DU?$char_traits@D@std@@V?$allocator@D@2@@2@_N_J_KNVallocator@2@Uadl_serializer@nlohmann@@@nlohmann@@@Z 100261d0 f i Config.obj
 0001:000251e0       ??$destroy@V?$basic_string@DU?$char_traits@D@std@@V?$allocator@D@2@@std@@@?$_Default_allocator_traits@V?$allocator@V?$basic_string@DU?$char_traits@D@std@@V?$allocator@D@2@@std@@@std@@@std@@SAXAAV?$allocator@V?$basic_string@DU?$char_traits@D@std@@V?$allocator@D@2@@std@@@1@QAV?$basic_string@DU?$char_traits@D@std@@V?$allocator@D@2@@1@@Z 100261e0 f i Config.obj
 0001:000251f0       ??$destroy@V?$map@V?$basic_string@DU?$char_traits@D@std@@V?$allocator@D@2@@std@@V?$basic_json@Vmap@std@@Vvector@2@V?$basic_string@DU?$char_traits@D@std@@V?$allocator@D@2@@2@_N_J_KNVallocator@2@Uadl_serializer@nlohmann@@@nlohmann@@U?$less@X@2@V?$allocator@U?$pair@$$CBV?$basic_string@DU?$char_traits@D@std@@V?$allocator@D@2@@std@@V?$basic_json@Vmap@std@@Vvector@2@V?$basic_string@DU?$char_traits@D@std@@V?$allocator@D@2@@2@_N_J_KNVallocator@2@Uadl_serializer@nlohmann@@@nlohmann@@@std@@@2@@std@@@?$_Default_allocator_traits@V?$allocator@V?$map@V?$basic_string@DU?$char_traits@D@std@@V?$allocator@D@2@@std@@V?$basic_json@Vmap@std@@Vvector@2@V?$basic_string@DU?$char_traits@D@std@@V?$allocator@D@2@@2@_N_J_KNVallocator@2@Uadl_serializer@nlohmann@@@nlohmann@@U?$less@X@2@V?$allocator@U?$pair@$$CBV?$basic_string@DU?$char_traits@D@std@@V?$allocator@D@2@@std@@V?$basic_json@Vmap@std@@Vvector@2@V?$basic_string@DU?$char_traits@D@std@@V?$allocator@D@2@@2@_N_J_KNVallocator@2@Uadl_serializer@nlohmann@@@nlohmann@@@std@@@2@@std@@@std@@@std@@SAXAAV?$allocator@V?$map@V?$basic_string@DU?$char_traits@D@std@@V?$allocator@D@2@@std@@V?$basic_json@Vmap@std@@Vvector@2@V?$basic_string@DU?$char_traits@D@std@@V?$allocator@D@2@@2@_N_J_KNVallocator@2@Uadl_serializer@nlohmann@@@nlohmann@@U?$less@X@2@V?$allocator@U?$pair@$$CBV?$basic_string@DU?$char_traits@D@std@@V?$allocator@D@2@@std@@V?$basic_json@Vmap@std@@Vvector@2@V?$basic_string@DU?$char_traits@D@std@@V?$allocator@D@2@@2@_N_J_KNVallocator@2@Uadl_serializer@nlohmann@@@nlohmann@@@std@@@2@@std@@@1@QAV?$map@V?$basic_string@DU?$char_traits@D@std@@V?$allocator@D@2@@std@@V?$basic_json@Vmap@std@@Vvector@2@V?$basic_string@DU?$char_traits@D@std@@V?$allocator@D@2@@2@_N_J_KNVallocator@2@Uadl_serializer@nlohmann@@@nlohmann@@U?$less@X@2@V?$allocator@U?$pair@$$CBV?$basic_string@DU?$char_traits@D@std@@V?$allocator@D@2@@std@@V?$basic_json@Vmap@std@@Vvector@2@V?$basic_string@DU?$char_traits@D@std@@V?$allocator@D@2@@2@_N_J_KNVallocator@2@Uadl_serializer@nlohmann@@@nlohmann@@@std@@@2@@1@@Z 100261f0 f i Config.obj
 0001:00025200       ??$destroy@V?$vector@V?$basic_json@Vmap@std@@Vvector@2@V?$basic_string@DU?$char_traits@D@std@@V?$allocator@D@2@@2@_N_J_KNVallocator@2@Uadl_serializer@nlohmann@@@nlohmann@@V?$allocator@V?$basic_json@Vmap@std@@Vvector@2@V?$basic_string@DU?$char_traits@D@std@@V?$allocator@D@2@@2@_N_J_KNVallocator@2@Uadl_serializer@nlohmann@@@nlohmann@@@std@@@std@@@?$_Default_allocator_traits@V?$allocator@V?$vector@V?$basic_json@Vmap@std@@Vvector@2@V?$basic_string@DU?$char_traits@D@std@@V?$allocator@D@2@@2@_N_J_KNVallocator@2@Uadl_serializer@nlohmann@@@nlohmann@@V?$allocator@V?$basic_json@Vmap@std@@Vvector@2@V?$basic_string@DU?$char_traits@D@std@@V?$allocator@D@2@@2@_N_J_KNVallocator@2@Uadl_serializer@nlohmann@@@nlohmann@@@std@@@std@@@std@@@std@@SAXAAV?$allocator@V?$vector@V?$basic_json@Vmap@std@@Vvector@2@V?$basic_string@DU?$char_traits@D@std@@V?$allocator@D@2@@2@_N_J_KNVallocator@2@Uadl_serializer@nlohmann@@@nlohmann@@V?$allocator@V?$basic_json@Vmap@std@@Vvector@2@V?$basic_string@DU?$char_traits@D@std@@V?$allocator@D@2@@2@_N_J_KNVallocator@2@Uadl_serializer@nlohmann@@@nlohmann@@@std@@@std@@@1@QAV?$vector@V?$basic_json@Vmap@std@@Vvector@2@V?$basic_string@DU?$char_traits@D@std@@V?$allocator@D@2@@2@_N_J_KNVallocator@2@Uadl_serializer@nlohmann@@@nlohmann@@V?$allocator@V?$basic_json@Vmap@std@@Vvector@2@V?$basic_string@DU?$char_traits@D@std@@V?$allocator@D@2@@2@_N_J_KNVallocator@2@Uadl_serializer@nlohmann@@@nlohmann@@@std@@@1@@Z 10026200 f i Config.obj
 0001:00025210       ??$destroy@VConfigFile@@@?$_Default_allocator_traits@V?$allocator@VConfigFile@@@std@@@std@@SAXAAV?$allocator@VConfigFile@@@1@QAVConfigFile@@@Z 10026210 f i Config.obj
 0001:00025220       ??$distance@PAU?$pair@HPBD@std@@@std@@YAHPAU?$pair@HPBD@0@0@Z 10026220 f i tab_Skin_Changer.obj
 0001:00025220       ??$distance@PBUwskin@@@std@@YAHPBUwskin@@0@Z 10026220 f i Protobuffs.obj
 0001:00025220       ??$distance@PBU?$pair@HPBD@std@@@std@@YAHPBU?$pair@HPBD@0@0@Z 10026220 f i Config.obj
 0001:00025230       ??$dump_integer@_J$0A@@?$serializer@V?$basic_json@Vmap@std@@Vvector@2@V?$basic_string@DU?$char_traits@D@std@@V?$allocator@D@2@@2@_N_J_KNVallocator@2@Uadl_serializer@nlohmann@@@nlohmann@@@detail@nlohmann@@AAEX_J@Z 10026230 f i Config.obj
 0001:000253c0       ??$dump_integer@_K$0A@@?$serializer@V?$basic_json@Vmap@std@@Vvector@2@V?$basic_string@DU?$char_traits@D@std@@V?$allocator@D@2@@2@_N_J_KNVallocator@2@Uadl_serializer@nlohmann@@@nlohmann@@@detail@nlohmann@@AAEX_K@Z 100263c0 f i Config.obj
 0001:00025550       ??$emplace@V?$basic_string@DU?$char_traits@D@std@@V?$allocator@D@2@@std@@V?$basic_json@Vmap@std@@Vvector@2@V?$basic_string@DU?$char_traits@D@std@@V?$allocator@D@2@@2@_N_J_KNVallocator@2@Uadl_serializer@nlohmann@@@nlohmann@@@?$_Tree@V?$_Tmap_traits@V?$basic_string@DU?$char_traits@D@std@@V?$allocator@D@2@@std@@V?$basic_json@Vmap@std@@Vvector@2@V?$basic_string@DU?$char_traits@D@std@@V?$allocator@D@2@@2@_N_J_KNVallocator@2@Uadl_serializer@nlohmann@@@nlohmann@@U?$less@X@2@V?$allocator@U?$pair@$$CBV?$basic_string@DU?$char_traits@D@std@@V?$allocator@D@2@@std@@V?$basic_json@Vmap@std@@Vvector@2@V?$basic_string@DU?$char_traits@D@std@@V?$allocator@D@2@@2@_N_J_KNVallocator@2@Uadl_serializer@nlohmann@@@nlohmann@@@std@@@2@$0A@@std@@@std@@QAE?AU?$pair@V?$_Tree_iterator@V?$_Tree_val@U?$_Tree_simple_types@U?$pair@$$CBV?$basic_string@DU?$char_traits@D@std@@V?$allocator@D@2@@std@@V?$basic_json@Vmap@std@@Vvector@2@V?$basic_string@DU?$char_traits@D@std@@V?$allocator@D@2@@2@_N_J_KNVallocator@2@Uadl_serializer@nlohmann@@@nlohmann@@@std@@@std@@@std@@@std@@_N@1@$$QAV?$basic_string@DU?$char_traits@D@std@@V?$allocator@D@2@@1@$$QAV?$basic_json@Vmap@std@@Vvector@2@V?$basic_string@DU?$char_traits@D@std@@V?$allocator@D@2@@2@_N_J_KNVallocator@2@Uadl_serializer@nlohmann@@@nlohmann@@@Z 10026550 f i Config.obj
 0001:000255c0       ??$emplace_back@AAVConfigFile@@@?$vector@VConfigFile@@V?$allocator@VConfigFile@@@std@@@std@@QAEAAVConfigFile@@AAV2@@Z 100265c0 f i Config.obj
 0001:00025630       ??$emplace_back@D@?$vector@DV?$allocator@D@std@@@std@@QAEAAD$$QAD@Z 10026630 f i Config.obj
 0001:000256a0       ??$emplace_back@U_Find_file_handle@filesystem@std@@@?$vector@U_Find_file_handle@filesystem@std@@V?$allocator@U_Find_file_handle@filesystem@std@@@3@@std@@QAEAAU_Find_file_handle@filesystem@1@$$QAU231@@Z 100266a0 f i Config.obj
 0001:00025710       ??$emplace_back@V?$basic_json@Vmap@std@@Vvector@2@V?$basic_string@DU?$char_traits@D@std@@V?$allocator@D@2@@2@_N_J_KNVallocator@2@Uadl_serializer@nlohmann@@@nlohmann@@@?$vector@V?$basic_json@Vmap@std@@Vvector@2@V?$basic_string@DU?$char_traits@D@std@@V?$allocator@D@2@@2@_N_J_KNVallocator@2@Uadl_serializer@nlohmann@@@nlohmann@@V?$allocator@V?$basic_json@Vmap@std@@Vvector@2@V?$basic_string@DU?$char_traits@D@std@@V?$allocator@D@2@@2@_N_J_KNVallocator@2@Uadl_serializer@nlohmann@@@nlohmann@@@std@@@std@@QAEAAV?$basic_json@Vmap@std@@Vvector@2@V?$basic_string@DU?$char_traits@D@std@@V?$allocator@D@2@@2@_N_J_KNVallocator@2@Uadl_serializer@nlohmann@@@nlohmann@@$$QAV23@@Z 10026710 f i Config.obj
 0001:00025780       ??$emplace_back@V?$basic_string@DU?$char_traits@D@std@@V?$allocator@D@2@@std@@@?$vector@V?$basic_string@DU?$char_traits@D@std@@V?$allocator@D@2@@std@@V?$allocator@V?$basic_string@DU?$char_traits@D@std@@V?$allocator@D@2@@std@@@2@@std@@QAEAAV?$basic_string@DU?$char_traits@D@std@@V?$allocator@D@2@@1@$$QAV21@@Z 10026780 f i Config.obj
 0001:000257f0       ??$end@D$0BF@@std@@YAPADAAY0BF@D@Z 100267f0 f i Config.obj
 0001:00025800       ??$endl@DU?$char_traits@D@std@@@std@@YAAAV?$basic_ostream@DU?$char_traits@D@std@@@0@AAV10@@Z 10026800 f i Config.obj
 0001:00025840       ??$exchange@PAU?$_List_node@U?$pair@$$CBV?$basic_string@DU?$char_traits@D@std@@V?$allocator@D@2@@std@@V?$unique_ptr@UNetvarTable@@U?$default_delete@UNetvarTable@@@std@@@2@@std@@PAX@std@@$$T@std@@YAPAU?$_List_node@U?$pair@$$CBV?$basic_string@DU?$char_traits@D@std@@V?$allocator@D@2@@std@@V?$unique_ptr@UNetvarTable@@U?$default_delete@UNetvarTable@@@std@@@2@@std@@PAX@0@AAPAU10@$$QA$$T@Z 10026840 f i NetvarManager.obj
 0001:00025840       ??$exchange@PAUNetvarTable@@PAU1@@std@@YAPAUNetvarTable@@AAPAU1@$$QAPAU1@@Z 10026840 f i NetvarManager.obj
 0001:00025840       ??$exchange@PAVNetvarDatabase@@PAV1@@std@@YAPAVNetvarDatabase@@AAPAV1@$$QAPAV1@@Z 10026840 f i NetvarManager.obj
 0001:00025840       ??$exchange@PAV?$basic_string@DU?$char_traits@D@std@@V?$allocator@D@2@@std@@PAV12@@std@@YAPAV?$basic_string@DU?$char_traits@D@std@@V?$allocator@D@2@@0@AAPAV10@$$QAPAV10@@Z 10026840 f i Config.obj
 0001:00025840       ??$exchange@PAU?$_Tree_node@U?$pair@$$CBHPAVCWindow@@@std@@PAX@std@@AAPAU12@@std@@YAPAU?$_Tree_node@U?$pair@$$CBHPAVCWindow@@@std@@PAX@0@AAPAU10@0@Z 10026840 f i GUI.obj
 0001:00025840       ??$exchange@PAU?$_Tree_node@U?$pair@QAXU?$pair@V?$basic_string@DU?$char_traits@D@std@@V?$allocator@D@2@@std@@V?$vector@V?$basic_string@DU?$char_traits@D@std@@V?$allocator@D@2@@std@@V?$allocator@V?$basic_string@DU?$char_traits@D@std@@V?$allocator@D@2@@std@@@2@@2@@std@@@std@@PAX@std@@AAPAU12@@std@@YAPAU?$_Tree_node@U?$pair@QAXU?$pair@V?$basic_string@DU?$char_traits@D@std@@V?$allocator@D@2@@std@@V?$vector@V?$basic_string@DU?$char_traits@D@std@@V?$allocator@D@2@@std@@V?$allocator@V?$basic_string@DU?$char_traits@D@std@@V?$allocator@D@2@@std@@@2@@2@@std@@@std@@PAX@0@AAPAU10@0@Z 10026840 f i NetvarManager.obj
 0001:00025840       ??$exchange@PAV_Facet_base@std@@PAV12@@std@@YAPAV_Facet_base@0@AAPAV10@$$QAPAV10@@Z 10026840 f i Config.obj
 0001:00025840       ??$exchange@PAU?$_List_node@U?$pair@$$CBV?$basic_string@DU?$char_traits@D@std@@V?$allocator@D@2@@std@@I@std@@PAX@std@@$$T@std@@YAPAU?$_List_node@U?$pair@$$CBV?$basic_string@DU?$char_traits@D@std@@V?$allocator@D@2@@std@@I@std@@PAX@0@AAPAU10@$$QA$$T@Z 10026840 f i NetvarManager.obj
 0001:00025840       ??$exchange@W4__std_fs_dir_handle@@AAW41@@std@@YA?AW4__std_fs_dir_handle@@AAW41@0@Z 10026840 f i Config.obj
 0001:00025840       ??$exchange@PAVNetvarDatabase@@AAPAV1@@std@@YAPAVNetvarDatabase@@AAPAV1@0@Z 10026840 f i NetvarManager.obj
 0001:00025840       ??$exchange@PAU?$_List_node@U?$pair@QADPAD@std@@PAX@std@@$$T@std@@YAPAU?$_List_node@U?$pair@QADPAD@std@@PAX@0@AAPAU10@$$QA$$T@Z 10026840 f i skinchanger.obj
 0001:00025840       ??$exchange@W4__std_fs_dir_handle@@W41@@std@@YA?AW4__std_fs_dir_handle@@AAW41@$$QAW41@@Z 10026840 f i Config.obj
 0001:00025840       ??$exchange@PAU?$_Tree_node@U?$pair@$$CBV?$basic_string@DU?$char_traits@D@std@@V?$allocator@D@2@@std@@V?$basic_json@Vmap@std@@Vvector@2@V?$basic_string@DU?$char_traits@D@std@@V?$allocator@D@2@@2@_N_J_KNVallocator@2@Uadl_serializer@nlohmann@@@nlohmann@@@std@@PAX@std@@$$T@std@@YAPAU?$_Tree_node@U?$pair@$$CBV?$basic_string@DU?$char_traits@D@std@@V?$allocator@D@2@@std@@V?$basic_json@Vmap@std@@Vvector@2@V?$basic_string@DU?$char_traits@D@std@@V?$allocator@D@2@@2@_N_J_KNVallocator@2@Uadl_serializer@nlohmann@@@nlohmann@@@std@@PAX@0@AAPAU10@$$QA$$T@Z 10026840 f i Config.obj
 0001:00025840       ??$exchange@PAV?$map@V?$basic_string@DU?$char_traits@D@std@@V?$allocator@D@2@@std@@V?$basic_json@Vmap@std@@Vvector@2@V?$basic_string@DU?$char_traits@D@std@@V?$allocator@D@2@@2@_N_J_KNVallocator@2@Uadl_serializer@nlohmann@@@nlohmann@@U?$less@X@2@V?$allocator@U?$pair@$$CBV?$basic_string@DU?$char_traits@D@std@@V?$allocator@D@2@@std@@V?$basic_json@Vmap@std@@Vvector@2@V?$basic_string@DU?$char_traits@D@std@@V?$allocator@D@2@@2@_N_J_KNVallocator@2@Uadl_serializer@nlohmann@@@nlohmann@@@std@@@2@@std@@PAV12@@std@@YAPAV?$map@V?$basic_string@DU?$char_traits@D@std@@V?$allocator@D@2@@std@@V?$basic_json@Vmap@std@@Vvector@2@V?$basic_string@DU?$char_traits@D@std@@V?$allocator@D@2@@2@_N_J_KNVallocator@2@Uadl_serializer@nlohmann@@@nlohmann@@U?$less@X@2@V?$allocator@U?$pair@$$CBV?$basic_string@DU?$char_traits@D@std@@V?$allocator@D@2@@std@@V?$basic_json@Vmap@std@@Vvector@2@V?$basic_string@DU?$char_traits@D@std@@V?$allocator@D@2@@2@_N_J_KNVallocator@2@Uadl_serializer@nlohmann@@@nlohmann@@@std@@@2@@0@AAPAV10@$$QAPAV10@@Z 10026840 f i Config.obj
 0001:00025840       ??$exchange@PAV?$vector@V?$basic_json@Vmap@std@@Vvector@2@V?$basic_string@DU?$char_traits@D@std@@V?$allocator@D@2@@2@_N_J_KNVallocator@2@Uadl_serializer@nlohmann@@@nlohmann@@V?$allocator@V?$basic_json@Vmap@std@@Vvector@2@V?$basic_string@DU?$char_traits@D@std@@V?$allocator@D@2@@2@_N_J_KNVallocator@2@Uadl_serializer@nlohmann@@@nlohmann@@@std@@@std@@PAV12@@std@@YAPAV?$vector@V?$basic_json@Vmap@std@@Vvector@2@V?$basic_string@DU?$char_traits@D@std@@V?$allocator@D@2@@2@_N_J_KNVallocator@2@Uadl_serializer@nlohmann@@@nlohmann@@V?$allocator@V?$basic_json@Vmap@std@@Vvector@2@V?$basic_string@DU?$char_traits@D@std@@V?$allocator@D@2@@2@_N_J_KNVallocator@2@Uadl_serializer@nlohmann@@@nlohmann@@@std@@@0@AAPAV10@$$QAPAV10@@Z 10026840 f i Config.obj
 0001:00025840       ??$exchange@PAU?$_Tree_node@U?$pair@$$CBV?$basic_string@DU?$char_traits@D@std@@V?$allocator@D@2@@std@@V?$basic_json@Vmap@std@@Vvector@2@V?$basic_string@DU?$char_traits@D@std@@V?$allocator@D@2@@2@_N_J_KNVallocator@2@Uadl_serializer@nlohmann@@@nlohmann@@@std@@PAX@std@@AAPAU12@@std@@YAPAU?$_Tree_node@U?$pair@$$CBV?$basic_string@DU?$char_traits@D@std@@V?$allocator@D@2@@std@@V?$basic_json@Vmap@std@@Vvector@2@V?$basic_string@DU?$char_traits@D@std@@V?$allocator@D@2@@2@_N_J_KNVallocator@2@Uadl_serializer@nlohmann@@@nlohmann@@@std@@PAX@0@AAPAU10@0@Z 10026840 f i Config.obj
 0001:00025840       ??$exchange@PAU_Container_proxy@std@@$$T@std@@YAPAU_Container_proxy@0@AAPAU10@$$QA$$T@Z 10026840 f i LagComp.obj
 0001:00025860       ??$find@PB_W_W@std@@YAPB_WPB_WQB_WAB_W@Z 10026860 f i Config.obj
 0001:000258d0       ??$find_if@PB_WU_Is_slash_oper@std@@@std@@YAPB_WPB_WQB_WU_Is_slash_oper@0@@Z 100268d0 f i Config.obj
 0001:00025950       ??$find_if@V?$reverse_iterator@PB_W@std@@U_Is_slash_oper@2@@std@@YA?AV?$reverse_iterator@PB_W@0@V10@V10@U_Is_slash_oper@0@@Z 10026950 f i Config.obj
 0001:000259f0       ??$find_if_not@PB_WU_Is_slash_oper@std@@@std@@YAPB_WPB_WQB_WU_Is_slash_oper@0@@Z 100269f0 f i Config.obj
 0001:00025a70       ??$find_if_not@V?$reverse_iterator@PB_W@std@@U_Is_slash_oper@2@@std@@YA?AV?$reverse_iterator@PB_W@0@V10@V10@U_Is_slash_oper@0@@Z 10026a70 f i Config.obj
 0001:00025b10       ??$forward_as_tuple@$$V@std@@YA?AV?$tuple@$$V@0@XZ 10026b10 f i Config.obj
 0001:00025b20       ??$forward_as_tuple@ABV?$basic_string@DU?$char_traits@D@std@@V?$allocator@D@2@@std@@@std@@YA?AV?$tuple@ABV?$basic_string@DU?$char_traits@D@std@@V?$allocator@D@2@@std@@@0@ABV?$basic_string@DU?$char_traits@D@std@@V?$allocator@D@2@@0@@Z 10026b20 f i Config.obj
 0001:00025b20       ??$forward_as_tuple@ABQAD@std@@YA?AV?$tuple@ABQAD@0@ABQAD@Z 10026b20 f i skinchanger.obj
 0001:00025b40       ??$forward_as_tuple@V?$basic_string@DU?$char_traits@D@std@@V?$allocator@D@2@@std@@@std@@YA?AV?$tuple@$$QAV?$basic_string@DU?$char_traits@D@std@@V?$allocator@D@2@@std@@@0@$$QAV?$basic_string@DU?$char_traits@D@std@@V?$allocator@D@2@@0@@Z 10026b40 f i Config.obj
 0001:00025b60       ??$from_json@ABV?$basic_json@Vmap@std@@Vvector@2@V?$basic_string@DU?$char_traits@D@std@@V?$allocator@D@2@@2@_N_J_KNVallocator@2@Uadl_serializer@nlohmann@@@nlohmann@@H@?$adl_serializer@HX@nlohmann@@SAXABV?$basic_json@Vmap@std@@Vvector@2@V?$basic_string@DU?$char_traits@D@std@@V?$allocator@D@2@@2@_N_J_KNVallocator@2@Uadl_serializer@nlohmann@@@1@AAH@Z 10026b60 f i Config.obj
 0001:00025b90       ??$from_json@ABV?$basic_json@Vmap@std@@Vvector@2@V?$basic_string@DU?$char_traits@D@std@@V?$allocator@D@2@@2@_N_J_KNVallocator@2@Uadl_serializer@nlohmann@@@nlohmann@@M@?$adl_serializer@MX@nlohmann@@SAXABV?$basic_json@Vmap@std@@Vvector@2@V?$basic_string@DU?$char_traits@D@std@@V?$allocator@D@2@@2@_N_J_KNVallocator@2@Uadl_serializer@nlohmann@@@1@AAM@Z 10026b90 f i Config.obj
 0001:00025bc0       ??$from_json@ABV?$basic_json@Vmap@std@@Vvector@2@V?$basic_string@DU?$char_traits@D@std@@V?$allocator@D@2@@2@_N_J_KNVallocator@2@Uadl_serializer@nlohmann@@@nlohmann@@V?$basic_string@DU?$char_traits@D@std@@V?$allocator@D@2@@std@@@?$adl_serializer@V?$basic_string@DU?$char_traits@D@std@@V?$allocator@D@2@@std@@X@nlohmann@@SAXABV?$basic_json@Vmap@std@@Vvector@2@V?$basic_string@DU?$char_traits@D@std@@V?$allocator@D@2@@2@_N_J_KNVallocator@2@Uadl_serializer@nlohmann@@@1@AAV?$basic_string@DU?$char_traits@D@std@@V?$allocator@D@2@@std@@@Z 10026bc0 f i Config.obj
 0001:00025bf0       ??$from_json@ABV?$basic_json@Vmap@std@@Vvector@2@V?$basic_string@DU?$char_traits@D@std@@V?$allocator@D@2@@2@_N_J_KNVallocator@2@Uadl_serializer@nlohmann@@@nlohmann@@_N@?$adl_serializer@_NX@nlohmann@@SAXABV?$basic_json@Vmap@std@@Vvector@2@V?$basic_string@DU?$char_traits@D@std@@V?$allocator@D@2@@2@_N_J_KNVallocator@2@Uadl_serializer@nlohmann@@@1@AA_N@Z 10026bf0 f i Config.obj
 0001:00025c20       ??$from_json@V?$basic_json@Vmap@std@@Vvector@2@V?$basic_string@DU?$char_traits@D@std@@V?$allocator@D@2@@2@_N_J_KNVallocator@2@Uadl_serializer@nlohmann@@@nlohmann@@@detail@nlohmann@@YAXABV?$basic_json@Vmap@std@@Vvector@2@V?$basic_string@DU?$char_traits@D@std@@V?$allocator@D@2@@2@_N_J_KNVallocator@2@Uadl_serializer@nlohmann@@@1@AAV?$basic_string@DU?$char_traits@D@std@@V?$allocator@D@2@@std@@@Z 10026c20 f i Config.obj
 0001:00025d10       ??$from_json@V?$basic_json@Vmap@std@@Vvector@2@V?$basic_string@DU?$char_traits@D@std@@V?$allocator@D@2@@2@_N_J_KNVallocator@2@Uadl_serializer@nlohmann@@@nlohmann@@@detail@nlohmann@@YAXABV?$basic_json@Vmap@std@@Vvector@2@V?$basic_string@DU?$char_traits@D@std@@V?$allocator@D@2@@2@_N_J_KNVallocator@2@Uadl_serializer@nlohmann@@@1@AA_N@Z 10026d10 f i Config.obj
 0001:00025e00       ??$from_json@V?$basic_json@Vmap@std@@Vvector@2@V?$basic_string@DU?$char_traits@D@std@@V?$allocator@D@2@@2@_N_J_KNVallocator@2@Uadl_serializer@nlohmann@@@nlohmann@@H$0A@@detail@nlohmann@@YAXABV?$basic_json@Vmap@std@@Vvector@2@V?$basic_string@DU?$char_traits@D@std@@V?$allocator@D@2@@2@_N_J_KNVallocator@2@Uadl_serializer@nlohmann@@@1@AAH@Z 10026e00 f i Config.obj
 0001:00025f50       ??$from_json@V?$basic_json@Vmap@std@@Vvector@2@V?$basic_string@DU?$char_traits@D@std@@V?$allocator@D@2@@2@_N_J_KNVallocator@2@Uadl_serializer@nlohmann@@@nlohmann@@M$0A@@detail@nlohmann@@YAXABV?$basic_json@Vmap@std@@Vvector@2@V?$basic_string@DU?$char_traits@D@std@@V?$allocator@D@2@@2@_N_J_KNVallocator@2@Uadl_serializer@nlohmann@@@1@AAM@Z 10026f50 f i Config.obj
 0001:000260d0       ??$get@HH$0A@@?$basic_json@Vmap@std@@Vvector@2@V?$basic_string@DU?$char_traits@D@std@@V?$allocator@D@2@@2@_N_J_KNVallocator@2@Uadl_serializer@nlohmann@@@nlohmann@@QBEHXZ 100270d0 f i Config.obj
 0001:000260f0       ??$get@MM$0A@@?$basic_json@Vmap@std@@Vvector@2@V?$basic_string@DU?$char_traits@D@std@@V?$allocator@D@2@@2@_N_J_KNVallocator@2@Uadl_serializer@nlohmann@@@nlohmann@@QBEMXZ 100270f0 f i Config.obj
 0001:00026110       ??$get@V?$basic_string@DU?$char_traits@D@std@@V?$allocator@D@2@@std@@V12@$0A@@?$basic_json@Vmap@std@@Vvector@2@V?$basic_string@DU?$char_traits@D@std@@V?$allocator@D@2@@2@_N_J_KNVallocator@2@Uadl_serializer@nlohmann@@@nlohmann@@QBE?AV?$basic_string@DU?$char_traits@D@std@@V?$allocator@D@2@@std@@XZ 10027110 f i Config.obj
 0001:000261b0       ??$get@_N_N$0A@@?$basic_json@Vmap@std@@Vvector@2@V?$basic_string@DU?$char_traits@D@std@@V?$allocator@D@2@@2@_N_J_KNVallocator@2@Uadl_serializer@nlohmann@@@nlohmann@@QBE_NXZ 100271b0 f i Config.obj
 0001:000261d0       ??$get_ptr@PBN$0A@@?$basic_json@Vmap@std@@Vvector@2@V?$basic_string@DU?$char_traits@D@std@@V?$allocator@D@2@@2@_N_J_KNVallocator@2@Uadl_serializer@nlohmann@@@nlohmann@@QBEQBNXZ 100271d0 f i Config.obj
 0001:000261f0       ??$get_ptr@PBV?$basic_string@DU?$char_traits@D@std@@V?$allocator@D@2@@std@@$0A@@?$basic_json@Vmap@std@@Vvector@2@V?$basic_string@DU?$char_traits@D@std@@V?$allocator@D@2@@2@_N_J_KNVallocator@2@Uadl_serializer@nlohmann@@@nlohmann@@QBEQBV?$basic_string@DU?$char_traits@D@std@@V?$allocator@D@2@@std@@XZ 100271f0 f i Config.obj
 0001:00026210       ??$get_ptr@PB_J$0A@@?$basic_json@Vmap@std@@Vvector@2@V?$basic_string@DU?$char_traits@D@std@@V?$allocator@D@2@@2@_N_J_KNVallocator@2@Uadl_serializer@nlohmann@@@nlohmann@@QBEQB_JXZ 10027210 f i Config.obj
 0001:00026230       ??$get_ptr@PB_K$0A@@?$basic_json@Vmap@std@@Vvector@2@V?$basic_string@DU?$char_traits@D@std@@V?$allocator@D@2@@2@_N_J_KNVallocator@2@Uadl_serializer@nlohmann@@@nlohmann@@QBEQB_KXZ 10027230 f i Config.obj
 0001:00026250       ??$get_ptr@PB_N$0A@@?$basic_json@Vmap@std@@Vvector@2@V?$basic_string@DU?$char_traits@D@std@@V?$allocator@D@2@@2@_N_J_KNVallocator@2@Uadl_serializer@nlohmann@@@nlohmann@@QBEQB_NXZ 10027250 f i Config.obj
 0001:00026270       ??$grisu2@N@dtoa_impl@detail@nlohmann@@YAXPADAAH1N@Z 10027270 f i Config.obj
 0001:00026320       ??$isfinite@N@@YA_NN@Z     10027320 f i Config.obj
 0001:00026360       ??$iter_swap@PAV?$basic_string@DU?$char_traits@D@std@@V?$allocator@D@2@@std@@PAV12@@std@@YAXPAV?$basic_string@DU?$char_traits@D@std@@V?$allocator@D@2@@0@0@Z 10027360 f i Config.obj
 0001:00026380       ??$make_shared@U_Recursive_dir_enum_impl@filesystem@std@@U_Creator@_Dir_enum_impl@23@ABW4directory_options@23@@std@@YA?AV?$shared_ptr@U_Recursive_dir_enum_impl@filesystem@std@@@0@$$QAU_Creator@_Dir_enum_impl@filesystem@0@ABW4directory_options@40@@Z 10027380 f i Config.obj
 0001:00026470       ??$make_shared@V?$output_stream_adapter@D@detail@nlohmann@@AAV?$basic_ostream@DU?$char_traits@D@std@@@std@@@std@@YA?AV?$shared_ptr@V?$output_stream_adapter@D@detail@nlohmann@@@0@AAV?$basic_ostream@DU?$char_traits@D@std@@@0@@Z 10027470 f i Config.obj
 0001:00026550       ??$make_shared@VColor@@AAV1@@std@@YA?AV?$shared_ptr@VColor@@@0@AAVColor@@@Z 10027550 f i Config.obj
 0001:00026630       ??$make_shared@Vinput_stream_adapter@detail@nlohmann@@AAV?$basic_istream@DU?$char_traits@D@std@@@std@@@std@@YA?AV?$shared_ptr@Vinput_stream_adapter@detail@nlohmann@@@0@AAV?$basic_istream@DU?$char_traits@D@std@@@0@@Z 10027630 f i Config.obj
 0001:00026710       ??$reinterpret_bits@_KN@dtoa_impl@detail@nlohmann@@YA_KN@Z 10027710 f i Config.obj
 0001:00026740       ??$reverse@V?$_Array_iterator@D$0EA@@std@@@std@@YAXV?$_Array_iterator@D$0EA@@0@0@Z 10027740 f i Config.obj
 0001:00026790       ??$setfill@D@std@@YA?AU?$_Fillobj@D@0@D@Z 10027790 f i Config.obj
 0001:000267b0       ??$sort@V?$_Vector_iterator@V?$_Vector_val@U?$_Simple_types@V?$basic_string@DU?$char_traits@D@std@@V?$allocator@D@2@@std@@@std@@@std@@@std@@@std@@YAXV?$_Vector_iterator@V?$_Vector_val@U?$_Simple_types@V?$basic_string@DU?$char_traits@D@std@@V?$allocator@D@2@@std@@@std@@@std@@@0@0@Z 100277b0 f i Config.obj
 0001:000267d0       ??$sort@V?$_Vector_iterator@V?$_Vector_val@U?$_Simple_types@V?$basic_string@DU?$char_traits@D@std@@V?$allocator@D@2@@std@@@std@@@std@@@std@@U?$less@X@2@@std@@YAXV?$_Vector_iterator@V?$_Vector_val@U?$_Simple_types@V?$basic_string@DU?$char_traits@D@std@@V?$allocator@D@2@@std@@@std@@@std@@@0@0U?$less@X@0@@Z 100277d0 f i Config.obj
 0001:00026840       ??$string@DU?$char_traits@D@std@@V?$allocator@D@2@$0A@@path@filesystem@std@@QBE?AV?$basic_string@DU?$char_traits@D@std@@V?$allocator@D@2@@2@ABV?$allocator@D@2@@Z 10027840 f i Config.obj
 0001:00026890       ??$swap@DU?$char_traits@D@std@@V?$allocator@D@2@@std@@YAXAAV?$basic_string@DU?$char_traits@D@std@@V?$allocator@D@2@@0@0@Z 10027890 f i Config.obj
 0001:000268b0       ??$swap@PAU_Recursive_dir_enum_impl@filesystem@std@@$0A@@std@@YAXAAPAU_Recursive_dir_enum_impl@filesystem@0@0@Z 100278b0 f i Config.obj
 0001:000268b0       ??$swap@PAVColor@@$0A@@std@@YAXAAPAVColor@@0@Z 100278b0 f i Config.obj
 0001:000268b0       ??$swap@PAV_Ref_count_base@std@@$0A@@std@@YAXAAPAV_Ref_count_base@0@0@Z 100278b0 f i Config.obj
 0001:000268f0       ??$swap@Tjson_value@?$basic_json@Vmap@std@@Vvector@2@V?$basic_string@DU?$char_traits@D@std@@V?$allocator@D@2@@2@_N_J_KNVallocator@2@Uadl_serializer@nlohmann@@@nlohmann@@$0A@@std@@YAXAATjson_value@?$basic_json@Vmap@std@@Vvector@2@V?$basic_string@DU?$char_traits@D@std@@V?$allocator@D@2@@2@_N_J_KNVallocator@2@Uadl_serializer@nlohmann@@@nlohmann@@0@Z 100278f0 f i Config.obj
 0001:00026950       ??$swap@W4value_t@detail@nlohmann@@$0A@@std@@YAXAAW4value_t@detail@nlohmann@@0@Z 10027950 f i Config.obj
 0001:00026990       ??$to_chars@N@detail@nlohmann@@YAPADPAD0N@Z 10027990 f i Config.obj
 0001:00026a70       ??$to_json@V?$basic_json@Vmap@std@@Vvector@2@V?$basic_string@DU?$char_traits@D@std@@V?$allocator@D@2@@2@_N_J_KNVallocator@2@Uadl_serializer@nlohmann@@@nlohmann@@AAE@?$adl_serializer@EX@nlohmann@@SAXAAV?$basic_json@Vmap@std@@Vvector@2@V?$basic_string@DU?$char_traits@D@std@@V?$allocator@D@2@@2@_N_J_KNVallocator@2@Uadl_serializer@nlohmann@@@1@AAE@Z 10027a70 f i Config.obj
 0001:00026aa0       ??$to_json@V?$basic_json@Vmap@std@@Vvector@2@V?$basic_string@DU?$char_traits@D@std@@V?$allocator@D@2@@2@_N_J_KNVallocator@2@Uadl_serializer@nlohmann@@@nlohmann@@AAH@?$adl_serializer@HX@nlohmann@@SAXAAV?$basic_json@Vmap@std@@Vvector@2@V?$basic_string@DU?$char_traits@D@std@@V?$allocator@D@2@@2@_N_J_KNVallocator@2@Uadl_serializer@nlohmann@@@1@AAH@Z 10027aa0 f i Config.obj
 0001:00026ad0       ??$to_json@V?$basic_json@Vmap@std@@Vvector@2@V?$basic_string@DU?$char_traits@D@std@@V?$allocator@D@2@@2@_N_J_KNVallocator@2@Uadl_serializer@nlohmann@@@nlohmann@@AAM@?$adl_serializer@MX@nlohmann@@SAXAAV?$basic_json@Vmap@std@@Vvector@2@V?$basic_string@DU?$char_traits@D@std@@V?$allocator@D@2@@2@_N_J_KNVallocator@2@Uadl_serializer@nlohmann@@@1@AAM@Z 10027ad0 f i Config.obj
 0001:00026b00       ??$to_json@V?$basic_json@Vmap@std@@Vvector@2@V?$basic_string@DU?$char_traits@D@std@@V?$allocator@D@2@@2@_N_J_KNVallocator@2@Uadl_serializer@nlohmann@@@nlohmann@@AAV?$basic_string@DU?$char_traits@D@std@@V?$allocator@D@2@@std@@@?$adl_serializer@V?$basic_string@DU?$char_traits@D@std@@V?$allocator@D@2@@std@@X@nlohmann@@SAXAAV?$basic_json@Vmap@std@@Vvector@2@V?$basic_string@DU?$char_traits@D@std@@V?$allocator@D@2@@2@_N_J_KNVallocator@2@Uadl_serializer@nlohmann@@@1@AAV?$basic_string@DU?$char_traits@D@std@@V?$allocator@D@2@@std@@@Z 10027b00 f i Config.obj
 0001:00026b30       ??$to_json@V?$basic_json@Vmap@std@@Vvector@2@V?$basic_string@DU?$char_traits@D@std@@V?$allocator@D@2@@2@_N_J_KNVallocator@2@Uadl_serializer@nlohmann@@@nlohmann@@AA_N@?$adl_serializer@_NX@nlohmann@@SAXAAV?$basic_json@Vmap@std@@Vvector@2@V?$basic_string@DU?$char_traits@D@std@@V?$allocator@D@2@@2@_N_J_KNVallocator@2@Uadl_serializer@nlohmann@@@1@AA_N@Z 10027b30 f i Config.obj
 0001:00026b60       ??$to_json@V?$basic_json@Vmap@std@@Vvector@2@V?$basic_string@DU?$char_traits@D@std@@V?$allocator@D@2@@2@_N_J_KNVallocator@2@Uadl_serializer@nlohmann@@@nlohmann@@E$0A@@detail@nlohmann@@YAXAAV?$basic_json@Vmap@std@@Vvector@2@V?$basic_string@DU?$char_traits@D@std@@V?$allocator@D@2@@2@_N_J_KNVallocator@2@Uadl_serializer@nlohmann@@@1@E@Z 10027b60 f i Config.obj
 0001:00026b80       ??$to_json@V?$basic_json@Vmap@std@@Vvector@2@V?$basic_string@DU?$char_traits@D@std@@V?$allocator@D@2@@2@_N_J_KNVallocator@2@Uadl_serializer@nlohmann@@@nlohmann@@H$0A@@detail@nlohmann@@YAXAAV?$basic_json@Vmap@std@@Vvector@2@V?$basic_string@DU?$char_traits@D@std@@V?$allocator@D@2@@2@_N_J_KNVallocator@2@Uadl_serializer@nlohmann@@@1@H@Z 10027b80 f i Config.obj
 0001:00026ba0       ??$to_json@V?$basic_json@Vmap@std@@Vvector@2@V?$basic_string@DU?$char_traits@D@std@@V?$allocator@D@2@@2@_N_J_KNVallocator@2@Uadl_serializer@nlohmann@@@nlohmann@@M$0A@@detail@nlohmann@@YAXAAV?$basic_json@Vmap@std@@Vvector@2@V?$basic_string@DU?$char_traits@D@std@@V?$allocator@D@2@@2@_N_J_KNVallocator@2@Uadl_serializer@nlohmann@@@1@M@Z 10027ba0 f i Config.obj
 0001:00026bc0       ??$to_json@V?$basic_json@Vmap@std@@Vvector@2@V?$basic_string@DU?$char_traits@D@std@@V?$allocator@D@2@@2@_N_J_KNVallocator@2@Uadl_serializer@nlohmann@@@nlohmann@@V?$basic_string@DU?$char_traits@D@std@@V?$allocator@D@2@@std@@$0A@@detail@nlohmann@@YAXAAV?$basic_json@Vmap@std@@Vvector@2@V?$basic_string@DU?$char_traits@D@std@@V?$allocator@D@2@@2@_N_J_KNVallocator@2@Uadl_serializer@nlohmann@@@1@ABV?$basic_string@DU?$char_traits@D@std@@V?$allocator@D@2@@std@@@Z 10027bc0 f i Config.obj
 0001:00026be0       ??$to_json@V?$basic_json@Vmap@std@@Vvector@2@V?$basic_string@DU?$char_traits@D@std@@V?$allocator@D@2@@2@_N_J_KNVallocator@2@Uadl_serializer@nlohmann@@@nlohmann@@_N$0A@@detail@nlohmann@@YAXAAV?$basic_json@Vmap@std@@Vvector@2@V?$basic_string@DU?$char_traits@D@std@@V?$allocator@D@2@@2@_N_J_KNVallocator@2@Uadl_serializer@nlohmann@@@1@_N@Z 10027be0 f i Config.obj
 0001:00026c00       ??$use_facet@V?$codecvt@DDU_Mbstatet@@@std@@@std@@YAABV?$codecvt@DDU_Mbstatet@@@0@ABVlocale@0@@Z 10027c00 f i Config.obj
 0001:00026d10       ??0_Clear_guard@?$_Hash@V?$_Umap_traits@V?$basic_string@DU?$char_traits@D@std@@V?$allocator@D@2@@std@@V?$unique_ptr@UNetvarTable@@U?$default_delete@UNetvarTable@@@std@@@2@V?$_Uhash_compare@V?$basic_string@DU?$char_traits@D@std@@V?$allocator@D@2@@std@@U?$hash@V?$basic_string@DU?$char_traits@D@std@@V?$allocator@D@2@@std@@@2@U?$equal_to@V?$basic_string@DU?$char_traits@D@std@@V?$allocator@D@2@@std@@@2@@2@V?$allocator@U?$pair@$$CBV?$basic_string@DU?$char_traits@D@std@@V?$allocator@D@2@@std@@V?$unique_ptr@UNetvarTable@@U?$default_delete@UNetvarTable@@@std@@@2@@std@@@2@$0A@@std@@@std@@QAE@QAV12@@Z 10027d10 f i NetvarManager.obj
 0001:00026d10       ??0<lambda_1>@?1???$create@V?$map@V?$basic_string@DU?$char_traits@D@std@@V?$allocator@D@2@@std@@V?$basic_json@Vmap@std@@Vvector@2@V?$basic_string@DU?$char_traits@D@std@@V?$allocator@D@2@@2@_N_J_KNVallocator@2@Uadl_serializer@nlohmann@@@nlohmann@@U?$less@X@2@V?$allocator@U?$pair@$$CBV?$basic_string@DU?$char_traits@D@std@@V?$allocator@D@2@@std@@V?$basic_json@Vmap@std@@Vvector@2@V?$basic_string@DU?$char_traits@D@std@@V?$allocator@D@2@@2@_N_J_KNVallocator@2@Uadl_serializer@nlohmann@@@nlohmann@@@std@@@2@@std@@ABV12@@?$basic_json@Vmap@std@@Vvector@2@V?$basic_string@DU?$char_traits@D@std@@V?$allocator@D@2@@2@_N_J_KNVallocator@2@Uadl_serializer@nlohmann@@@nlohmann@@CAPAV?$map@V?$basic_string@DU?$char_traits@D@std@@V?$allocator@D@2@@std@@V?$basic_json@Vmap@std@@Vvector@2@V?$basic_string@DU?$char_traits@D@std@@V?$allocator@D@2@@2@_N_J_KNVallocator@2@Uadl_serializer@nlohmann@@@nlohmann@@U?$less@X@2@V?$allocator@U?$pair@$$CBV?$basic_string@DU?$char_traits@D@std@@V?$allocator@D@2@@std@@V?$basic_json@Vmap@std@@Vvector@2@V?$basic_string@DU?$char_traits@D@std@@V?$allocator@D@2@@2@_N_J_KNVallocator@2@Uadl_serializer@nlohmann@@@nlohmann@@@std@@@2@@std@@ABV34@@Z@QAE@AAV?$allocator@V?$map@V?$basic_string@DU?$char_traits@D@std@@V?$allocator@D@2@@std@@V?$basic_json@Vmap@std@@Vvector@2@V?$basic_string@DU?$char_traits@D@std@@V?$allocator@D@2@@2@_N_J_KNVallocator@2@Uadl_serializer@nlohmann@@@nlohmann@@U?$less@X@2@V?$allocator@U?$pair@$$CBV?$basic_string@DU?$char_traits@D@std@@V?$allocator@D@2@@std@@V?$basic_json@Vmap@std@@Vvector@2@V?$basic_string@DU?$char_traits@D@std@@V?$allocator@D@2@@2@_N_J_KNVallocator@2@Uadl_serializer@nlohmann@@@nlohmann@@@std@@@2@@std@@@4@@Z 10027d10 f i tab_Login.obj
 0001:00026d10       ??0<lambda_1>@?1??AutoStrafe@Misc@@QBEXPAVCUserCmd@@@Z@QAE@AAVVector@@@Z 10027d10 f i Hooks.obj
 0001:00026d10       ??0<lambda_1>@?1???$create@V?$vector@V?$basic_json@Vmap@std@@Vvector@2@V?$basic_string@DU?$char_traits@D@std@@V?$allocator@D@2@@2@_N_J_KNVallocator@2@Uadl_serializer@nlohmann@@@nlohmann@@V?$allocator@V?$basic_json@Vmap@std@@Vvector@2@V?$basic_string@DU?$char_traits@D@std@@V?$allocator@D@2@@2@_N_J_KNVallocator@2@Uadl_serializer@nlohmann@@@nlohmann@@@std@@@std@@ABV12@@?$basic_json@Vmap@std@@Vvector@2@V?$basic_string@DU?$char_traits@D@std@@V?$allocator@D@2@@2@_N_J_KNVallocator@2@Uadl_serializer@nlohmann@@@nlohmann@@CAPAV?$vector@V?$basic_json@Vmap@std@@Vvector@2@V?$basic_string@DU?$char_traits@D@std@@V?$allocator@D@2@@2@_N_J_KNVallocator@2@Uadl_serializer@nlohmann@@@nlohmann@@V?$allocator@V?$basic_json@Vmap@std@@Vvector@2@V?$basic_string@DU?$char_traits@D@std@@V?$allocator@D@2@@2@_N_J_KNVallocator@2@Uadl_serializer@nlohmann@@@nlohmann@@@std@@@std@@ABV34@@Z@QAE@AAV?$allocator@V?$vector@V?$basic_json@Vmap@std@@Vvector@2@V?$basic_string@DU?$char_traits@D@std@@V?$allocator@D@2@@2@_N_J_KNVallocator@2@Uadl_serializer@nlohmann@@@nlohmann@@V?$allocator@V?$basic_json@Vmap@std@@Vvector@2@V?$basic_string@DU?$char_traits@D@std@@V?$allocator@D@2@@2@_N_J_KNVallocator@2@Uadl_serializer@nlohmann@@@nlohmann@@@std@@@std@@@4@@Z 10027d10 f i tab_Login.obj
 0001:00026d10       ??0<lambda_1>@?1???$create@V?$basic_string@DU?$char_traits@D@std@@V?$allocator@D@2@@std@@ABV12@@?$basic_json@Vmap@std@@Vvector@2@V?$basic_string@DU?$char_traits@D@std@@V?$allocator@D@2@@2@_N_J_KNVallocator@2@Uadl_serializer@nlohmann@@@nlohmann@@CAPAV?$basic_string@DU?$char_traits@D@std@@V?$allocator@D@2@@std@@ABV34@@Z@QAE@AAV?$allocator@V?$basic_string@DU?$char_traits@D@std@@V?$allocator@D@2@@std@@@4@@Z 10027d10 f i Config.obj
 0001:00026d10       ??0?$GenericMemberIterator@$0A@U?$UTF8@D@rapidjson@@V?$MemoryPoolAllocator@VCrtAllocator@rapidjson@@@2@@rapidjson@@AAE@PAU?$GenericMember@U?$UTF8@D@rapidjson@@V?$MemoryPoolAllocator@VCrtAllocator@rapidjson@@@2@@1@@Z 10027d10 f i http.obj
 0001:00026d10       ??0<lambda_1>@?1???$create@V?$basic_string@DU?$char_traits@D@std@@V?$allocator@D@2@@std@@V12@@?$basic_json@Vmap@std@@Vvector@2@V?$basic_string@DU?$char_traits@D@std@@V?$allocator@D@2@@2@_N_J_KNVallocator@2@Uadl_serializer@nlohmann@@@nlohmann@@CAPAV?$basic_string@DU?$char_traits@D@std@@V?$allocator@D@2@@std@@$$QAV34@@Z@QAE@AAV?$allocator@V?$basic_string@DU?$char_traits@D@std@@V?$allocator@D@2@@std@@@4@@Z 10027d10 f i Config.obj
 0001:00026d10       ??0ClearStackOnExit@?$GenericDocument@U?$UTF8@D@rapidjson@@V?$MemoryPoolAllocator@VCrtAllocator@rapidjson@@@2@VCrtAllocator@2@@rapidjson@@QAE@AAV12@@Z 10027d10 f i http.obj
 0001:00026d10       ??0<lambda_1>@?1???$create@V?$basic_string@DU?$char_traits@D@std@@V?$allocator@D@2@@std@@AAY04$$CBD@?$basic_json@Vmap@std@@Vvector@2@V?$basic_string@DU?$char_traits@D@std@@V?$allocator@D@2@@2@_N_J_KNVallocator@2@Uadl_serializer@nlohmann@@@nlohmann@@CAPAV?$basic_string@DU?$char_traits@D@std@@V?$allocator@D@2@@std@@AAY04$$CBD@Z@QAE@AAV?$allocator@V?$basic_string@DU?$char_traits@D@std@@V?$allocator@D@2@@std@@@4@@Z 10027d10 f i tab_Login.obj
 0001:00026d10       ??0<lambda_2>@?O@???0?$basic_json@Vmap@std@@Vvector@2@V?$basic_string@DU?$char_traits@D@std@@V?$allocator@D@2@@2@_N_J_KNVallocator@2@Uadl_serializer@nlohmann@@@nlohmann@@QAE@V?$initializer_list@V?$json_ref@V?$basic_json@Vmap@std@@Vvector@2@V?$basic_string@DU?$char_traits@D@std@@V?$allocator@D@2@@2@_N_J_KNVallocator@2@Uadl_serializer@nlohmann@@@nlohmann@@@detail@nlohmann@@@std@@_NW4value_t@detail@2@@Z@QAE@PAV12@@Z 10027d10 f i tab_Login.obj
 0001:00026d10       ??0ClearStackOnExit@?$GenericReader@U?$UTF8@D@rapidjson@@U12@VCrtAllocator@2@@rapidjson@@QAE@AAV12@@Z 10027d10 f i http.obj
 0001:00026d10       ??0_Clear_guard@?$_Hash@V?$_Umap_traits@V?$basic_string@DU?$char_traits@D@std@@V?$allocator@D@2@@std@@IV?$_Uhash_compare@V?$basic_string@DU?$char_traits@D@std@@V?$allocator@D@2@@std@@U?$hash@V?$basic_string@DU?$char_traits@D@std@@V?$allocator@D@2@@std@@@2@U?$equal_to@V?$basic_string@DU?$char_traits@D@std@@V?$allocator@D@2@@std@@@2@@2@V?$allocator@U?$pair@$$CBV?$basic_string@DU?$char_traits@D@std@@V?$allocator@D@2@@std@@I@std@@@2@$0A@@std@@@std@@QAE@QAV12@@Z 10027d10 f i NetvarManager.obj
 0001:00026d10       ??0CBaseHandle@@QAE@K@Z    10027d10 f i Hooks.obj
 0001:00026d10       ??0<lambda_1>@?1???$create@V?$vector@V?$basic_json@Vmap@std@@Vvector@2@V?$basic_string@DU?$char_traits@D@std@@V?$allocator@D@2@@2@_N_J_KNVallocator@2@Uadl_serializer@nlohmann@@@nlohmann@@V?$allocator@V?$basic_json@Vmap@std@@Vvector@2@V?$basic_string@DU?$char_traits@D@std@@V?$allocator@D@2@@2@_N_J_KNVallocator@2@Uadl_serializer@nlohmann@@@nlohmann@@@std@@@std@@PBV?$json_ref@V?$basic_json@Vmap@std@@Vvector@2@V?$basic_string@DU?$char_traits@D@std@@V?$allocator@D@2@@2@_N_J_KNVallocator@2@Uadl_serializer@nlohmann@@@nlohmann@@@detail@nlohmann@@PBV345@@?$basic_json@Vmap@std@@Vvector@2@V?$basic_string@DU?$char_traits@D@std@@V?$allocator@D@2@@2@_N_J_KNVallocator@2@Uadl_serializer@nlohmann@@@nlohmann@@CAPAV?$vector@V?$basic_json@Vmap@std@@Vvector@2@V?$basic_string@DU?$char_traits@D@std@@V?$allocator@D@2@@2@_N_J_KNVallocator@2@Uadl_serializer@nlohmann@@@nlohmann@@V?$allocator@V?$basic_json@Vmap@std@@Vvector@2@V?$basic_string@DU?$char_traits@D@std@@V?$allocator@D@2@@2@_N_J_KNVallocator@2@Uadl_serializer@nlohmann@@@nlohmann@@@std@@@std@@$$QAPBV?$json_ref@V?$basic_json@Vmap@std@@Vvector@2@V?$basic_string@DU?$char_traits@D@std@@V?$allocator@D@2@@2@_N_J_KNVallocator@2@Uadl_serializer@nlohmann@@@nlohmann@@@detail@2@0@Z@QAE@AAV?$allocator@V?$vector@V?$basic_json@Vmap@std@@Vvector@2@V?$basic_string@DU?$char_traits@D@std@@V?$allocator@D@2@@2@_N_J_KNVallocator@2@Uadl_serializer@nlohmann@@@nlohmann@@V?$allocator@V?$basic_json@Vmap@std@@Vvector@2@V?$basic_string@DU?$char_traits@D@std@@V?$allocator@D@2@@2@_N_J_KNVallocator@2@Uadl_serializer@nlohmann@@@nlohmann@@@std@@@std@@@4@@Z 10027d10 f i tab_Login.obj
 0001:00026d10       ??0<lambda_1>@?1???$create@V?$basic_string@DU?$char_traits@D@std@@V?$allocator@D@2@@std@@AAY00$$CBD@?$basic_json@Vmap@std@@Vvector@2@V?$basic_string@DU?$char_traits@D@std@@V?$allocator@D@2@@2@_N_J_KNVallocator@2@Uadl_serializer@nlohmann@@@nlohmann@@CAPAV?$basic_string@DU?$char_traits@D@std@@V?$allocator@D@2@@std@@AAY00$$CBD@Z@QAE@AAV?$allocator@V?$basic_string@DU?$char_traits@D@std@@V?$allocator@D@2@@std@@@4@@Z 10027d10 f i Config.obj
 0001:00026d10       ??0<lambda_1>@?1???$create@V?$vector@V?$basic_json@Vmap@std@@Vvector@2@V?$basic_string@DU?$char_traits@D@std@@V?$allocator@D@2@@2@_N_J_KNVallocator@2@Uadl_serializer@nlohmann@@@nlohmann@@V?$allocator@V?$basic_json@Vmap@std@@Vvector@2@V?$basic_string@DU?$char_traits@D@std@@V?$allocator@D@2@@2@_N_J_KNVallocator@2@Uadl_serializer@nlohmann@@@nlohmann@@@std@@@std@@$$V@?$basic_json@Vmap@std@@Vvector@2@V?$basic_string@DU?$char_traits@D@std@@V?$allocator@D@2@@2@_N_J_KNVallocator@2@Uadl_serializer@nlohmann@@@nlohmann@@CAPAV?$vector@V?$basic_json@Vmap@std@@Vvector@2@V?$basic_string@DU?$char_traits@D@std@@V?$allocator@D@2@@2@_N_J_KNVallocator@2@Uadl_serializer@nlohmann@@@nlohmann@@V?$allocator@V?$basic_json@Vmap@std@@Vvector@2@V?$basic_string@DU?$char_traits@D@std@@V?$allocator@D@2@@2@_N_J_KNVallocator@2@Uadl_serializer@nlohmann@@@nlohmann@@@std@@@std@@XZ@QAE@AAV?$allocator@V?$vector@V?$basic_json@Vmap@std@@Vvector@2@V?$basic_string@DU?$char_traits@D@std@@V?$allocator@D@2@@2@_N_J_KNVallocator@2@Uadl_serializer@nlohmann@@@nlohmann@@V?$allocator@V?$basic_json@Vmap@std@@Vvector@2@V?$basic_string@DU?$char_traits@D@std@@V?$allocator@D@2@@2@_N_J_KNVallocator@2@Uadl_serializer@nlohmann@@@nlohmann@@@std@@@std@@@4@@Z 10027d10 f i Config.obj
 0001:00026d10       ??0_Clear_guard@?$_Hash@V?$_Umap_traits@PADPADV?$_Uhash_compare@PADU?$hash@PAD@std@@U?$equal_to@PAD@2@@std@@V?$allocator@U?$pair@QADPAD@std@@@2@$0A@@std@@@std@@QAE@QAV12@@Z 10027d10 f i skinchanger.obj
 0001:00026d10       ??0<lambda_1>@?1???$create@V?$map@V?$basic_string@DU?$char_traits@D@std@@V?$allocator@D@2@@std@@V?$basic_json@Vmap@std@@Vvector@2@V?$basic_string@DU?$char_traits@D@std@@V?$allocator@D@2@@2@_N_J_KNVallocator@2@Uadl_serializer@nlohmann@@@nlohmann@@U?$less@X@2@V?$allocator@U?$pair@$$CBV?$basic_string@DU?$char_traits@D@std@@V?$allocator@D@2@@std@@V?$basic_json@Vmap@std@@Vvector@2@V?$basic_string@DU?$char_traits@D@std@@V?$allocator@D@2@@2@_N_J_KNVallocator@2@Uadl_serializer@nlohmann@@@nlohmann@@@std@@@2@@std@@$$V@?$basic_json@Vmap@std@@Vvector@2@V?$basic_string@DU?$char_traits@D@std@@V?$allocator@D@2@@2@_N_J_KNVallocator@2@Uadl_serializer@nlohmann@@@nlohmann@@CAPAV?$map@V?$basic_string@DU?$char_traits@D@std@@V?$allocator@D@2@@std@@V?$basic_json@Vmap@std@@Vvector@2@V?$basic_string@DU?$char_traits@D@std@@V?$allocator@D@2@@2@_N_J_KNVallocator@2@Uadl_serializer@nlohmann@@@nlohmann@@U?$less@X@2@V?$allocator@U?$pair@$$CBV?$basic_string@DU?$char_traits@D@std@@V?$allocator@D@2@@std@@V?$basic_json@Vmap@std@@Vvector@2@V?$basic_string@DU?$char_traits@D@std@@V?$allocator@D@2@@2@_N_J_KNVallocator@2@Uadl_serializer@nlohmann@@@nlohmann@@@std@@@2@@std@@XZ@QAE@AAV?$allocator@V?$map@V?$basic_string@DU?$char_traits@D@std@@V?$allocator@D@2@@std@@V?$basic_json@Vmap@std@@Vvector@2@V?$basic_string@DU?$char_traits@D@std@@V?$allocator@D@2@@2@_N_J_KNVallocator@2@Uadl_serializer@nlohmann@@@nlohmann@@U?$less@X@2@V?$allocator@U?$pair@$$CBV?$basic_string@DU?$char_traits@D@std@@V?$allocator@D@2@@std@@V?$basic_json@Vmap@std@@Vvector@2@V?$basic_string@DU?$char_traits@D@std@@V?$allocator@D@2@@2@_N_J_KNVallocator@2@Uadl_serializer@nlohmann@@@nlohmann@@@std@@@2@@std@@@4@@Z 10027d10 f i Config.obj
 0001:00026d10       ??0?$GenericMemberIterator@$00U?$UTF8@D@rapidjson@@V?$MemoryPoolAllocator@VCrtAllocator@rapidjson@@@2@@rapidjson@@AAE@PBU?$GenericMember@U?$UTF8@D@rapidjson@@V?$MemoryPoolAllocator@VCrtAllocator@rapidjson@@@2@@1@@Z 10027d10 f i http.obj
 0001:00026d10       ??0<lambda_1>@?1???$create@V?$basic_string@DU?$char_traits@D@std@@V?$allocator@D@2@@std@@AAY0PP@$$CBD@?$basic_json@Vmap@std@@Vvector@2@V?$basic_string@DU?$char_traits@D@std@@V?$allocator@D@2@@2@_N_J_KNVallocator@2@Uadl_serializer@nlohmann@@@nlohmann@@CAPAV?$basic_string@DU?$char_traits@D@std@@V?$allocator@D@2@@std@@AAY0PP@$$CBD@Z@QAE@AAV?$allocator@V?$basic_string@DU?$char_traits@D@std@@V?$allocator@D@2@@std@@@4@@Z 10027d10 f i tab_Login.obj
 0001:00026d30       ??0<unnamed-type-W>@Options2@@QAE@XZ 10027d30 f i Config.obj
 0001:00026da0       ??0<unnamed-type-advanced_legit>@Options2@@QAE@XZ 10027da0 f i Config.obj
 0001:00026dd0       ??0?$Var@VColor@@@@QAE@V?$basic_string@DU?$char_traits@D@std@@V?$allocator@D@2@@std@@VColor@@@Z 10027dd0 f i Config.obj
 0001:00026e80       ??0?$_Alloc_construct_ptr@V?$allocator@U?$_List_node@U?$pair@$$CBV?$basic_string@DU?$char_traits@D@std@@V?$allocator@D@2@@std@@I@std@@PAX@std@@@std@@@std@@QAE@AAV?$allocator@U?$_List_node@U?$pair@$$CBV?$basic_string@DU?$char_traits@D@std@@V?$allocator@D@2@@std@@I@std@@PAX@std@@@1@@Z 10027e80 f i NetvarManager.obj
 0001:00026e80       ??0?$_Alloc_construct_ptr@V?$allocator@U?$_List_node@U?$pair@$$CBV?$basic_string@DU?$char_traits@D@std@@V?$allocator@D@2@@std@@V?$unique_ptr@UNetvarTable@@U?$default_delete@UNetvarTable@@@std@@@2@@std@@PAX@std@@@std@@@std@@QAE@AAV?$allocator@U?$_List_node@U?$pair@$$CBV?$basic_string@DU?$char_traits@D@std@@V?$allocator@D@2@@std@@V?$unique_ptr@UNetvarTable@@U?$default_delete@UNetvarTable@@@std@@@2@@std@@PAX@std@@@1@@Z 10027e80 f i NetvarManager.obj
 0001:00026e80       ??0?$StackStream@D@?$GenericReader@U?$UTF8@D@rapidjson@@U12@VCrtAllocator@2@@rapidjson@@QAE@AAV?$Stack@VCrtAllocator@rapidjson@@@internal@2@@Z 10027e80 f i http.obj
 0001:00026e80       ??0?$_Alloc_construct_ptr@V?$allocator@U?$_List_node@U?$pair@QADPAD@std@@PAX@std@@@std@@@std@@QAE@AAV?$allocator@U?$_List_node@U?$pair@QADPAD@std@@PAX@std@@@1@@Z 10027e80 f i skinchanger.obj
 0001:00026e80       ??0?$_Alloc_construct_ptr@V?$allocator@U?$_Tree_node@U?$pair@$$CBV?$basic_string@DU?$char_traits@D@std@@V?$allocator@D@2@@std@@V?$basic_json@Vmap@std@@Vvector@2@V?$basic_string@DU?$char_traits@D@std@@V?$allocator@D@2@@2@_N_J_KNVallocator@2@Uadl_serializer@nlohmann@@@nlohmann@@@std@@PAX@std@@@std@@@std@@QAE@AAV?$allocator@U?$_Tree_node@U?$pair@$$CBV?$basic_string@DU?$char_traits@D@std@@V?$allocator@D@2@@std@@V?$basic_json@Vmap@std@@Vvector@2@V?$basic_string@DU?$char_traits@D@std@@V?$allocator@D@2@@2@_N_J_KNVallocator@2@Uadl_serializer@nlohmann@@@nlohmann@@@std@@PAX@std@@@1@@Z 10027e80 f i Config.obj
 0001:00026e80       ??0_Container_proxy@std@@QAE@PAU_Container_base12@1@@Z 10027e80 f i LagComp.obj
 0001:00026eb0       ??0?$_Array_const_iterator@D$0EA@@std@@QAE@PBDI@Z 10027eb0 f i Config.obj
 0001:00026ed0       ??0?$_Array_iterator@D$0EA@@std@@QAE@PADI@Z 10027ed0 f i Config.obj
 0001:00026ef0       ??0json_value@?$basic_json@Vmap@std@@Vvector@2@V?$basic_string@DU?$char_traits@D@std@@V?$allocator@D@2@@2@_N_J_KNVallocator@2@Uadl_serializer@nlohmann@@@nlohmann@@QAE@_N@Z 10027ef0 f i Config.obj
 0001:00026ef0       ??0?$_Fillobj@D@std@@QAE@D@Z 10027ef0 f i Config.obj
 0001:00026f10       ??0?$_Func_class@X$$V@std@@QAE@XZ 10027f10 f i Hooks.obj
 0001:00026f10       ??0?$_Func_class@_NHW4parse_event_t@?$parser@V?$basic_json@Vmap@std@@Vvector@2@V?$basic_string@DU?$char_traits@D@std@@V?$allocator@D@2@@2@_N_J_KNVallocator@2@Uadl_serializer@nlohmann@@@nlohmann@@@detail@nlohmann@@AAV?$basic_json@Vmap@std@@Vvector@2@V?$basic_string@DU?$char_traits@D@std@@V?$allocator@D@2@@2@_N_J_KNVallocator@2@Uadl_serializer@nlohmann@@@4@@std@@QAE@XZ 10027f10 f i Config.obj
 0001:00026f10       ??0?$_Func_class@XPAVC_BaseEntity@@@std@@QAE@XZ 10027f10 f i Hooks.obj
 0001:00026f30       ??0?$_Tree_val@U?$_Tree_simple_types@U?$pair@QAXU?$pair@V?$basic_string@DU?$char_traits@D@std@@V?$allocator@D@2@@std@@V?$vector@V?$basic_string@DU?$char_traits@D@std@@V?$allocator@D@2@@std@@V?$allocator@V?$basic_string@DU?$char_traits@D@std@@V?$allocator@D@2@@std@@@2@@2@@std@@@std@@@std@@@std@@QAE@XZ 10027f30 f i NetvarManager.obj
 0001:00026f30       ??0?$_Ptr_base@V?$output_stream_adapter@D@detail@nlohmann@@@std@@IAE@XZ 10027f30 f i Config.obj
 0001:00026f30       ??0?$_Ptr_base@U_Recursive_dir_enum_impl@filesystem@std@@@std@@IAE@XZ 10027f30 f i Config.obj
 0001:00026f30       ??0?$_Tree_val@U?$_Tree_simple_types@U?$pair@$$CBV?$basic_string@DU?$char_traits@D@std@@V?$allocator@D@2@@std@@V?$basic_json@Vmap@std@@Vvector@2@V?$basic_string@DU?$char_traits@D@std@@V?$allocator@D@2@@2@_N_J_KNVallocator@2@Uadl_serializer@nlohmann@@@nlohmann@@@std@@@std@@@std@@QAE@XZ 10027f30 f i Config.obj
 0001:00026f30       ??0?$_Ptr_base@Uinput_adapter_protocol@detail@nlohmann@@@std@@IAE@XZ 10027f30 f i Config.obj
 0001:00026f30       ??0?$_List_val@U?$_List_simple_types@U?$pair@$$CBV?$basic_string@DU?$char_traits@D@std@@V?$allocator@D@2@@std@@V?$unique_ptr@UNetvarTable@@U?$default_delete@UNetvarTable@@@std@@@2@@std@@@std@@@std@@QAE@XZ 10027f30 f i NetvarManager.obj
 0001:00026f30       ??0?$_Ptr_base@Vinput_stream_adapter@detail@nlohmann@@@std@@IAE@XZ 10027f30 f i Config.obj
 0001:00026f30       ??0ParseResult@rapidjson@@QAE@XZ 10027f30 f i http.obj
 0001:00026f30       ??0?$_List_val@U?$_List_simple_types@U?$pair@$$CBV?$basic_string@DU?$char_traits@D@std@@V?$allocator@D@2@@std@@I@std@@@std@@@std@@QAE@XZ 10027f30 f i NetvarManager.obj
 0001:00026f30       ??0?$_List_val@U?$_List_simple_types@U?$pair@QADPAD@std@@@std@@@std@@QAE@XZ 10027f30 f i skinchanger.obj
 0001:00026f30       ??0?$_Ptr_base@VColor@@@std@@IAE@XZ 10027f30 f i Config.obj
 0001:00026f30       ??0?$_Ptr_base@U?$output_adapter_protocol@D@detail@nlohmann@@@std@@IAE@XZ 10027f30 f i Config.obj
 0001:00026f30       ??0_Iterator_base12@std@@QAE@XZ 10027f30 f i Aimbot.obj
 0001:00026f30       ??0?$_Tree_val@U?$_Tree_simple_types@U?$pair@$$CBHPAVCWindow@@@std@@@std@@@std@@QAE@XZ 10027f30 f i GUI.obj
 0001:00026f30       ??0Ban@Options2@@QAE@XZ    10027f30 f i Config.obj
 0001:00026f60       ??0?$_Tree@V?$_Tmap_traits@PAXU?$pair@V?$basic_string@DU?$char_traits@D@std@@V?$allocator@D@2@@std@@V?$vector@V?$basic_string@DU?$char_traits@D@std@@V?$allocator@D@2@@std@@V?$allocator@V?$basic_string@DU?$char_traits@D@std@@V?$allocator@D@2@@std@@@2@@2@@std@@U?$less@PAX@2@V?$allocator@U?$pair@QAXU?$pair@V?$basic_string@DU?$char_traits@D@std@@V?$allocator@D@2@@std@@V?$vector@V?$basic_string@DU?$char_traits@D@std@@V?$allocator@D@2@@std@@V?$allocator@V?$basic_string@DU?$char_traits@D@std@@V?$allocator@D@2@@std@@@2@@2@@std@@@std@@@2@$00@std@@@std@@QAE@ABU?$less@PAX@1@@Z 10027f60 f i NetvarManager.obj
 0001:00026f60       ??0?$_Tree@V?$_Tmap_traits@V?$basic_string@DU?$char_traits@D@std@@V?$allocator@D@2@@std@@V?$basic_json@Vmap@std@@Vvector@2@V?$basic_string@DU?$char_traits@D@std@@V?$allocator@D@2@@2@_N_J_KNVallocator@2@Uadl_serializer@nlohmann@@@nlohmann@@U?$less@X@2@V?$allocator@U?$pair@$$CBV?$basic_string@DU?$char_traits@D@std@@V?$allocator@D@2@@std@@V?$basic_json@Vmap@std@@Vvector@2@V?$basic_string@DU?$char_traits@D@std@@V?$allocator@D@2@@2@_N_J_KNVallocator@2@Uadl_serializer@nlohmann@@@nlohmann@@@std@@@2@$0A@@std@@@std@@QAE@ABU?$less@X@1@@Z 10027f60 f i Config.obj
 0001:00026fa0       ??0?$_Vector_iterator@V?$_Vector_val@U?$_Simple_types@PAVDot@@@std@@@std@@@std@@QAE@PAPAVDot@@PBU_Container_base0@1@@Z 10027fa0 f i Drops+.obj
 0001:00026fa0       ??0?$_Vector_iterator@V?$_Vector_val@U?$_Simple_types@VConfigFile@@@std@@@std@@@std@@QAE@PAVConfigFile@@PBU_Container_base0@1@@Z 10027fa0 f i Config.obj
 0001:00026fa0       ??0?$_String_iterator@V?$_String_val@U?$_Simple_types@D@std@@@std@@@std@@QAE@PBDPBU_Container_base0@1@@Z 10027fa0 f i Hooks.obj
 0001:00026fa0       ??0?$_Tree_const_iterator@V?$_Tree_val@U?$_Tree_simple_types@U?$pair@QAXU?$pair@V?$basic_string@DU?$char_traits@D@std@@V?$allocator@D@2@@std@@V?$vector@V?$basic_string@DU?$char_traits@D@std@@V?$allocator@D@2@@std@@V?$allocator@V?$basic_string@DU?$char_traits@D@std@@V?$allocator@D@2@@std@@@2@@2@@std@@@std@@@std@@@std@@@std@@QAE@PAU?$_Tree_node@U?$pair@QAXU?$pair@V?$basic_string@DU?$char_traits@D@std@@V?$allocator@D@2@@std@@V?$vector@V?$basic_string@DU?$char_traits@D@std@@V?$allocator@D@2@@std@@V?$allocator@V?$basic_string@DU?$char_traits@D@std@@V?$allocator@D@2@@std@@@2@@2@@std@@@std@@PAX@1@PBV?$_Tree_val@U?$_Tree_simple_types@U?$pair@QAXU?$pair@V?$basic_string@DU?$char_traits@D@std@@V?$allocator@D@2@@std@@V?$vector@V?$basic_string@DU?$char_traits@D@std@@V?$allocator@D@2@@std@@V?$allocator@V?$basic_string@DU?$char_traits@D@std@@V?$allocator@D@2@@std@@@2@@2@@std@@@std@@@std@@@1@@Z 10027fa0 f i NetvarManager.obj
 0001:00026fa0       ??0?$_Vector_iterator@V?$_Vector_val@U?$_Simple_types@H@std@@@std@@@std@@QAE@PAHPBU_Container_base0@1@@Z 10027fa0 f i Hooks.obj
 0001:00026fa0       ??0?$_Vector_iterator@V?$_Vector_val@U?$_Simple_types@VVector@@@std@@@std@@@std@@QAE@PAVVector@@PBU_Container_base0@1@@Z 10027fa0 f i grenadetracer.obj
 0001:00026fa0       ??0?$_List_const_iterator@V?$_List_val@U?$_List_simple_types@U?$pair@$$CBV?$basic_string@DU?$char_traits@D@std@@V?$allocator@D@2@@std@@I@std@@@std@@@std@@@std@@QAE@PAU?$_List_node@U?$pair@$$CBV?$basic_string@DU?$char_traits@D@std@@V?$allocator@D@2@@std@@I@std@@PAX@1@PBV?$_List_val@U?$_List_simple_types@U?$pair@$$CBV?$basic_string@DU?$char_traits@D@std@@V?$allocator@D@2@@std@@I@std@@@std@@@1@@Z 10027fa0 f i NetvarManager.obj
 0001:00026fa0       ??0?$_Vector_iterator@V?$_Vector_val@U?$_Simple_types@Vsound_info@@@std@@@std@@@std@@QAE@PAVsound_info@@PBU_Container_base0@1@@Z 10027fa0 f i Hooks.obj
 0001:00026fa0       ??0?$_Vector_iterator@V?$_Vector_val@U?$_Simple_types@Uimpact_info@@@std@@@std@@@std@@QAE@PAUimpact_info@@PBU_Container_base0@1@@Z 10027fa0 f i otheresp.obj
 0001:00026fa0       ??0?$_Tree_const_iterator@V?$_Tree_val@U?$_Tree_simple_types@U?$pair@$$CBV?$basic_string@DU?$char_traits@D@std@@V?$allocator@D@2@@std@@V?$basic_json@Vmap@std@@Vvector@2@V?$basic_string@DU?$char_traits@D@std@@V?$allocator@D@2@@2@_N_J_KNVallocator@2@Uadl_serializer@nlohmann@@@nlohmann@@@std@@@std@@@std@@@std@@QAE@PAU?$_Tree_node@U?$pair@$$CBV?$basic_string@DU?$char_traits@D@std@@V?$allocator@D@2@@std@@V?$basic_json@Vmap@std@@Vvector@2@V?$basic_string@DU?$char_traits@D@std@@V?$allocator@D@2@@2@_N_J_KNVallocator@2@Uadl_serializer@nlohmann@@@nlohmann@@@std@@PAX@1@PBV?$_Tree_val@U?$_Tree_simple_types@U?$pair@$$CBV?$basic_string@DU?$char_traits@D@std@@V?$allocator@D@2@@std@@V?$basic_json@Vmap@std@@Vvector@2@V?$basic_string@DU?$char_traits@D@std@@V?$allocator@D@2@@2@_N_J_KNVallocator@2@Uadl_serializer@nlohmann@@@nlohmann@@@std@@@std@@@1@@Z 10027fa0 f i Config.obj
 0001:00026fa0       ??0?$_List_unchecked_iterator@V?$_List_val@U?$_List_simple_types@U?$pair@$$CBV?$basic_string@DU?$char_traits@D@std@@V?$allocator@D@2@@std@@V?$unique_ptr@UNetvarTable@@U?$default_delete@UNetvarTable@@@std@@@2@@std@@@std@@@std@@@std@@QAE@PAU?$_List_node@U?$pair@$$CBV?$basic_string@DU?$char_traits@D@std@@V?$allocator@D@2@@std@@V?$unique_ptr@UNetvarTable@@U?$default_delete@UNetvarTable@@@std@@@2@@std@@PAX@1@PBV?$_List_val@U?$_List_simple_types@U?$pair@$$CBV?$basic_string@DU?$char_traits@D@std@@V?$allocator@D@2@@std@@V?$unique_ptr@UNetvarTable@@U?$default_delete@UNetvarTable@@@std@@@2@@std@@@std@@@1@@Z 10027fa0 f i NetvarManager.obj
 0001:00026fa0       ??0?$_List_const_iterator@V?$_List_val@U?$_List_simple_types@U?$pair@$$CBV?$basic_string@DU?$char_traits@D@std@@V?$allocator@D@2@@std@@V?$unique_ptr@UNetvarTable@@U?$default_delete@UNetvarTable@@@std@@@2@@std@@@std@@@std@@@std@@QAE@PAU?$_List_node@U?$pair@$$CBV?$basic_string@DU?$char_traits@D@std@@V?$allocator@D@2@@std@@V?$unique_ptr@UNetvarTable@@U?$default_delete@UNetvarTable@@@std@@@2@@std@@PAX@1@PBV?$_List_val@U?$_List_simple_types@U?$pair@$$CBV?$basic_string@DU?$char_traits@D@std@@V?$allocator@D@2@@std@@V?$unique_ptr@UNetvarTable@@U?$default_delete@UNetvarTable@@@std@@@2@@std@@@std@@@1@@Z 10027fa0 f i NetvarManager.obj
 0001:00026fa0       ??0?$_List_unchecked_iterator@V?$_List_val@U?$_List_simple_types@U?$pair@QADPAD@std@@@std@@@std@@@std@@QAE@PAU?$_List_node@U?$pair@QADPAD@std@@PAX@1@PBV?$_List_val@U?$_List_simple_types@U?$pair@QADPAD@std@@@std@@@1@@Z 10027fa0 f i skinchanger.obj
 0001:00026fa0       ??0?$_List_unchecked_iterator@V?$_List_val@U?$_List_simple_types@U?$pair@$$CBV?$basic_string@DU?$char_traits@D@std@@V?$allocator@D@2@@std@@I@std@@@std@@@std@@@std@@QAE@PAU?$_List_node@U?$pair@$$CBV?$basic_string@DU?$char_traits@D@std@@V?$allocator@D@2@@std@@I@std@@PAX@1@PBV?$_List_val@U?$_List_simple_types@U?$pair@$$CBV?$basic_string@DU?$char_traits@D@std@@V?$allocator@D@2@@std@@I@std@@@std@@@1@@Z 10027fa0 f i NetvarManager.obj
 0001:00026fa0       ??0?$_Vector_iterator@V?$_Vector_val@U?$_Simple_types@U?$pair@VVector@@VQAngle@@@std@@@std@@@std@@@std@@QAE@PAU?$pair@VVector@@VQAngle@@@1@PBU_Container_base0@1@@Z 10027fa0 f i grenadetracer.obj
 0001:00026fa0       ??0?$_Vector_iterator@V?$_Vector_val@U?$_Simple_types@V?$basic_string@DU?$char_traits@D@std@@V?$allocator@D@2@@std@@@std@@@std@@@std@@QAE@PAV?$basic_string@DU?$char_traits@D@std@@V?$allocator@D@2@@1@PBU_Container_base0@1@@Z 10027fa0 f i Config.obj
 0001:00026fc0       ??0?$_Tree_iterator@V?$_Tree_val@U?$_Tree_simple_types@U?$pair@QAXU?$pair@V?$basic_string@DU?$char_traits@D@std@@V?$allocator@D@2@@std@@V?$vector@V?$basic_string@DU?$char_traits@D@std@@V?$allocator@D@2@@std@@V?$allocator@V?$basic_string@DU?$char_traits@D@std@@V?$allocator@D@2@@std@@@2@@2@@std@@@std@@@std@@@std@@@std@@QAE@PAU?$_Tree_node@U?$pair@QAXU?$pair@V?$basic_string@DU?$char_traits@D@std@@V?$allocator@D@2@@std@@V?$vector@V?$basic_string@DU?$char_traits@D@std@@V?$allocator@D@2@@std@@V?$allocator@V?$basic_string@DU?$char_traits@D@std@@V?$allocator@D@2@@std@@@2@@2@@std@@@std@@PAX@1@PBV?$_Tree_val@U?$_Tree_simple_types@U?$pair@QAXU?$pair@V?$basic_string@DU?$char_traits@D@std@@V?$allocator@D@2@@std@@V?$vector@V?$basic_string@DU?$char_traits@D@std@@V?$allocator@D@2@@std@@V?$allocator@V?$basic_string@DU?$char_traits@D@std@@V?$allocator@D@2@@std@@@2@@2@@std@@@std@@@std@@@1@@Z 10027fc0 f i NetvarManager.obj
 0001:00026fc0       ??0?$_List_iterator@V?$_List_val@U?$_List_simple_types@U?$pair@$$CBV?$basic_string@DU?$char_traits@D@std@@V?$allocator@D@2@@std@@I@std@@@std@@@std@@@std@@QAE@PAU?$_List_node@U?$pair@$$CBV?$basic_string@DU?$char_traits@D@std@@V?$allocator@D@2@@std@@I@std@@PAX@1@PBV?$_List_val@U?$_List_simple_types@U?$pair@$$CBV?$basic_string@DU?$char_traits@D@std@@V?$allocator@D@2@@std@@I@std@@@std@@@1@@Z 10027fc0 f i NetvarManager.obj
 0001:00026fc0       ??0?$_Tree_iterator@V?$_Tree_val@U?$_Tree_simple_types@U?$pair@$$CBV?$basic_string@DU?$char_traits@D@std@@V?$allocator@D@2@@std@@V?$basic_json@Vmap@std@@Vvector@2@V?$basic_string@DU?$char_traits@D@std@@V?$allocator@D@2@@2@_N_J_KNVallocator@2@Uadl_serializer@nlohmann@@@nlohmann@@@std@@@std@@@std@@@std@@QAE@PAU?$_Tree_node@U?$pair@$$CBV?$basic_string@DU?$char_traits@D@std@@V?$allocator@D@2@@std@@V?$basic_json@Vmap@std@@Vvector@2@V?$basic_string@DU?$char_traits@D@std@@V?$allocator@D@2@@2@_N_J_KNVallocator@2@Uadl_serializer@nlohmann@@@nlohmann@@@std@@PAX@1@PBV?$_Tree_val@U?$_Tree_simple_types@U?$pair@$$CBV?$basic_string@DU?$char_traits@D@std@@V?$allocator@D@2@@std@@V?$basic_json@Vmap@std@@Vvector@2@V?$basic_string@DU?$char_traits@D@std@@V?$allocator@D@2@@2@_N_J_KNVallocator@2@Uadl_serializer@nlohmann@@@nlohmann@@@std@@@std@@@1@@Z 10027fc0 f i Config.obj
 0001:00026fc0       ??0?$_List_iterator@V?$_List_val@U?$_List_simple_types@U?$pair@$$CBV?$basic_string@DU?$char_traits@D@std@@V?$allocator@D@2@@std@@V?$unique_ptr@UNetvarTable@@U?$default_delete@UNetvarTable@@@std@@@2@@std@@@std@@@std@@@std@@QAE@PAU?$_List_node@U?$pair@$$CBV?$basic_string@DU?$char_traits@D@std@@V?$allocator@D@2@@std@@V?$unique_ptr@UNetvarTable@@U?$default_delete@UNetvarTable@@@std@@@2@@std@@PAX@1@PBV?$_List_val@U?$_List_simple_types@U?$pair@$$CBV?$basic_string@DU?$char_traits@D@std@@V?$allocator@D@2@@std@@V?$unique_ptr@UNetvarTable@@U?$default_delete@UNetvarTable@@@std@@@2@@std@@@std@@@1@@Z 10027fc0 f i NetvarManager.obj
 0001:00026fe0       ??0?$_Tree_temp_node_alloc@V?$allocator@U?$_Tree_node@U?$pair@$$CBV?$basic_string@DU?$char_traits@D@std@@V?$allocator@D@2@@std@@V?$basic_json@Vmap@std@@Vvector@2@V?$basic_string@DU?$char_traits@D@std@@V?$allocator@D@2@@2@_N_J_KNVallocator@2@Uadl_serializer@nlohmann@@@nlohmann@@@std@@PAX@std@@@std@@@std@@QAE@AAV?$allocator@U?$_Tree_node@U?$pair@$$CBV?$basic_string@DU?$char_traits@D@std@@V?$allocator@D@2@@std@@V?$basic_json@Vmap@std@@Vvector@2@V?$basic_string@DU?$char_traits@D@std@@V?$allocator@D@2@@2@_N_J_KNVallocator@2@Uadl_serializer@nlohmann@@@nlohmann@@@std@@PAX@std@@@1@@Z 10027fe0 f i Config.obj
 0001:00027040       ??0?$_List_unchecked_const_iterator@V?$_List_val@U?$_List_simple_types@U?$pair@QADPAD@std@@@std@@@std@@U_Iterator_base0@2@@std@@QAE@PAU?$_List_node@U?$pair@QADPAD@std@@PAX@1@PBV?$_List_val@U?$_List_simple_types@U?$pair@QADPAD@std@@@std@@@1@@Z 10028040 f i skinchanger.obj
 0001:00027040       ??0?$_Tree_unchecked_const_iterator@V?$_Tree_val@U?$_Tree_simple_types@U?$pair@QAXU?$pair@V?$basic_string@DU?$char_traits@D@std@@V?$allocator@D@2@@std@@V?$vector@V?$basic_string@DU?$char_traits@D@std@@V?$allocator@D@2@@std@@V?$allocator@V?$basic_string@DU?$char_traits@D@std@@V?$allocator@D@2@@std@@@2@@2@@std@@@std@@@std@@@std@@U_Iterator_base0@2@@std@@QAE@PAU?$_Tree_node@U?$pair@QAXU?$pair@V?$basic_string@DU?$char_traits@D@std@@V?$allocator@D@2@@std@@V?$vector@V?$basic_string@DU?$char_traits@D@std@@V?$allocator@D@2@@std@@V?$allocator@V?$basic_string@DU?$char_traits@D@std@@V?$allocator@D@2@@std@@@2@@2@@std@@@std@@PAX@1@PBV?$_Tree_val@U?$_Tree_simple_types@U?$pair@QAXU?$pair@V?$basic_string@DU?$char_traits@D@std@@V?$allocator@D@2@@std@@V?$vector@V?$basic_string@DU?$char_traits@D@std@@V?$allocator@D@2@@std@@V?$allocator@V?$basic_string@DU?$char_traits@D@std@@V?$allocator@D@2@@std@@@2@@2@@std@@@std@@@std@@@1@@Z 10028040 f i NetvarManager.obj
 0001:00027040       ??0?$_Vector_const_iterator@V?$_Vector_val@U?$_Simple_types@VConfigFile@@@std@@@std@@@std@@QAE@PAVConfigFile@@PBU_Container_base0@1@@Z 10028040 f i Config.obj
 0001:00027040       ??0?$_Vector_const_iterator@V?$_Vector_val@U?$_Simple_types@V?$basic_json@Vmap@std@@Vvector@2@V?$basic_string@DU?$char_traits@D@std@@V?$allocator@D@2@@2@_N_J_KNVallocator@2@Uadl_serializer@nlohmann@@@nlohmann@@@std@@@std@@@std@@QAE@PAV?$basic_json@Vmap@std@@Vvector@2@V?$basic_string@DU?$char_traits@D@std@@V?$allocator@D@2@@2@_N_J_KNVallocator@2@Uadl_serializer@nlohmann@@@nlohmann@@PBU_Container_base0@1@@Z 10028040 f i Config.obj
 0001:00027040       ??0?$_Tree_unchecked_const_iterator@V?$_Tree_val@U?$_Tree_simple_types@U?$pair@$$CBV?$basic_string@DU?$char_traits@D@std@@V?$allocator@D@2@@std@@V?$basic_json@Vmap@std@@Vvector@2@V?$basic_string@DU?$char_traits@D@std@@V?$allocator@D@2@@2@_N_J_KNVallocator@2@Uadl_serializer@nlohmann@@@nlohmann@@@std@@@std@@@std@@U_Iterator_base0@2@@std@@QAE@PAU?$_Tree_node@U?$pair@$$CBV?$basic_string@DU?$char_traits@D@std@@V?$allocator@D@2@@std@@V?$basic_json@Vmap@std@@Vvector@2@V?$basic_string@DU?$char_traits@D@std@@V?$allocator@D@2@@2@_N_J_KNVallocator@2@Uadl_serializer@nlohmann@@@nlohmann@@@std@@PAX@1@PBV?$_Tree_val@U?$_Tree_simple_types@U?$pair@$$CBV?$basic_string@DU?$char_traits@D@std@@V?$allocator@D@2@@std@@V?$basic_json@Vmap@std@@Vvector@2@V?$basic_string@DU?$char_traits@D@std@@V?$allocator@D@2@@2@_N_J_KNVallocator@2@Uadl_serializer@nlohmann@@@nlohmann@@@std@@@std@@@1@@Z 10028040 f i Config.obj
 0001:00027040       ??0?$_List_unchecked_const_iterator@V?$_List_val@U?$_List_simple_types@U?$pair@$$CBV?$basic_string@DU?$char_traits@D@std@@V?$allocator@D@2@@std@@I@std@@@std@@@std@@U_Iterator_base0@2@@std@@QAE@PAU?$_List_node@U?$pair@$$CBV?$basic_string@DU?$char_traits@D@std@@V?$allocator@D@2@@std@@I@std@@PAX@1@PBV?$_List_val@U?$_List_simple_types@U?$pair@$$CBV?$basic_string@DU?$char_traits@D@std@@V?$allocator@D@2@@std@@I@std@@@std@@@1@@Z 10028040 f i NetvarManager.obj
 0001:00027040       ??0?$_List_unchecked_const_iterator@V?$_List_val@U?$_List_simple_types@U?$pair@$$CBV?$basic_string@DU?$char_traits@D@std@@V?$allocator@D@2@@std@@V?$unique_ptr@UNetvarTable@@U?$default_delete@UNetvarTable@@@std@@@2@@std@@@std@@@std@@U_Iterator_base0@2@@std@@QAE@PAU?$_List_node@U?$pair@$$CBV?$basic_string@DU?$char_traits@D@std@@V?$allocator@D@2@@std@@V?$unique_ptr@UNetvarTable@@U?$default_delete@UNetvarTable@@@std@@@2@@std@@PAX@1@PBV?$_List_val@U?$_List_simple_types@U?$pair@$$CBV?$basic_string@DU?$char_traits@D@std@@V?$allocator@D@2@@std@@V?$unique_ptr@UNetvarTable@@U?$default_delete@UNetvarTable@@@std@@@2@@std@@@std@@@1@@Z 10028040 f i NetvarManager.obj
 0001:00027040       ??0?$_Vector_const_iterator@V?$_Vector_val@U?$_Simple_types@H@std@@@std@@@std@@QAE@PAHPBU_Container_base0@1@@Z 10028040 f i Aimbot.obj
 0001:00027040       ??0?$_Vector_const_iterator@V?$_Vector_val@U?$_Simple_types@PAVDot@@@std@@@std@@@std@@QAE@PAPAVDot@@PBU_Container_base0@1@@Z 10028040 f i Drops+.obj
 0001:00027040       ??0?$_Vector_const_iterator@V?$_Vector_val@U?$_Simple_types@VVector@@@std@@@std@@@std@@QAE@PAVVector@@PBU_Container_base0@1@@Z 10028040 f i grenadetracer.obj
 0001:00027040       ??0?$_Vector_const_iterator@V?$_Vector_val@U?$_Simple_types@U?$pair@VVector@@VQAngle@@@std@@@std@@@std@@@std@@QAE@PAU?$pair@VVector@@VQAngle@@@1@PBU_Container_base0@1@@Z 10028040 f i grenadetracer.obj
 0001:00027040       ??0?$_Vector_const_iterator@V?$_Vector_val@U?$_Simple_types@Uimpact_info@@@std@@@std@@@std@@QAE@PAUimpact_info@@PBU_Container_base0@1@@Z 10028040 f i otheresp.obj
 0001:00027040       ??0?$_String_const_iterator@V?$_String_val@U?$_Simple_types@D@std@@@std@@@std@@QAE@PBDPBU_Container_base0@1@@Z 10028040 f i Aimbot.obj
 0001:00027040       ??0?$_Vector_const_iterator@V?$_Vector_val@U?$_Simple_types@V?$basic_string@DU?$char_traits@D@std@@V?$allocator@D@2@@std@@@std@@@std@@@std@@QAE@PAV?$basic_string@DU?$char_traits@D@std@@V?$allocator@D@2@@1@PBU_Container_base0@1@@Z 10028040 f i Config.obj
 0001:00027040       ??0?$_Vector_const_iterator@V?$_Vector_val@U?$_Simple_types@Vsound_info@@@std@@@std@@@std@@QAE@PAVsound_info@@PBU_Container_base0@1@@Z 10028040 f i Hooks.obj
 0001:00027070       ??0?$_Uninitialized_backout_al@V?$allocator@V?$vector@UField@@V?$allocator@UField@@@std@@@std@@@std@@@std@@QAE@PAV?$vector@UField@@V?$allocator@UField@@@std@@@1@AAV?$allocator@V?$vector@UField@@V?$allocator@UField@@@std@@@std@@@1@@Z 10028070 f i Protobuffs.obj
 0001:00027070       ??0?$_Uninitialized_backout_al@V?$allocator@VVector@@@std@@@std@@QAE@PAVVector@@AAV?$allocator@VVector@@@1@@Z 10028070 f i grenadetracer.obj
 0001:00027070       ??0?$_Uninitialized_backout_al@V?$allocator@UVertex_t@@@std@@@std@@QAE@PAUVertex_t@@AAV?$allocator@UVertex_t@@@1@@Z 10028070 f i Visuals.obj
 0001:00027070       ??0?$_Uninitialized_backout_al@V?$allocator@U?$pair@VVector@@VQAngle@@@std@@@std@@@std@@QAE@PAU?$pair@VVector@@VQAngle@@@1@AAV?$allocator@U?$pair@VVector@@VQAngle@@@std@@@1@@Z 10028070 f i grenadetracer.obj
 0001:00027070       ??0?$_Uninitialized_backout_al@V?$allocator@V?$basic_json@Vmap@std@@Vvector@2@V?$basic_string@DU?$char_traits@D@std@@V?$allocator@D@2@@2@_N_J_KNVallocator@2@Uadl_serializer@nlohmann@@@nlohmann@@@std@@@std@@QAE@PAV?$basic_json@Vmap@std@@Vvector@2@V?$basic_string@DU?$char_traits@D@std@@V?$allocator@D@2@@2@_N_J_KNVallocator@2@Uadl_serializer@nlohmann@@@nlohmann@@AAV?$allocator@V?$basic_json@Vmap@std@@Vvector@2@V?$basic_string@DU?$char_traits@D@std@@V?$allocator@D@2@@2@_N_J_KNVallocator@2@Uadl_serializer@nlohmann@@@nlohmann@@@1@@Z 10028070 f i Config.obj
 0001:00027070       ??0?$_Uninitialized_backout_al@V?$allocator@Vsound_info@@@std@@@std@@QAE@PAVsound_info@@AAV?$allocator@Vsound_info@@@1@@Z 10028070 f i Hooks.obj
 0001:00027070       ??0?$_Uninitialized_backout_al@V?$allocator@V?$basic_string@DU?$char_traits@D@std@@V?$allocator@D@2@@std@@@std@@@std@@QAE@PAV?$basic_string@DU?$char_traits@D@std@@V?$allocator@D@2@@1@AAV?$allocator@V?$basic_string@DU?$char_traits@D@std@@V?$allocator@D@2@@std@@@1@@Z 10028070 f i Config.obj
 0001:00027070       ??0?$_Uninitialized_backout_al@V?$allocator@U?$pair@V?$basic_string@DU?$char_traits@D@std@@V?$allocator@D@2@@std@@VColor@@@std@@@std@@@std@@QAE@PAU?$pair@V?$basic_string@DU?$char_traits@D@std@@V?$allocator@D@2@@std@@VColor@@@1@AAV?$allocator@U?$pair@V?$basic_string@DU?$char_traits@D@std@@V?$allocator@D@2@@std@@VColor@@@std@@@1@@Z 10028070 f i Visuals.obj
 0001:00027070       ??0?$_Uninitialized_backout_al@V?$allocator@UField@@@std@@@std@@QAE@PAUField@@AAV?$allocator@UField@@@1@@Z 10028070 f i Protobuffs.obj
 0001:00027070       ??0?$_Uninitialized_backout_al@V?$allocator@U?$pair@HPBD@std@@@std@@@std@@QAE@PAU?$pair@HPBD@1@AAV?$allocator@U?$pair@HPBD@std@@@1@@Z 10028070 f i Config.obj
 0001:00027070       ??0?$_Uninitialized_backout_al@V?$allocator@Vtrace_info@bullettracers@@@std@@@std@@QAE@PAVtrace_info@bullettracers@@AAV?$allocator@Vtrace_info@bullettracers@@@1@@Z 10028070 f i bullettracers.obj
 0001:00027070       ??0?$_Uninitialized_backout_al@V?$allocator@VConfigFile@@@std@@@std@@QAE@PAVConfigFile@@AAV?$allocator@VConfigFile@@@1@@Z 10028070 f i Config.obj
 0001:00027070       ??0?$_Uninitialized_backout_al@V?$allocator@Unotify_data_t@@@std@@@std@@QAE@PAUnotify_data_t@@AAV?$allocator@Unotify_data_t@@@1@@Z 10028070 f i notifies.obj
 0001:00027070       ??0?$_Uninitialized_backout_al@V?$allocator@U_Find_file_handle@filesystem@std@@@std@@@std@@QAE@PAU_Find_file_handle@filesystem@1@AAV?$allocator@U_Find_file_handle@filesystem@std@@@1@@Z 10028070 f i Config.obj
 0001:000270a0       ??0?$_Vector_val@U?$_Simple_types@UKit_t@@@std@@@std@@QAE@XZ 100280a0 f i kit_parser.obj
 0001:000270a0       ??0?$_Vector_val@U?$_Simple_types@U?$pair@VVector@@VQAngle@@@std@@@std@@@std@@QAE@XZ 100280a0 f i Hooks.obj
 0001:000270a0       ??0?$_Vector_val@U?$_Simple_types@U_Find_file_handle@filesystem@std@@@std@@@std@@QAE@XZ 100280a0 f i Config.obj
 0001:000270a0       ??0?$_Vector_val@U?$_Simple_types@Uimpact_info@@@std@@@std@@QAE@XZ 100280a0 f i otheresp.obj
 0001:000270a0       ??0?$_Vector_val@U?$_Simple_types@V?$basic_string@DU?$char_traits@D@std@@V?$allocator@D@2@@std@@@std@@@std@@QAE@XZ 100280a0 f i Config.obj
 0001:000270a0       ??0?$_Vector_val@U?$_Simple_types@D@std@@@std@@QAE@XZ 100280a0 f i Config.obj
 0001:000270a0       ??0?$_Vector_val@U?$_Simple_types@PAVDot@@@std@@@std@@QAE@XZ 100280a0 f i Drops+.obj
 0001:000270a0       ??0?$_Vector_val@U?$_Simple_types@Uhitmarker_info@@@std@@@std@@QAE@XZ 100280a0 f i otheresp.obj
 0001:000270a0       ??0?$_Vector_val@U?$_Simple_types@H@std@@@std@@QAE@XZ 100280a0 f i Controls.obj
 0001:000270a0       ??0?$_Vector_val@U?$_Simple_types@Uwskin@@@std@@@std@@QAE@XZ 100280a0 f i Protobuffs.obj
 0001:000270a0       ??0?$_Vector_val@U?$_Simple_types@PAVCWindow@@@std@@@std@@QAE@XZ 100280a0 f i Controls.obj
 0001:000270a0       ??0?$_Vector_val@U?$_Simple_types@V?$vector@UField@@V?$allocator@UField@@@std@@@std@@@std@@@std@@QAE@XZ 100280a0 f i Protobuffs.obj
 0001:000270a0       ??0?$_Vector_val@U?$_Simple_types@UField@@@std@@@std@@QAE@XZ 100280a0 f i Protobuffs.obj
 0001:000270a0       ??0?$_Vector_val@U?$_Simple_types@V?$basic_json@Vmap@std@@Vvector@2@V?$basic_string@DU?$char_traits@D@std@@V?$allocator@D@2@@2@_N_J_KNVallocator@2@Uadl_serializer@nlohmann@@@nlohmann@@@std@@@std@@QAE@XZ 100280a0 f i Config.obj
 0001:000270a0       ??0?$_Vector_val@U?$_Simple_types@PBD@std@@@std@@QAE@XZ 100280a0 f i Hooks.obj
 0001:000270a0       ??0?$_Vector_val@U?$_Simple_types@U?$pair@HPBD@std@@@std@@@std@@QAE@XZ 100280a0 f i Config.obj
 0001:000270a0       ??0?$_Vector_val@U?$_Simple_types@V?$_List_unchecked_iterator@V?$_List_val@U?$_List_simple_types@U?$pair@$$CBV?$basic_string@DU?$char_traits@D@std@@V?$allocator@D@2@@std@@V?$unique_ptr@UNetvarTable@@U?$default_delete@UNetvarTable@@@std@@@2@@std@@@std@@@std@@@std@@@std@@@std@@QAE@XZ 100280a0 f i NetvarManager.obj
 0001:000270a0       ??0?$_Vector_val@U?$_Simple_types@UVertex_t@@@std@@@std@@QAE@XZ 100280a0 f i Visuals.obj
 0001:000270a0       ??0?$_Vector_val@U?$_Simple_types@PAVCTab@@@std@@@std@@QAE@XZ 100280a0 f i newMenu.obj
 0001:000270a0       ??0?$_Vector_val@U?$_Simple_types@U?$pair@V?$basic_string@DU?$char_traits@D@std@@V?$allocator@D@2@@std@@VColor@@@std@@@std@@@std@@QAE@XZ 100280a0 f i Visuals.obj
 0001:000270a0       ??0?$_Vector_val@U?$_Simple_types@UGrenadeInfo_t@@@std@@@std@@QAE@XZ 100280a0 f i GrenadeHelperAPI.obj
 0001:000270a0       ??0?$_Vector_val@U?$_Simple_types@Vsound_info@@@std@@@std@@QAE@XZ 100280a0 f i Hooks.obj
 0001:000270a0       ??0?$_Vector_val@U?$_Simple_types@VVector@@@std@@@std@@QAE@XZ 100280a0 f i Hooks.obj
 0001:000270a0       ??0?$_Vector_val@U?$_Simple_types@Unotify_data_t@@@std@@@std@@QAE@XZ 100280a0 f i notifies.obj
 0001:000270a0       ??0?$_Vector_val@U?$_Simple_types@V?$_List_unchecked_iterator@V?$_List_val@U?$_List_simple_types@U?$pair@$$CBV?$basic_string@DU?$char_traits@D@std@@V?$allocator@D@2@@std@@I@std@@@std@@@std@@@std@@@std@@@std@@QAE@XZ 100280a0 f i NetvarManager.obj
 0001:000270a0       ??0?$_Vector_val@U?$_Simple_types@V?$_List_unchecked_iterator@V?$_List_val@U?$_List_simple_types@U?$pair@QADPAD@std@@@std@@@std@@@std@@@std@@@std@@QAE@XZ 100280a0 f i skinchanger.obj
 0001:000270a0       ??0?$_Vector_val@U?$_Simple_types@I@std@@@std@@QAE@XZ 100280a0 f i Config.obj
 0001:000270a0       ??0?$_Vector_val@U?$_Simple_types@UConfig_t@@@std@@@std@@QAE@XZ 100280a0 f i newMenu.obj
 0001:000270a0       ??0?$_Vector_val@U?$_Simple_types@U_event@@@std@@@std@@QAE@XZ 100280a0 f i Visuals.obj
 0001:000270a0       ??0?$_Vector_val@U?$_Simple_types@VConfigFile@@@std@@@std@@QAE@XZ 100280a0 f i Config.obj
 0001:000270a0       ??0?$_Vector_val@U?$_Simple_types@Vtrace_info@bullettracers@@@std@@@std@@QAE@XZ 100280a0 f i Hooks.obj
 0001:000270d0       ??0?$basic_filebuf@DU?$char_traits@D@std@@@std@@QAE@XZ 100280d0 f i Config.obj
 0001:00027140       ??0?$basic_ifstream@DU?$char_traits@D@std@@@std@@QAE@ABV?$basic_string@DU?$char_traits@D@std@@V?$allocator@D@2@@1@HH@Z 10028140 f i Config.obj
 0001:000271a0       ??0?$basic_ifstream@DU?$char_traits@D@std@@@std@@QAE@PBDHH@Z 100281a0 f i Config.obj
 0001:000272c0       ??0?$basic_json@Vmap@std@@Vvector@2@V?$basic_string@DU?$char_traits@D@std@@V?$allocator@D@2@@2@_N_J_KNVallocator@2@Uadl_serializer@nlohmann@@@nlohmann@@QAE@$$QAV01@@Z 100282c0 f i Config.obj
 0001:00027330       ??0?$basic_json@Vmap@std@@Vvector@2@V?$basic_string@DU?$char_traits@D@std@@V?$allocator@D@2@@2@_N_J_KNVallocator@2@Uadl_serializer@nlohmann@@@nlohmann@@QAE@$$T@Z 10028330 f i Config.obj
 0001:00027380       ??0?$basic_json@Vmap@std@@Vvector@2@V?$basic_string@DU?$char_traits@D@std@@V?$allocator@D@2@@2@_N_J_KNVallocator@2@Uadl_serializer@nlohmann@@@nlohmann@@QAE@W4value_t@detail@1@@Z 10028380 f i Config.obj
 0001:000273c0       ??0?$basic_ofstream@DU?$char_traits@D@std@@@std@@QAE@ABV?$basic_string@DU?$char_traits@D@std@@V?$allocator@D@2@@1@HH@Z 100283c0 f i Config.obj
 0001:00027420       ??0?$basic_ofstream@DU?$char_traits@D@std@@@std@@QAE@PBDHH@Z 10028420 f i Config.obj
 0001:00027540       ??0?$basic_string@DU?$char_traits@D@std@@V?$allocator@D@2@@std@@QAE@$$QAV01@@Z 10028540 f i Config.obj
 0001:000275e0       ??0?$basic_string@DU?$char_traits@D@std@@V?$allocator@D@2@@std@@QAE@ABV01@@Z 100285e0 f i Config.obj
 0001:00027690       ??0?$basic_string@DU?$char_traits@D@std@@V?$allocator@D@2@@std@@QAE@ABV01@IIABV?$allocator@D@1@@Z 10028690 f i Config.obj
 0001:00027730       ??0?$basic_string@DU?$char_traits@D@std@@V?$allocator@D@2@@std@@QAE@ABV?$allocator@D@1@@Z 10028730 f i Config.obj
 0001:000277a0       ??0?$basic_string@DU?$char_traits@D@std@@V?$allocator@D@2@@std@@QAE@ID@Z 100287a0 f i Config.obj
 0001:00027840       ??0?$basic_string@_WU?$char_traits@_W@std@@V?$allocator@_W@2@@std@@QAE@$$QAV01@@Z 10028840 f i Config.obj
 0001:000278e0       ??0?$basic_string@_WU?$char_traits@_W@std@@V?$allocator@_W@2@@std@@QAE@ABV01@@Z 100288e0 f i Config.obj
 0001:00027990       ??0?$basic_string@_WU?$char_traits@_W@std@@V?$allocator@_W@2@@std@@QAE@XZ 10028990 f i Config.obj
 0001:00027a00       ??0?$basic_string_view@DU?$char_traits@D@std@@@std@@QAE@QBD@Z 10028a00 f i Config.obj
 0001:00027a30       ??0?$basic_string_view@DU?$char_traits@D@std@@@std@@QAE@QBDI@Z 10028a30 f i Config.obj
 0001:00027a30       ??0?$initializer_list@H@std@@QAE@PBH0@Z 10028a30 f i Config.obj
 0001:00027a30       ??0<lambda_1>@?1??WorldToScreen@Utils@@SA_NABVVector@@AAVVector2D@@@Z@QAE@01@Z 10028a30 f i Hooks.obj
 0001:00027a30       ??0?$initializer_list@Uwskin@@@std@@QAE@PBUwskin@@0@Z 10028a30 f i Protobuffs.obj
 0001:00027a30       ??0error_code@std@@QAE@HABVerror_category@1@@Z 10028a30 f i Config.obj
 0001:00027a30       ??0?$basic_string_view@_WU?$char_traits@_W@std@@@std@@QAE@QB_WI@Z 10028a30 f i Config.obj
 0001:00027a30       ??0?$initializer_list@I@std@@QAE@PBI0@Z 10028a30 f i Protobuffs.obj
 0001:00027a30       ??0?$initializer_list@V?$basic_string@DU?$char_traits@D@std@@V?$allocator@D@2@@std@@@std@@QAE@PBV?$basic_string@DU?$char_traits@D@std@@V?$allocator@D@2@@1@0@Z 10028a30 f i Aimbot.obj
 0001:00027a30       ??0?$initializer_list@V?$json_ref@V?$basic_json@Vmap@std@@Vvector@2@V?$basic_string@DU?$char_traits@D@std@@V?$allocator@D@2@@2@_N_J_KNVallocator@2@Uadl_serializer@nlohmann@@@nlohmann@@@detail@nlohmann@@@std@@QAE@PBV?$json_ref@V?$basic_json@Vmap@std@@Vvector@2@V?$basic_string@DU?$char_traits@D@std@@V?$allocator@D@2@@2@_N_J_KNVallocator@2@Uadl_serializer@nlohmann@@@nlohmann@@@detail@nlohmann@@0@Z 10028a30 f i tab_Login.obj
 0001:00027a30       ??0Pair@ImGuiStorage@@QAE@IPAX@Z 10028a30 f i imgui.obj
 0001:00027a30       ??0error_condition@std@@QAE@HABVerror_category@1@@Z 10028a30 f i Config.obj
 0001:00027a30       ??0?$initializer_list@PBD@std@@QAE@PBQBD0@Z 10028a30 f i Hooks.obj
 0001:00027a30       ??0?$initializer_list@U?$pair@HPBD@std@@@std@@QAE@PBU?$pair@HPBD@1@0@Z 10028a30 f i Config.obj
 0001:00027a30       ??0?$GenericStringRef@D@rapidjson@@QAE@PBDI@Z 10028a30 f i http.obj
 0001:00027a60       ??0?$basic_string_view@_WU?$char_traits@_W@std@@@std@@QAE@QB_W@Z 10028a60 f i Config.obj
 0001:00027a90       ??0?$basic_stringbuf@DU?$char_traits@D@std@@V?$allocator@D@2@@std@@QAE@H@Z 10028a90 f i Config.obj
 0001:00027b20       ??0?$basic_stringstream@DU?$char_traits@D@std@@V?$allocator@D@2@@std@@QAE@H@Z 10028b20 f i Config.obj
 0001:00027c10       ??0?$fpos@U_Mbstatet@@@std@@QAE@U_Mbstatet@@_J@Z 10028c10 f i Config.obj
 0001:00027c50       ??0?$fpos@U_Mbstatet@@@std@@QAE@_J@Z 10028c50 f i Config.obj
 0001:00027c90       ??0?$function@$$A6A_NHW4parse_event_t@?$parser@V?$basic_json@Vmap@std@@Vvector@2@V?$basic_string@DU?$char_traits@D@std@@V?$allocator@D@2@@2@_N_J_KNVallocator@2@Uadl_serializer@nlohmann@@@nlohmann@@@detail@nlohmann@@AAV?$basic_json@Vmap@std@@Vvector@2@V?$basic_string@DU?$char_traits@D@std@@V?$allocator@D@2@@2@_N_J_KNVallocator@2@Uadl_serializer@nlohmann@@@4@@Z@std@@QAE@$$T@Z 10028c90 f i Config.obj
 0001:00027cb0       ??0?$function@$$A6AXXZ@std@@QAE@ABV01@@Z 10028cb0 f i Input.obj
 0001:00027cb0       ??0?$function@$$A6A_NHW4parse_event_t@?$parser@V?$basic_json@Vmap@std@@Vvector@2@V?$basic_string@DU?$char_traits@D@std@@V?$allocator@D@2@@2@_N_J_KNVallocator@2@Uadl_serializer@nlohmann@@@nlohmann@@@detail@nlohmann@@AAV?$basic_json@Vmap@std@@Vvector@2@V?$basic_string@DU?$char_traits@D@std@@V?$allocator@D@2@@2@_N_J_KNVallocator@2@Uadl_serializer@nlohmann@@@4@@Z@std@@QAE@ABV01@@Z 10028cb0 f i Config.obj
 0001:00027d10       ??0?$lexer@V?$basic_json@Vmap@std@@Vvector@2@V?$basic_string@DU?$char_traits@D@std@@V?$allocator@D@2@@2@_N_J_KNVallocator@2@Uadl_serializer@nlohmann@@@nlohmann@@@detail@nlohmann@@QAE@V?$shared_ptr@Uinput_adapter_protocol@detail@nlohmann@@@std@@@Z 10028d10 f i Config.obj
 0001:00027dc0       ??0?$multimap@PAXU?$pair@V?$basic_string@DU?$char_traits@D@std@@V?$allocator@D@2@@std@@V?$vector@V?$basic_string@DU?$char_traits@D@std@@V?$allocator@D@2@@std@@V?$allocator@V?$basic_string@DU?$char_traits@D@std@@V?$allocator@D@2@@std@@@2@@2@@std@@U?$less@PAX@2@V?$allocator@U?$pair@QAXU?$pair@V?$basic_string@DU?$char_traits@D@std@@V?$allocator@D@2@@std@@V?$vector@V?$basic_string@DU?$char_traits@D@std@@V?$allocator@D@2@@std@@V?$allocator@V?$basic_string@DU?$char_traits@D@std@@V?$allocator@D@2@@std@@@2@@2@@std@@@std@@@2@@std@@QAE@XZ 10028dc0 f i NetvarManager.obj
 0001:00027dc0       ??0?$map@V?$basic_string@DU?$char_traits@D@std@@V?$allocator@D@2@@std@@V?$basic_json@Vmap@std@@Vvector@2@V?$basic_string@DU?$char_traits@D@std@@V?$allocator@D@2@@2@_N_J_KNVallocator@2@Uadl_serializer@nlohmann@@@nlohmann@@U?$less@X@2@V?$allocator@U?$pair@$$CBV?$basic_string@DU?$char_traits@D@std@@V?$allocator@D@2@@std@@V?$basic_json@Vmap@std@@Vvector@2@V?$basic_string@DU?$char_traits@D@std@@V?$allocator@D@2@@2@_N_J_KNVallocator@2@Uadl_serializer@nlohmann@@@nlohmann@@@std@@@2@@std@@QAE@XZ 10028dc0 f i Config.obj
 0001:00027de0       ??0?$output_adapter@D@detail@nlohmann@@QAE@AAV?$basic_ostream@DU?$char_traits@D@std@@@std@@@Z 10028de0 f i Config.obj
 0001:00027e20       ??0?$output_adapter_protocol@D@detail@nlohmann@@QAE@XZ 10028e20 f i Config.obj
 0001:00027e40       ??0?$output_stream_adapter@D@detail@nlohmann@@QAE@AAV?$basic_ostream@DU?$char_traits@D@std@@@std@@@Z 10028e40 f i Config.obj
 0001:00027e70       ??0?$parser@V?$basic_json@Vmap@std@@Vvector@2@V?$basic_string@DU?$char_traits@D@std@@V?$allocator@D@2@@2@_N_J_KNVallocator@2@Uadl_serializer@nlohmann@@@nlohmann@@@detail@nlohmann@@QAE@V?$shared_ptr@Uinput_adapter_protocol@detail@nlohmann@@@std@@V?$function@$$A6A_NHW4parse_event_t@?$parser@V?$basic_json@Vmap@std@@Vvector@2@V?$basic_string@DU?$char_traits@D@std@@V?$allocator@D@2@@2@_N_J_KNVallocator@2@Uadl_serializer@nlohmann@@@nlohmann@@@detail@nlohmann@@AAV?$basic_json@Vmap@std@@Vvector@2@V?$basic_string@DU?$char_traits@D@std@@V?$allocator@D@2@@2@_N_J_KNVallocator@2@Uadl_serializer@nlohmann@@@4@@Z@4@_N@Z 10028e70 f i Config.obj
 0001:00027f50       ??0?$reverse_iterator@PB_W@std@@QAE@PB_W@Z 10028f50 f i Config.obj
 0001:00027f80       ??0?$serializer@V?$basic_json@Vmap@std@@Vvector@2@V?$basic_string@DU?$char_traits@D@std@@V?$allocator@D@2@@2@_N_J_KNVallocator@2@Uadl_serializer@nlohmann@@@nlohmann@@@detail@nlohmann@@QAE@V?$shared_ptr@U?$output_adapter_protocol@D@detail@nlohmann@@@std@@D@Z 10028f80 f i Config.obj
 0001:000280b0       ??0?$shared_ptr@U?$output_adapter_protocol@D@detail@nlohmann@@@std@@QAE@ABV01@@Z 100290b0 f i Config.obj
 0001:000280b0       ??0?$shared_ptr@Uinput_adapter_protocol@detail@nlohmann@@@std@@QAE@ABV01@@Z 100290b0 f i Config.obj
 0001:000280e0       ??0?$shared_ptr@V?$output_stream_adapter@D@detail@nlohmann@@@std@@QAE@XZ 100290e0 f i Config.obj
 0001:000280e0       ??0?$shared_ptr@Vinput_stream_adapter@detail@nlohmann@@@std@@QAE@XZ 100290e0 f i Config.obj
 0001:000280e0       ??0?$shared_ptr@VColor@@@std@@QAE@XZ 100290e0 f i Config.obj
 0001:000280e0       ??0?$shared_ptr@U_Recursive_dir_enum_impl@filesystem@std@@@std@@QAE@XZ 100290e0 f i Config.obj
 0001:00028100       ??0?$tuple@ABV?$basic_string@DU?$char_traits@D@std@@V?$allocator@D@2@@std@@@std@@QAE@$$QAV01@@Z 10029100 f i Config.obj
 0001:00028100       ??0?$tuple@ABQAD@std@@QAE@$$QAV01@@Z 10029100 f i skinchanger.obj
 0001:00028100       ??0?$tuple@$$QAV?$basic_string@DU?$char_traits@D@std@@V?$allocator@D@2@@std@@@std@@QAE@$$QAV01@@Z 10029100 f i Config.obj
 0001:00028130       ??0?$vector@UConfig_t@@V?$allocator@UConfig_t@@@std@@@std@@QAE@XZ 10029130 f i newMenu.obj
 0001:00028130       ??0?$vector@U_event@@V?$allocator@U_event@@@std@@@std@@QAE@XZ 10029130 f i Visuals.obj
 0001:00028130       ??0?$vector@UGrenadeInfo_t@@V?$allocator@UGrenadeInfo_t@@@std@@@std@@QAE@XZ 10029130 f i GrenadeHelperAPI.obj
 0001:00028130       ??0?$vector@UField@@V?$allocator@UField@@@std@@@std@@QAE@XZ 10029130 f i Protobuffs.obj
 0001:00028130       ??0?$vector@PAVCTab@@V?$allocator@PAVCTab@@@std@@@std@@QAE@XZ 10029130 f i newMenu.obj
 0001:00028130       ??0?$vector@V?$basic_string@DU?$char_traits@D@std@@V?$allocator@D@2@@std@@V?$allocator@V?$basic_string@DU?$char_traits@D@std@@V?$allocator@D@2@@std@@@2@@std@@QAE@XZ 10029130 f i Config.obj
 0001:00028130       ??0?$vector@PAVCWindow@@V?$allocator@PAVCWindow@@@std@@@std@@QAE@XZ 10029130 f i Controls.obj
 0001:00028130       ??0?$vector@PAVDot@@V?$allocator@PAVDot@@@std@@@std@@QAE@XZ 10029130 f i Drops+.obj
 0001:00028130       ??0?$vector@U?$pair@HPBD@std@@V?$allocator@U?$pair@HPBD@std@@@2@@std@@QAE@XZ 10029130 f i Config.obj
 0001:00028130       ??0?$vector@DV?$allocator@D@std@@@std@@QAE@XZ 10029130 f i Config.obj
 0001:00028130       ??0?$vector@Vtrace_info@bullettracers@@V?$allocator@Vtrace_info@bullettracers@@@std@@@std@@QAE@XZ 10029130 f i Hooks.obj
 0001:00028130       ??0?$vector@Uimpact_info@@V?$allocator@Uimpact_info@@@std@@@std@@QAE@XZ 10029130 f i otheresp.obj
 0001:00028130       ??0?$vector@VConfigFile@@V?$allocator@VConfigFile@@@std@@@std@@QAE@XZ 10029130 f i Config.obj
 0001:00028130       ??0?$vector@UKit_t@@V?$allocator@UKit_t@@@std@@@std@@QAE@XZ 10029130 f i kit_parser.obj
 0001:00028130       ??0?$vector@HV?$allocator@H@std@@@std@@QAE@XZ 10029130 f i Controls.obj
 0001:00028130       ??0?$vector@V?$vector@UField@@V?$allocator@UField@@@std@@@std@@V?$allocator@V?$vector@UField@@V?$allocator@UField@@@std@@@std@@@2@@std@@QAE@XZ 10029130 f i Protobuffs.obj
 0001:00028130       ??0?$vector@IV?$allocator@I@std@@@std@@QAE@XZ 10029130 f i Config.obj
 0001:00028130       ??0?$vector@UVertex_t@@V?$allocator@UVertex_t@@@std@@@std@@QAE@XZ 10029130 f i Visuals.obj
 0001:00028130       ??0?$vector@Unotify_data_t@@V?$allocator@Unotify_data_t@@@std@@@std@@QAE@XZ 10029130 f i notifies.obj
 0001:00028130       ??0?$vector@VVector@@V?$allocator@VVector@@@std@@@std@@QAE@XZ 10029130 f i Hooks.obj
 0001:00028130       ??0?$vector@U_Find_file_handle@filesystem@std@@V?$allocator@U_Find_file_handle@filesystem@std@@@3@@std@@QAE@XZ 10029130 f i Config.obj
 0001:00028130       ??0?$vector@U?$pair@VVector@@VQAngle@@@std@@V?$allocator@U?$pair@VVector@@VQAngle@@@std@@@2@@std@@QAE@XZ 10029130 f i Hooks.obj
 0001:00028130       ??0?$vector@V?$basic_json@Vmap@std@@Vvector@2@V?$basic_string@DU?$char_traits@D@std@@V?$allocator@D@2@@2@_N_J_KNVallocator@2@Uadl_serializer@nlohmann@@@nlohmann@@V?$allocator@V?$basic_json@Vmap@std@@Vvector@2@V?$basic_string@DU?$char_traits@D@std@@V?$allocator@D@2@@2@_N_J_KNVallocator@2@Uadl_serializer@nlohmann@@@nlohmann@@@std@@@std@@QAE@XZ 10029130 f i Config.obj
 0001:00028130       ??0?$vector@U?$pair@V?$basic_string@DU?$char_traits@D@std@@V?$allocator@D@2@@std@@VColor@@@std@@V?$allocator@U?$pair@V?$basic_string@DU?$char_traits@D@std@@V?$allocator@D@2@@std@@VColor@@@std@@@2@@std@@QAE@XZ 10029130 f i Visuals.obj
 0001:00028130       ??0?$vector@Uhitmarker_info@@V?$allocator@Uhitmarker_info@@@std@@@std@@QAE@XZ 10029130 f i otheresp.obj
 0001:00028130       ??0?$vector@Vsound_info@@V?$allocator@Vsound_info@@@std@@@std@@QAE@XZ 10029130 f i Hooks.obj
 0001:00028170       ??0?$vector@U?$pair@HPBD@std@@V?$allocator@U?$pair@HPBD@std@@@2@@std@@QAE@V?$initializer_list@U?$pair@HPBD@std@@@1@ABV?$allocator@U?$pair@HPBD@std@@@1@@Z 10029170 f i Config.obj
 0001:00028200       ??0?$vector@UField@@V?$allocator@UField@@@std@@@std@@QAE@$$QAV01@@Z 10029200 f i Protobuffs.obj
 0001:00028200       ??0?$vector@V?$basic_string@DU?$char_traits@D@std@@V?$allocator@D@2@@std@@V?$allocator@V?$basic_string@DU?$char_traits@D@std@@V?$allocator@D@2@@std@@@2@@std@@QAE@$$QAV01@@Z 10029200 f i Config.obj
 0001:00028200       ??0?$vector@VConfigFile@@V?$allocator@VConfigFile@@@std@@@std@@QAE@$$QAV01@@Z 10029200 f i Config.obj
 0001:00028200       ??0?$vector@HV?$allocator@H@std@@@std@@QAE@$$QAV01@@Z 10029200 f i Hooks.obj
 0001:00028270       ??0Air@Antiaim@Options2@@QAE@XZ 10029270 f i Config.obj
 0001:00028270       ??0Moving@Antiaim@Options2@@QAE@XZ 10029270 f i Config.obj
 0001:00028270       ??0Stand@Antiaim@Options2@@QAE@XZ 10029270 f i Config.obj
 0001:00028270       ??0Slow@Antiaim@Options2@@QAE@XZ 10029270 f i Config.obj
 0001:000282a0       ??0Antiaim@Options2@@QAE@XZ 100292a0 f i Config.obj
 0001:00028320       ??0Changers@Options2@@QAE@XZ 10029320 f i Config.obj
 0001:00028350       ??0Color@@QAE@HHHH@Z       10029350 f i Config.obj
 0001:00028380       ??0Colored_materials@Options2@@QAE@XZ 10029380 f i Config.obj
 0001:000283c0       ??0ConfigFile@@QAE@$$QAV0@@Z 100293c0 f i Config.obj
 0001:00028400       ??0ConfigFile@@QAE@ABV0@@Z 10029400 f i Config.obj
 0001:00028480       ??0ConfigFile@@QAE@V?$basic_string@DU?$char_traits@D@std@@V?$allocator@D@2@@std@@0@Z 10029480 f i Config.obj
 0001:00028520       ??0Effects@Esp@Options2@@QAE@XZ 10029520 f i Config.obj
 0001:000285e0       ??0Enemy@Colored_materials@Options2@@QAE@XZ 100295e0 f i Config.obj
 0001:000285e0       ??0Team@Colored_materials@Options2@@QAE@XZ 100295e0 f i Config.obj
 0001:00028610       ??0Enemy@Esp@Options2@@QAE@XZ 10029610 f i Config.obj
 0001:00028610       ??0Local@Esp@Options2@@QAE@XZ 10029610 f i Config.obj
 0001:00028610       ??0Team@Esp@Options2@@QAE@XZ 10029610 f i Config.obj
 0001:00028630       ??0Esp@Options2@@QAE@XZ    10029630 f i Config.obj
 0001:00028710       ??0Sub@Legitbot@Options2@@QAE@XZ 10029710 f i Config.obj
 0001:00028710       ??0Rifles@Legitbot@Options2@@QAE@XZ 10029710 f i Config.obj
 0001:00028710       ??0Heavys@Legitbot@Options2@@QAE@XZ 10029710 f i Config.obj
 0001:00028710       ??0Pistols@Legitbot@Options2@@QAE@XZ 10029710 f i Config.obj
 0001:00028710       ??0Snipers@Legitbot@Options2@@QAE@XZ 10029710 f i Config.obj
 0001:00028710       ??0Shotguns@Legitbot@Options2@@QAE@XZ 10029710 f i Config.obj
 0001:00028740       ??0ImColor@@QAE@HHHH@Z     10029740 f i Config.obj
 0001:000287b0       ??0ImVec4@@QAE@XZ          100297b0 f i Config.obj
 0001:000287f0       ??0Legitbot@Options2@@QAE@XZ 100297f0 f i Config.obj
 0001:000288c0       ??0Local@Colored_materials@Options2@@QAE@XZ 100298c0 f i Config.obj
 0001:000288f0       ??0Medals@Options2@@QAE@XZ 100298f0 f i Config.obj
 0001:00028910       ??0Misc@Options2@@QAE@XZ   10029910 f i Config.obj
 0001:00028ad0       ??0Options2@@QAE@XZ        10029ad0 f i Config.obj
 0001:00029020       ??0Other@Colored_materials@Options2@@QAE@XZ 1002a020 f i Config.obj
 0001:00029040       ??0Other@Esp@Options2@@QAE@XZ 1002a040 f i Config.obj
 0001:000290a0       ??0Ragebot@Options2@@QAE@XZ 1002a0a0 f i Config.obj
 0001:00029190       ??0Rank@Changers@Options2@@QAE@XZ 1002a190 f i Config.obj
 0001:000291f0       ??0Trigger@Legitbot@Options2@@QAE@XZ 1002a1f0 f i Config.obj
 0001:00029240       ??0_Creator@_Dir_enum_impl@filesystem@std@@QAE@ABVpath@23@W4directory_options@23@@Z 1002a240 f i Config.obj
 0001:00029340       ??0_Dir_enum_impl@filesystem@std@@QAE@$$QAU_Creator@012@W4directory_options@12@@Z 1002a340 f i Config.obj
 0001:000293e0       ??0_Directory_entry_proxy@filesystem@std@@AAE@ABVdirectory_entry@12@@Z 1002a3e0 f i Config.obj
 0001:00029410       ??0_Directory_entry_proxy@filesystem@std@@QAE@$$QAU012@@Z 1002a410 f i Config.obj
 0001:00029440       ??0_File_status_and_error@filesystem@std@@QAE@XZ 1002a440 f i Config.obj
 0001:00029460       ??0_Find_file_handle@filesystem@std@@QAE@$$QAU012@@Z 1002a460 f i Config.obj
 0001:00029490       ??0_Find_file_handle@filesystem@std@@QAE@XZ 1002a490 f i Config.obj
 0001:000294b0       ??0_Generic_error_category@std@@QAE@XZ 1002a4b0 f i Config.obj
 0001:000294e0       ??0_Recursive_dir_enum_impl@filesystem@std@@QAE@$$QAU_Creator@_Dir_enum_impl@12@W4directory_options@12@@Z 1002a4e0 f i Config.obj
 0001:00029530       ??0_Ref_count_base@std@@IAE@XZ 1002a530 f i Config.obj
 0001:00029560       ??0_Sentry_base@?$basic_ostream@DU?$char_traits@D@std@@@std@@QAE@AAV12@@Z 1002a560 f i Config.obj
 0001:000295b0       ??0_System_error@std@@IAE@Verror_code@1@ABV?$basic_string@DU?$char_traits@D@std@@V?$allocator@D@2@@1@@Z 1002a5b0 f i Config.obj
 0001:00029670       ??0_System_error@std@@QAE@ABV01@@Z 1002a670 f i Config.obj
 0001:000296b0       ??0_System_error_category@std@@QAE@XZ 1002a6b0 f i Config.obj
 0001:000296e0       ??0bad_cast@std@@QAE@ABV01@@Z 1002a6e0 f i Config.obj
 0001:00029710       ??0bad_cast@std@@QAE@XZ    1002a710 f i Config.obj
 0001:00029740       ??0directory_entry@filesystem@std@@QAE@$$QAV012@@Z 1002a740 f i Config.obj
 0001:00029780       ??0directory_entry@filesystem@std@@QAE@ABV012@@Z 1002a780 f i Config.obj
 0001:000297c0       ??0directory_entry@filesystem@std@@QAE@XZ 1002a7c0 f i Config.obj
 0001:00029810       ??0diyfp@dtoa_impl@detail@nlohmann@@QAE@_KH@Z 1002a810 f i Config.obj
 0001:00029810       ??0DiyFp@internal@rapidjson@@QAE@_KH@Z 1002a810 f i http.obj
 0001:00029840       ??0error_category@std@@QAE@XZ 1002a840 f i Config.obj
 0001:00029860       ??0error_code@std@@QAE@XZ  1002a860 f i Config.obj
 0001:00029890       ??0exception@detail@nlohmann@@IAE@HPBD@Z 1002a890 f i Config.obj
 0001:00029910       ??0exception@detail@nlohmann@@QAE@ABV012@@Z 1002a910 f i Config.obj
 0001:00029960       ??0exception@std@@QAE@QBD@Z 1002a960 f i Config.obj
 0001:000299b0       ??0exception@std@@QAE@XZ   1002a9b0 f i Config.obj
 0001:000299e0       ??0file_status@filesystem@std@@QAE@XZ 1002a9e0 f i Config.obj
 0001:00029a10       ??0filesystem_error@filesystem@std@@QAE@ABV012@@Z 1002aa10 f i Config.obj
 0001:00029ac0       ??0filesystem_error@filesystem@std@@QAE@ABV?$basic_string@DU?$char_traits@D@std@@V?$allocator@D@2@@2@ABVpath@12@Verror_code@2@@Z 1002aac0 f i Config.obj
 0001:00029be0       ??0filesystem_error@filesystem@std@@QAE@ABV?$basic_string@DU?$char_traits@D@std@@V?$allocator@D@2@@2@Verror_code@2@@Z 1002abe0 f i Config.obj
 0001:00029c80       ??0input_adapter@detail@nlohmann@@QAE@AAV?$basic_istream@DU?$char_traits@D@std@@@std@@@Z 1002ac80 f i Config.obj
 0001:00029cc0       ??0input_adapter_protocol@detail@nlohmann@@QAE@XZ 1002acc0 f i Config.obj
 0001:00029ce0       ??0input_stream_adapter@detail@nlohmann@@QAE@AAV?$basic_istream@DU?$char_traits@D@std@@@std@@@Z 1002ace0 f i Config.obj
 0001:00029e10       ??0json_value@?$basic_json@Vmap@std@@Vvector@2@V?$basic_string@DU?$char_traits@D@std@@V?$allocator@D@2@@2@_N_J_KNVallocator@2@Uadl_serializer@nlohmann@@@nlohmann@@QAE@$$QAV?$basic_string@DU?$char_traits@D@std@@V?$allocator@D@2@@std@@@Z 1002ae10 f i Config.obj
 0001:00029e40       ??0json_value@?$basic_json@Vmap@std@@Vvector@2@V?$basic_string@DU?$char_traits@D@std@@V?$allocator@D@2@@2@_N_J_KNVallocator@2@Uadl_serializer@nlohmann@@@nlohmann@@QAE@ABV?$basic_string@DU?$char_traits@D@std@@V?$allocator@D@2@@std@@@Z 1002ae40 f i Config.obj
 0001:00029e70       ??0Double@internal@rapidjson@@QAE@N@Z 1002ae70 f i http.obj
 0001:00029e70       ??0json_value@?$basic_json@Vmap@std@@Vvector@2@V?$basic_string@DU?$char_traits@D@std@@V?$allocator@D@2@@2@_N_J_KNVallocator@2@Uadl_serializer@nlohmann@@@nlohmann@@QAE@N@Z 1002ae70 f i Config.obj
 0001:00029e90       ??0json_value@?$basic_json@Vmap@std@@Vvector@2@V?$basic_string@DU?$char_traits@D@std@@V?$allocator@D@2@@2@_N_J_KNVallocator@2@Uadl_serializer@nlohmann@@@nlohmann@@QAE@W4value_t@detail@2@@Z 1002ae90 f i Config.obj
 0001:00029ff0       ??0json_value@?$basic_json@Vmap@std@@Vvector@2@V?$basic_string@DU?$char_traits@D@std@@V?$allocator@D@2@@2@_N_J_KNVallocator@2@Uadl_serializer@nlohmann@@@nlohmann@@QAE@_J@Z 1002aff0 f i Config.obj
 0001:00029ff0       ??0Double@internal@rapidjson@@QAE@_K@Z 1002aff0 f i http.obj
 0001:00029ff0       ??0json_value@?$basic_json@Vmap@std@@Vvector@2@V?$basic_string@DU?$char_traits@D@std@@V?$allocator@D@2@@2@_N_J_KNVallocator@2@Uadl_serializer@nlohmann@@@nlohmann@@QAE@_K@Z 1002aff0 f i Config.obj
 0001:0002a010       ??0other_error@detail@nlohmann@@AAE@HPBD@Z 1002b010 f i Config.obj
 0001:0002a040       ??0other_error@detail@nlohmann@@QAE@ABV012@@Z 1002b040 f i Config.obj
 0001:0002a070       ??0out_of_range@detail@nlohmann@@AAE@HPBD@Z 1002b070 f i Config.obj
 0001:0002a0a0       ??0out_of_range@detail@nlohmann@@QAE@ABV012@@Z 1002b0a0 f i Config.obj
 0001:0002a0d0       ??0parse_error@detail@nlohmann@@AAE@HIPBD@Z 1002b0d0 f i Config.obj
 0001:0002a110       ??0parse_error@detail@nlohmann@@QAE@ABV012@@Z 1002b110 f i Config.obj
 0001:0002a150       ??0path@filesystem@std@@QAE@$$QAV012@@Z 1002b150 f i Config.obj
 0001:0002a180       ??0path@filesystem@std@@QAE@ABV012@@Z 1002b180 f i Config.obj
 0001:0002a1b0       ??0path@filesystem@std@@QAE@XZ 1002b1b0 f i Config.obj
 0001:0002a1d0       ??0recursive_directory_iterator@filesystem@std@@QAE@ABVpath@12@@Z 1002b1d0 f i Config.obj
 0001:0002a250       ??0recursive_directory_iterator@filesystem@std@@QAE@XZ 1002b250 f i Config.obj
 0001:0002a270       ??0runtime_error@std@@QAE@ABV01@@Z 1002b270 f i Config.obj
 0001:0002a2a0       ??0runtime_error@std@@QAE@ABV?$basic_string@DU?$char_traits@D@std@@V?$allocator@D@2@@1@@Z 1002b2a0 f i Config.obj
 0001:0002a2d0       ??0runtime_error@std@@QAE@PBD@Z 1002b2d0 f i Config.obj
 0001:0002a300       ??0sentry@?$basic_ostream@DU?$char_traits@D@std@@@std@@QAE@AAV12@@Z 1002b300 f i Config.obj
 0001:0002a3d0       ??0system_error@std@@QAE@ABV01@@Z 1002b3d0 f i Config.obj
 0001:0002a400       ??0system_error@std@@QAE@Verror_code@1@@Z 1002b400 f i Config.obj
 0001:0002a490       ??0system_error@std@@QAE@Verror_code@1@ABV?$basic_string@DU?$char_traits@D@std@@V?$allocator@D@2@@1@@Z 1002b490 f i Config.obj
 0001:0002a4c0       ??0type_error@detail@nlohmann@@AAE@HPBD@Z 1002b4c0 f i Config.obj
 0001:0002a4f0       ??0type_error@detail@nlohmann@@QAE@ABV012@@Z 1002b4f0 f i Config.obj
 0001:0002a520       ??1?$Var@VColor@@@@QAE@XZ  1002b520 f i Config.obj
 0001:0002a540       ??1?$_Alloc_construct_ptr@V?$allocator@U?$_Tree_node@U?$pair@$$CBV?$basic_string@DU?$char_traits@D@std@@V?$allocator@D@2@@std@@V?$basic_json@Vmap@std@@Vvector@2@V?$basic_string@DU?$char_traits@D@std@@V?$allocator@D@2@@2@_N_J_KNVallocator@2@Uadl_serializer@nlohmann@@@nlohmann@@@std@@PAX@std@@@std@@@std@@QAE@XZ 1002b540 f i Config.obj
 0001:0002a5a0       ??1?$_Func_class@X$$V@std@@QAE@XZ 1002b5a0 f i Hooks.obj
 0001:0002a5a0       ??1?$_Func_class@_NHW4parse_event_t@?$parser@V?$basic_json@Vmap@std@@Vvector@2@V?$basic_string@DU?$char_traits@D@std@@V?$allocator@D@2@@2@_N_J_KNVallocator@2@Uadl_serializer@nlohmann@@@nlohmann@@@detail@nlohmann@@AAV?$basic_json@Vmap@std@@Vvector@2@V?$basic_string@DU?$char_traits@D@std@@V?$allocator@D@2@@2@_N_J_KNVallocator@2@Uadl_serializer@nlohmann@@@4@@std@@QAE@XZ 1002b5a0 f i Config.obj
 0001:0002a5a0       ??1?$_Func_class@XPAVC_BaseEntity@@@std@@QAE@XZ 1002b5a0 f i Hooks.obj
 0001:0002a5c0       ??1?$_Ref_count_obj2@U_Recursive_dir_enum_impl@filesystem@std@@@std@@UAE@XZ 1002b5c0 f i Config.obj
 0001:0002a5e0       ??1?$_Ref_count_obj2@V?$output_stream_adapter@D@detail@nlohmann@@@std@@UAE@XZ 1002b5e0 f i Config.obj
 0001:0002a600       ??1?$_Ref_count_obj2@VColor@@@std@@UAE@XZ 1002b600 f i Config.obj
 0001:0002a620       ??1?$_Ref_count_obj2@Vinput_stream_adapter@detail@nlohmann@@@std@@UAE@XZ 1002b620 f i Config.obj
 0001:0002a640       ??1?$_Tidy_guard@V?$vector@U?$pair@HPBD@std@@V?$allocator@U?$pair@HPBD@std@@@2@@std@@@std@@QAE@XZ 1002b640 f i Config.obj
 0001:0002a640       ??1?$_Tidy_guard@V?$vector@Uwskin@@V?$allocator@Uwskin@@@std@@@std@@@std@@QAE@XZ 1002b640 f i Protobuffs.obj
 0001:0002a660       ??1?$_Tree@V?$_Tmap_traits@V?$basic_string@DU?$char_traits@D@std@@V?$allocator@D@2@@std@@V?$basic_json@Vmap@std@@Vvector@2@V?$basic_string@DU?$char_traits@D@std@@V?$allocator@D@2@@2@_N_J_KNVallocator@2@Uadl_serializer@nlohmann@@@nlohmann@@U?$less@X@2@V?$allocator@U?$pair@$$CBV?$basic_string@DU?$char_traits@D@std@@V?$allocator@D@2@@std@@V?$basic_json@Vmap@std@@Vvector@2@V?$basic_string@DU?$char_traits@D@std@@V?$allocator@D@2@@2@_N_J_KNVallocator@2@Uadl_serializer@nlohmann@@@nlohmann@@@std@@@2@$0A@@std@@@std@@QAE@XZ 1002b660 f i Config.obj
 0001:0002a690       ??1?$_Tree_temp_node@V?$allocator@U?$_Tree_node@U?$pair@$$CBV?$basic_string@DU?$char_traits@D@std@@V?$allocator@D@2@@std@@V?$basic_json@Vmap@std@@Vvector@2@V?$basic_string@DU?$char_traits@D@std@@V?$allocator@D@2@@2@_N_J_KNVallocator@2@Uadl_serializer@nlohmann@@@nlohmann@@@std@@PAX@std@@@std@@@std@@QAE@XZ 1002b690 f i Config.obj
 0001:0002a740       ??1?$_Tree_temp_node_alloc@V?$allocator@U?$_Tree_node@U?$pair@$$CBV?$basic_string@DU?$char_traits@D@std@@V?$allocator@D@2@@std@@V?$basic_json@Vmap@std@@Vvector@2@V?$basic_string@DU?$char_traits@D@std@@V?$allocator@D@2@@2@_N_J_KNVallocator@2@Uadl_serializer@nlohmann@@@nlohmann@@@std@@PAX@std@@@std@@@std@@QAE@XZ 1002b740 f i Config.obj
 0001:0002a760       ??1?$_Uninitialized_backout_al@V?$allocator@U?$pair@VVector@@VQAngle@@@std@@@std@@@std@@QAE@XZ 1002b760 f i grenadetracer.obj
 0001:0002a760       ??1?$_Uninitialized_backout_al@V?$allocator@Vsound_info@@@std@@@std@@QAE@XZ 1002b760 f i Hooks.obj
 0001:0002a760       ??1?$_Uninitialized_backout_al@V?$allocator@UVertex_t@@@std@@@std@@QAE@XZ 1002b760 f i Visuals.obj
 0001:0002a760       ??1?$_Uninitialized_backout_al@V?$allocator@VVector@@@std@@@std@@QAE@XZ 1002b760 f i grenadetracer.obj
 0001:0002a760       ??1?$_Uninitialized_backout_al@V?$allocator@Vtrace_info@bullettracers@@@std@@@std@@QAE@XZ 1002b760 f i bullettracers.obj
 0001:0002a760       ??1?$_Uninitialized_backout_al@V?$allocator@U?$pair@HPBD@std@@@std@@@std@@QAE@XZ 1002b760 f i Config.obj
 0001:0002a790       ??1?$_Uninitialized_backout_al@V?$allocator@U_Find_file_handle@filesystem@std@@@std@@@std@@QAE@XZ 1002b790 f i Config.obj
 0001:0002a7c0       ??1?$_Uninitialized_backout_al@V?$allocator@V?$basic_json@Vmap@std@@Vvector@2@V?$basic_string@DU?$char_traits@D@std@@V?$allocator@D@2@@2@_N_J_KNVallocator@2@Uadl_serializer@nlohmann@@@nlohmann@@@std@@@std@@QAE@XZ 1002b7c0 f i Config.obj
 0001:0002a7f0       ??1?$_Uninitialized_backout_al@V?$allocator@V?$basic_string@DU?$char_traits@D@std@@V?$allocator@D@2@@std@@@std@@@std@@QAE@XZ 1002b7f0 f i Config.obj
 0001:0002a820       ??1?$_Uninitialized_backout_al@V?$allocator@VConfigFile@@@std@@@std@@QAE@XZ 1002b820 f i Config.obj
 0001:0002a850       ??1?$basic_filebuf@DU?$char_traits@D@std@@@std@@UAE@XZ 1002b850 f i Config.obj
 0001:0002a8c0       ??1?$basic_ifstream@DU?$char_traits@D@std@@@std@@UAE@XZ 1002b8c0 f i Config.obj
 0001:0002a920       ??1?$basic_json@Vmap@std@@Vvector@2@V?$basic_string@DU?$char_traits@D@std@@V?$allocator@D@2@@2@_N_J_KNVallocator@2@Uadl_serializer@nlohmann@@@nlohmann@@QAE@XZ 1002b920 f i Config.obj
 0001:0002a950       ??1?$basic_ofstream@DU?$char_traits@D@std@@@std@@UAE@XZ 1002b950 f i Config.obj
 0001:0002a9b0       ??1?$basic_string@_WU?$char_traits@_W@std@@V?$allocator@_W@2@@std@@QAE@XZ 1002b9b0 f i Config.obj
 0001:0002a9d0       ??1?$basic_stringbuf@DU?$char_traits@D@std@@V?$allocator@D@2@@std@@UAE@XZ 1002b9d0 f i Config.obj
 0001:0002aa00       ??1?$basic_stringstream@DU?$char_traits@D@std@@V?$allocator@D@2@@std@@UAE@XZ 1002ba00 f i Config.obj
 0001:0002aa60       ??1?$function@$$A6A_NHW4parse_event_t@?$parser@V?$basic_json@Vmap@std@@Vvector@2@V?$basic_string@DU?$char_traits@D@std@@V?$allocator@D@2@@2@_N_J_KNVallocator@2@Uadl_serializer@nlohmann@@@nlohmann@@@detail@nlohmann@@AAV?$basic_json@Vmap@std@@Vvector@2@V?$basic_string@DU?$char_traits@D@std@@V?$allocator@D@2@@2@_N_J_KNVallocator@2@Uadl_serializer@nlohmann@@@4@@Z@std@@QAE@XZ 1002ba60 f i Config.obj
 0001:0002aa60       ??1?$function@$$A6AXXZ@std@@QAE@XZ 1002ba60 f i Input.obj
 0001:0002aa60       ??1?$function@$$A6AXPAVC_BaseEntity@@@Z@std@@QAE@XZ 1002ba60 f i Hooks.obj
 0001:0002aa80       ??1?$lexer@V?$basic_json@Vmap@std@@Vvector@2@V?$basic_string@DU?$char_traits@D@std@@V?$allocator@D@2@@2@_N_J_KNVallocator@2@Uadl_serializer@nlohmann@@@nlohmann@@@detail@nlohmann@@QAE@XZ 1002ba80 f i Config.obj
 0001:0002aab0       ??1?$map@V?$basic_string@DU?$char_traits@D@std@@V?$allocator@D@2@@std@@V?$basic_json@Vmap@std@@Vvector@2@V?$basic_string@DU?$char_traits@D@std@@V?$allocator@D@2@@2@_N_J_KNVallocator@2@Uadl_serializer@nlohmann@@@nlohmann@@U?$less@X@2@V?$allocator@U?$pair@$$CBV?$basic_string@DU?$char_traits@D@std@@V?$allocator@D@2@@std@@V?$basic_json@Vmap@std@@Vvector@2@V?$basic_string@DU?$char_traits@D@std@@V?$allocator@D@2@@2@_N_J_KNVallocator@2@Uadl_serializer@nlohmann@@@nlohmann@@@std@@@2@@std@@QAE@XZ 1002bab0 f i Config.obj
 0001:0002aad0       ??1input_adapter@detail@nlohmann@@QAE@XZ 1002bad0 f i Config.obj
 0001:0002aad0       ??1recursive_directory_iterator@filesystem@std@@QAE@XZ 1002bad0 f i Config.obj
 0001:0002aad0       ??1?$output_adapter@D@detail@nlohmann@@QAE@XZ 1002bad0 f i Config.obj
 0001:0002aaf0       ??1?$pair@$$CBV?$basic_string@DU?$char_traits@D@std@@V?$allocator@D@2@@std@@V?$basic_json@Vmap@std@@Vvector@2@V?$basic_string@DU?$char_traits@D@std@@V?$allocator@D@2@@2@_N_J_KNVallocator@2@Uadl_serializer@nlohmann@@@nlohmann@@@std@@QAE@XZ 1002baf0 f i Config.obj
 0001:0002ab10       ??1?$parser@V?$basic_json@Vmap@std@@Vvector@2@V?$basic_string@DU?$char_traits@D@std@@V?$allocator@D@2@@2@_N_J_KNVallocator@2@Uadl_serializer@nlohmann@@@nlohmann@@@detail@nlohmann@@QAE@XZ 1002bb10 f i Config.obj
 0001:0002ab40       ??1?$serializer@V?$basic_json@Vmap@std@@Vvector@2@V?$basic_string@DU?$char_traits@D@std@@V?$allocator@D@2@@2@_N_J_KNVallocator@2@Uadl_serializer@nlohmann@@@nlohmann@@@detail@nlohmann@@QAE@XZ 1002bb40 f i Config.obj
 0001:0002ab70       ??1?$shared_ptr@V?$output_stream_adapter@D@detail@nlohmann@@@std@@QAE@XZ 1002bb70 f i Config.obj
 0001:0002ab70       ??1?$shared_ptr@Vinput_stream_adapter@detail@nlohmann@@@std@@QAE@XZ 1002bb70 f i Config.obj
 0001:0002ab70       ??1?$shared_ptr@U_Recursive_dir_enum_impl@filesystem@std@@@std@@QAE@XZ 1002bb70 f i Config.obj
 0001:0002ab70       ??1?$shared_ptr@U?$output_adapter_protocol@D@detail@nlohmann@@@std@@QAE@XZ 1002bb70 f i Config.obj
 0001:0002ab70       ??1?$shared_ptr@VColor@@@std@@QAE@XZ 1002bb70 f i Config.obj
 0001:0002ab70       ??1?$shared_ptr@Uinput_adapter_protocol@detail@nlohmann@@@std@@QAE@XZ 1002bb70 f i Config.obj
 0001:0002ab90       ??1?$unique_ptr@V?$basic_string@DU?$char_traits@D@std@@V?$allocator@D@2@@std@@V<lambda_1>@?1???$create@V?$basic_string@DU?$char_traits@D@std@@V?$allocator@D@2@@std@@AAY0PP@$$CBD@?$basic_json@Vmap@std@@Vvector@2@V?$basic_string@DU?$char_traits@D@std@@V?$allocator@D@2@@2@_N_J_KNVallocator@2@Uadl_serializer@nlohmann@@@nlohmann@@CAPAV12@AAY0PP@$$CBD@Z@@std@@QAE@XZ 1002bb90 f i tab_Login.obj
 0001:0002ab90       ??1?$unique_ptr@V?$basic_string@DU?$char_traits@D@std@@V?$allocator@D@2@@std@@V<lambda_1>@?1???$create@V?$basic_string@DU?$char_traits@D@std@@V?$allocator@D@2@@std@@V12@@?$basic_json@Vmap@std@@Vvector@2@V?$basic_string@DU?$char_traits@D@std@@V?$allocator@D@2@@2@_N_J_KNVallocator@2@Uadl_serializer@nlohmann@@@nlohmann@@CAPAV12@$$QAV12@@Z@@std@@QAE@XZ 1002bb90 f i Config.obj
 0001:0002ab90       ??1?$unique_ptr@V?$basic_string@DU?$char_traits@D@std@@V?$allocator@D@2@@std@@V<lambda_1>@?1???$create@V?$basic_string@DU?$char_traits@D@std@@V?$allocator@D@2@@std@@ABV12@@?$basic_json@Vmap@std@@Vvector@2@V?$basic_string@DU?$char_traits@D@std@@V?$allocator@D@2@@2@_N_J_KNVallocator@2@Uadl_serializer@nlohmann@@@nlohmann@@CAPAV12@ABV12@@Z@@std@@QAE@XZ 1002bb90 f i Config.obj
 0001:0002ab90       ??1?$unique_ptr@V?$basic_string@DU?$char_traits@D@std@@V?$allocator@D@2@@std@@V<lambda_1>@?1???$create@V?$basic_string@DU?$char_traits@D@std@@V?$allocator@D@2@@std@@AAY04$$CBD@?$basic_json@Vmap@std@@Vvector@2@V?$basic_string@DU?$char_traits@D@std@@V?$allocator@D@2@@2@_N_J_KNVallocator@2@Uadl_serializer@nlohmann@@@nlohmann@@CAPAV12@AAY04$$CBD@Z@@std@@QAE@XZ 1002bb90 f i tab_Login.obj
 0001:0002ab90       ??1?$unique_ptr@V?$basic_string@DU?$char_traits@D@std@@V?$allocator@D@2@@std@@V<lambda_1>@?1???$create@V?$basic_string@DU?$char_traits@D@std@@V?$allocator@D@2@@std@@AAY00$$CBD@?$basic_json@Vmap@std@@Vvector@2@V?$basic_string@DU?$char_traits@D@std@@V?$allocator@D@2@@2@_N_J_KNVallocator@2@Uadl_serializer@nlohmann@@@nlohmann@@CAPAV12@AAY00$$CBD@Z@@std@@QAE@XZ 1002bb90 f i Config.obj
 0001:0002abf0       ??1?$unique_ptr@V?$map@V?$basic_string@DU?$char_traits@D@std@@V?$allocator@D@2@@std@@V?$basic_json@Vmap@std@@Vvector@2@V?$basic_string@DU?$char_traits@D@std@@V?$allocator@D@2@@2@_N_J_KNVallocator@2@Uadl_serializer@nlohmann@@@nlohmann@@U?$less@X@2@V?$allocator@U?$pair@$$CBV?$basic_string@DU?$char_traits@D@std@@V?$allocator@D@2@@std@@V?$basic_json@Vmap@std@@Vvector@2@V?$basic_string@DU?$char_traits@D@std@@V?$allocator@D@2@@2@_N_J_KNVallocator@2@Uadl_serializer@nlohmann@@@nlohmann@@@std@@@2@@std@@V<lambda_1>@?1???$create@V?$map@V?$basic_string@DU?$char_traits@D@std@@V?$allocator@D@2@@std@@V?$basic_json@Vmap@std@@Vvector@2@V?$basic_string@DU?$char_traits@D@std@@V?$allocator@D@2@@2@_N_J_KNVallocator@2@Uadl_serializer@nlohmann@@@nlohmann@@U?$less@X@2@V?$allocator@U?$pair@$$CBV?$basic_string@DU?$char_traits@D@std@@V?$allocator@D@2@@std@@V?$basic_json@Vmap@std@@Vvector@2@V?$basic_string@DU?$char_traits@D@std@@V?$allocator@D@2@@2@_N_J_KNVallocator@2@Uadl_serializer@nlohmann@@@nlohmann@@@std@@@2@@std@@ABV12@@?$basic_json@Vmap@std@@Vvector@2@V?$basic_string@DU?$char_traits@D@std@@V?$allocator@D@2@@2@_N_J_KNVallocator@2@Uadl_serializer@nlohmann@@@nlohmann@@CAPAV12@ABV12@@Z@@std@@QAE@XZ 1002bbf0 f i tab_Login.obj
 0001:0002abf0       ??1?$unique_ptr@V?$map@V?$basic_string@DU?$char_traits@D@std@@V?$allocator@D@2@@std@@V?$basic_json@Vmap@std@@Vvector@2@V?$basic_string@DU?$char_traits@D@std@@V?$allocator@D@2@@2@_N_J_KNVallocator@2@Uadl_serializer@nlohmann@@@nlohmann@@U?$less@X@2@V?$allocator@U?$pair@$$CBV?$basic_string@DU?$char_traits@D@std@@V?$allocator@D@2@@std@@V?$basic_json@Vmap@std@@Vvector@2@V?$basic_string@DU?$char_traits@D@std@@V?$allocator@D@2@@2@_N_J_KNVallocator@2@Uadl_serializer@nlohmann@@@nlohmann@@@std@@@2@@std@@V<lambda_1>@?1???$create@V?$map@V?$basic_string@DU?$char_traits@D@std@@V?$allocator@D@2@@std@@V?$basic_json@Vmap@std@@Vvector@2@V?$basic_string@DU?$char_traits@D@std@@V?$allocator@D@2@@2@_N_J_KNVallocator@2@Uadl_serializer@nlohmann@@@nlohmann@@U?$less@X@2@V?$allocator@U?$pair@$$CBV?$basic_string@DU?$char_traits@D@std@@V?$allocator@D@2@@std@@V?$basic_json@Vmap@std@@Vvector@2@V?$basic_string@DU?$char_traits@D@std@@V?$allocator@D@2@@2@_N_J_KNVallocator@2@Uadl_serializer@nlohmann@@@nlohmann@@@std@@@2@@std@@$$V@?$basic_json@Vmap@std@@Vvector@2@V?$basic_string@DU?$char_traits@D@std@@V?$allocator@D@2@@2@_N_J_KNVallocator@2@Uadl_serializer@nlohmann@@@nlohmann@@CAPAV12@XZ@@std@@QAE@XZ 1002bbf0 f i Config.obj
 0001:0002ac50       ??1?$unique_ptr@V?$vector@V?$basic_json@Vmap@std@@Vvector@2@V?$basic_string@DU?$char_traits@D@std@@V?$allocator@D@2@@2@_N_J_KNVallocator@2@Uadl_serializer@nlohmann@@@nlohmann@@V?$allocator@V?$basic_json@Vmap@std@@Vvector@2@V?$basic_string@DU?$char_traits@D@std@@V?$allocator@D@2@@2@_N_J_KNVallocator@2@Uadl_serializer@nlohmann@@@nlohmann@@@std@@@std@@V<lambda_1>@?1???$create@V?$vector@V?$basic_json@Vmap@std@@Vvector@2@V?$basic_string@DU?$char_traits@D@std@@V?$allocator@D@2@@2@_N_J_KNVallocator@2@Uadl_serializer@nlohmann@@@nlohmann@@V?$allocator@V?$basic_json@Vmap@std@@Vvector@2@V?$basic_string@DU?$char_traits@D@std@@V?$allocator@D@2@@2@_N_J_KNVallocator@2@Uadl_serializer@nlohmann@@@nlohmann@@@std@@@std@@$$V@?$basic_json@Vmap@std@@Vvector@2@V?$basic_string@DU?$char_traits@D@std@@V?$allocator@D@2@@2@_N_J_KNVallocator@2@Uadl_serializer@nlohmann@@@nlohmann@@CAPAV12@XZ@@std@@QAE@XZ 1002bc50 f i Config.obj
 0001:0002ac50       ??1?$unique_ptr@V?$vector@V?$basic_json@Vmap@std@@Vvector@2@V?$basic_string@DU?$char_traits@D@std@@V?$allocator@D@2@@2@_N_J_KNVallocator@2@Uadl_serializer@nlohmann@@@nlohmann@@V?$allocator@V?$basic_json@Vmap@std@@Vvector@2@V?$basic_string@DU?$char_traits@D@std@@V?$allocator@D@2@@2@_N_J_KNVallocator@2@Uadl_serializer@nlohmann@@@nlohmann@@@std@@@std@@V<lambda_1>@?1???$create@V?$vector@V?$basic_json@Vmap@std@@Vvector@2@V?$basic_string@DU?$char_traits@D@std@@V?$allocator@D@2@@2@_N_J_KNVallocator@2@Uadl_serializer@nlohmann@@@nlohmann@@V?$allocator@V?$basic_json@Vmap@std@@Vvector@2@V?$basic_string@DU?$char_traits@D@std@@V?$allocator@D@2@@2@_N_J_KNVallocator@2@Uadl_serializer@nlohmann@@@nlohmann@@@std@@@std@@PBV?$json_ref@V?$basic_json@Vmap@std@@Vvector@2@V?$basic_string@DU?$char_traits@D@std@@V?$allocator@D@2@@2@_N_J_KNVallocator@2@Uadl_serializer@nlohmann@@@nlohmann@@@detail@nlohmann@@PBV345@@?$basic_json@Vmap@std@@Vvector@2@V?$basic_string@DU?$char_traits@D@std@@V?$allocator@D@2@@2@_N_J_KNVallocator@2@Uadl_serializer@nlohmann@@@nlohmann@@CAPAV12@$$QAPBV?$json_ref@V?$basic_json@Vmap@std@@Vvector@2@V?$basic_string@DU?$char_traits@D@std@@V?$allocator@D@2@@2@_N_J_KNVallocator@2@Uadl_serializer@nlohmann@@@nlohmann@@@detail@5@0@Z@@std@@QAE@XZ 1002bc50 f i tab_Login.obj
 0001:0002ac50       ??1?$unique_ptr@V?$vector@V?$basic_json@Vmap@std@@Vvector@2@V?$basic_string@DU?$char_traits@D@std@@V?$allocator@D@2@@2@_N_J_KNVallocator@2@Uadl_serializer@nlohmann@@@nlohmann@@V?$allocator@V?$basic_json@Vmap@std@@Vvector@2@V?$basic_string@DU?$char_traits@D@std@@V?$allocator@D@2@@2@_N_J_KNVallocator@2@Uadl_serializer@nlohmann@@@nlohmann@@@std@@@std@@V<lambda_1>@?1???$create@V?$vector@V?$basic_json@Vmap@std@@Vvector@2@V?$basic_string@DU?$char_traits@D@std@@V?$allocator@D@2@@2@_N_J_KNVallocator@2@Uadl_serializer@nlohmann@@@nlohmann@@V?$allocator@V?$basic_json@Vmap@std@@Vvector@2@V?$basic_string@DU?$char_traits@D@std@@V?$allocator@D@2@@2@_N_J_KNVallocator@2@Uadl_serializer@nlohmann@@@nlohmann@@@std@@@std@@ABV12@@?$basic_json@Vmap@std@@Vvector@2@V?$basic_string@DU?$char_traits@D@std@@V?$allocator@D@2@@2@_N_J_KNVallocator@2@Uadl_serializer@nlohmann@@@nlohmann@@CAPAV12@ABV12@@Z@@std@@QAE@XZ 1002bc50 f i tab_Login.obj
 0001:0002acb0       ??1?$unique_ptr@V_Facet_base@std@@U?$default_delete@V_Facet_base@std@@@2@@std@@QAE@XZ 1002bcb0 f i Config.obj
 0001:0002acf0       ??1?$vector@DV?$allocator@D@std@@@std@@QAE@XZ 1002bcf0 f i Config.obj
 0001:0002ad10       ??1?$vector@PAVDot@@V?$allocator@PAVDot@@@std@@@std@@QAE@XZ 1002bd10 f i Drops+.obj
 0001:0002ad10       ??1?$vector@PAVCTab@@V?$allocator@PAVCTab@@@std@@@std@@QAE@XZ 1002bd10 f i newMenu.obj
 0001:0002ad10       ??1?$vector@PBDV?$allocator@PBD@std@@@std@@QAE@XZ 1002bd10 f i Hooks.obj
 0001:0002ad10       ??1?$vector@IV?$allocator@I@std@@@std@@QAE@XZ 1002bd10 f i Config.obj
 0001:0002ad10       ??1?$vector@HV?$allocator@H@std@@@std@@QAE@XZ 1002bd10 f i Controls.obj
 0001:0002ad10       ??1?$vector@PAVCWindow@@V?$allocator@PAVCWindow@@@std@@@std@@QAE@XZ 1002bd10 f i GUI.obj
 0001:0002ad30       ??1?$vector@U?$pair@HPBD@std@@V?$allocator@U?$pair@HPBD@std@@@2@@std@@QAE@XZ 1002bd30 f i Config.obj
 0001:0002ad30       ??1?$vector@Uwskin@@V?$allocator@Uwskin@@@std@@@std@@QAE@XZ 1002bd30 f i Protobuffs.obj
 0001:0002ad50       ??1?$vector@U_Find_file_handle@filesystem@std@@V?$allocator@U_Find_file_handle@filesystem@std@@@3@@std@@QAE@XZ 1002bd50 f i Config.obj
 0001:0002ad70       ??1?$vector@V?$basic_json@Vmap@std@@Vvector@2@V?$basic_string@DU?$char_traits@D@std@@V?$allocator@D@2@@2@_N_J_KNVallocator@2@Uadl_serializer@nlohmann@@@nlohmann@@V?$allocator@V?$basic_json@Vmap@std@@Vvector@2@V?$basic_string@DU?$char_traits@D@std@@V?$allocator@D@2@@2@_N_J_KNVallocator@2@Uadl_serializer@nlohmann@@@nlohmann@@@std@@@std@@QAE@XZ 1002bd70 f i Config.obj
 0001:0002ad90       ??1?$vector@V?$basic_string@DU?$char_traits@D@std@@V?$allocator@D@2@@std@@V?$allocator@V?$basic_string@DU?$char_traits@D@std@@V?$allocator@D@2@@std@@@2@@std@@QAE@XZ 1002bd90 f i Config.obj
 0001:0002adb0       ??1?$vector@VConfigFile@@V?$allocator@VConfigFile@@@std@@@std@@QAE@XZ 1002bdb0 f i Config.obj
 0001:0002add0       ??1Antiaim@Options2@@QAE@XZ 1002bdd0 f i Config.obj
 0001:0002adf0       ??1ConfigFile@@QAE@XZ      1002bdf0 f i Config.obj
 0001:0002ae10       ??1Effects@Esp@Options2@@QAE@XZ 1002be10 f i Config.obj
 0001:0002ae40       ??1Esp@Options2@@QAE@XZ    1002be40 f i Config.obj
 0001:0002ae70       ??1Legitbot@Options2@@QAE@XZ 1002be70 f i Config.obj
 0001:0002ae90       ??1Medals@Options2@@QAE@XZ 1002be90 f i Config.obj
 0001:0002aeb0       ??1Misc@Options2@@QAE@XZ   1002beb0 f i Config.obj
 0001:0002aee0       ??1Options2@@QAE@XZ        1002bee0 f i Config.obj
 0001:0002afd0       ??1Ragebot@Options2@@QAE@XZ 1002bfd0 f i Config.obj
 0001:0002b000       ??1Trigger@Legitbot@Options2@@QAE@XZ 1002c000 f i Config.obj
 0001:0002b020       ??1_Creator@_Dir_enum_impl@filesystem@std@@QAE@XZ 1002c020 f i Config.obj
 0001:0002b040       ??1_Dir_enum_impl@filesystem@std@@QAE@XZ 1002c040 f i Config.obj
 0001:0002b060       ??1_Directory_entry_proxy@filesystem@std@@QAE@XZ 1002c060 f i Config.obj
 0001:0002b080       ??1_Find_file_handle@filesystem@std@@QAE@XZ 1002c080 f i Config.obj
 0001:0002b0a0       ??1_Recursive_dir_enum_impl@filesystem@std@@QAE@XZ 1002c0a0 f i Config.obj
 0001:0002b0c0       ??1_Sentry_base@?$basic_ostream@DU?$char_traits@D@std@@@std@@QAE@XZ 1002c0c0 f i Config.obj
 0001:0002b130       ??1directory_entry@filesystem@std@@QAE@XZ 1002c130 f i Config.obj
 0001:0002b150       ??1exception@detail@nlohmann@@UAE@XZ 1002c150 f i Config.obj
 0001:0002b170       ??1filesystem_error@filesystem@std@@UAE@XZ 1002c170 f i Config.obj
 0001:0002b1b0       ??1input_stream_adapter@detail@nlohmann@@UAE@XZ 1002c1b0 f i Config.obj
 0001:0002b220       ??1locale@std@@QAE@XZ      1002c220 f i Config.obj
 0001:0002b270       ??1other_error@detail@nlohmann@@UAE@XZ 1002c270 f i Config.obj
 0001:0002b270       ??1parse_error@detail@nlohmann@@UAE@XZ 1002c270 f i Config.obj
 0001:0002b270       ??1type_error@detail@nlohmann@@UAE@XZ 1002c270 f i Config.obj
 0001:0002b270       ??1out_of_range@detail@nlohmann@@UAE@XZ 1002c270 f i Config.obj
 0001:0002b290       ??1path@filesystem@std@@QAE@XZ 1002c290 f i Config.obj
 0001:0002b2b0       ??1sentry@?$basic_ostream@DU?$char_traits@D@std@@@std@@QAE@XZ 1002c2b0 f i Config.obj
 0001:0002b310       ??1system_error@std@@UAE@XZ 1002c310 f i Config.obj
 0001:0002b330       ??4?$basic_json@Vmap@std@@Vvector@2@V?$basic_string@DU?$char_traits@D@std@@V?$allocator@D@2@@2@_N_J_KNVallocator@2@Uadl_serializer@nlohmann@@@nlohmann@@QAEAAV01@V01@@Z 1002c330 f i Config.obj
 0001:0002b390       ??4?$basic_string@DU?$char_traits@D@std@@V?$allocator@D@2@@std@@QAEAAV01@$$QAV01@@Z 1002c390 f i Config.obj
 0001:0002b3d0       ??4?$basic_string@DU?$char_traits@D@std@@V?$allocator@D@2@@std@@QAEAAV01@ABV01@@Z 1002c3d0 f i Config.obj
 0001:0002b410       ??4?$basic_string@DU?$char_traits@D@std@@V?$allocator@D@2@@std@@QAEAAV01@QBD@Z 1002c410 f i Config.obj
 0001:0002b430       ??4?$basic_string@_WU?$char_traits@_W@std@@V?$allocator@_W@2@@std@@QAEAAV01@$$QAV01@@Z 1002c430 f i Config.obj
 0001:0002b470       ??4?$basic_string@_WU?$char_traits@_W@std@@V?$allocator@_W@2@@std@@QAEAAV01@ABV01@@Z 1002c470 f i Config.obj
 0001:0002b4b0       ??4?$shared_ptr@U_Recursive_dir_enum_impl@filesystem@std@@@std@@QAEAAV01@$$QAV01@@Z 1002c4b0 f i Config.obj
 0001:0002b4b0       ??4?$shared_ptr@VColor@@@std@@QAEAAV01@$$QAV01@@Z 1002c4b0 f i Config.obj
 0001:0002b4f0       ??4_Find_file_handle@filesystem@std@@QAEAAU012@$$QAU012@@Z 1002c4f0 f i Config.obj
 0001:0002b540       ??4path@filesystem@std@@QAEAAV012@$$QAV012@@Z 1002c540 f i Config.obj
 0001:0002b560       ??4path@filesystem@std@@QAEAAV012@ABV012@@Z 1002c560 f i Config.obj
 0001:0002b580       ??5nlohmann@@YAAAV?$basic_istream@DU?$char_traits@D@std@@@std@@AAV12@AAV?$basic_json@Vmap@std@@Vvector@2@V?$basic_string@DU?$char_traits@D@std@@V?$allocator@D@2@@2@_N_J_KNVallocator@2@Uadl_serializer@nlohmann@@@0@@Z 1002c580 f i Config.obj
 0001:0002b6a0       ??6nlohmann@@YAAAV?$basic_istream@DU?$char_traits@D@std@@@std@@AAV?$basic_json@Vmap@std@@Vvector@2@V?$basic_string@DU?$char_traits@D@std@@V?$allocator@D@2@@2@_N_J_KNVallocator@2@Uadl_serializer@nlohmann@@@0@AAV12@@Z 1002c6a0 f i Config.obj
 0001:0002b6c0       ??6nlohmann@@YAAAV?$basic_ostream@DU?$char_traits@D@std@@@std@@AAV12@ABV?$basic_json@Vmap@std@@Vvector@2@V?$basic_string@DU?$char_traits@D@std@@V?$allocator@D@2@@2@_N_J_KNVallocator@2@Uadl_serializer@nlohmann@@@0@@Z 1002c6c0 f i Config.obj
 0001:0002b890       ??8?$_Vector_const_iterator@V?$_Vector_val@U?$_Simple_types@U?$pair@VVector@@VQAngle@@@std@@@std@@@std@@@std@@QBE_NABV01@@Z 1002c890 f i grenadetracer.obj
 0001:0002b890       ??8?$_Vector_const_iterator@V?$_Vector_val@U?$_Simple_types@V?$basic_json@Vmap@std@@Vvector@2@V?$basic_string@DU?$char_traits@D@std@@V?$allocator@D@2@@2@_N_J_KNVallocator@2@Uadl_serializer@nlohmann@@@nlohmann@@@std@@@std@@@std@@QBE_NABV01@@Z 1002c890 f i Config.obj
 0001:0002b890       ??8?$_Vector_const_iterator@V?$_Vector_val@U?$_Simple_types@PAVDot@@@std@@@std@@@std@@QBE_NABV01@@Z 1002c890 f i Drops+.obj
 0001:0002b890       ??8?$_Vector_const_iterator@V?$_Vector_val@U?$_Simple_types@H@std@@@std@@@std@@QBE_NABV01@@Z 1002c890 f i Aimbot.obj
 0001:0002b890       ??8?$_Vector_const_iterator@V?$_Vector_val@U?$_Simple_types@VVector@@@std@@@std@@@std@@QBE_NABV01@@Z 1002c890 f i grenadetracer.obj
 0001:0002b890       ??8?$_Vector_const_iterator@V?$_Vector_val@U?$_Simple_types@VConfigFile@@@std@@@std@@@std@@QBE_NABV01@@Z 1002c890 f i Config.obj
 0001:0002b8d0       ??8?$_Deque_unchecked_const_iterator@V?$_Deque_val@U?$_Deque_simple_types@UPlayerRecords@@@std@@@std@@@std@@QBE_NABV01@@Z 1002c8d0 f i LagComp.obj
 0001:0002b8d0       ??8error_category@std@@QBE_NABV01@@Z 1002c8d0 f i Config.obj
 0001:0002b900       ??8filesystem@std@@YA_NABVpath@01@0@Z 1002c900 f i Config.obj
 0001:0002b930       ??8std@@YA_NABVerror_condition@0@0@Z 1002c930 f i Config.obj
 0001:0002b990       ??9?$_Vector_const_iterator@V?$_Vector_val@U?$_Simple_types@VConfigFile@@@std@@@std@@@std@@QBE_NABV01@@Z 1002c990 f i Config.obj
 0001:0002b990       ??9?$_Vector_const_iterator@V?$_Vector_val@U?$_Simple_types@PAVDot@@@std@@@std@@@std@@QBE_NABV01@@Z 1002c990 f i Drops+.obj
 0001:0002b990       ??9?$_Vector_const_iterator@V?$_Vector_val@U?$_Simple_types@V?$basic_json@Vmap@std@@Vvector@2@V?$basic_string@DU?$char_traits@D@std@@V?$allocator@D@2@@2@_N_J_KNVallocator@2@Uadl_serializer@nlohmann@@@nlohmann@@@std@@@std@@@std@@QBE_NABV01@@Z 1002c990 f i Config.obj
 0001:0002b990       ??9?$_Vector_const_iterator@V?$_Vector_val@U?$_Simple_types@H@std@@@std@@@std@@QBE_NABV01@@Z 1002c990 f i Aimbot.obj
 0001:0002b990       ??9?$_Vector_const_iterator@V?$_Vector_val@U?$_Simple_types@U?$pair@VVector@@VQAngle@@@std@@@std@@@std@@@std@@QBE_NABV01@@Z 1002c990 f i grenadetracer.obj
 0001:0002b990       ??9?$_Vector_const_iterator@V?$_Vector_val@U?$_Simple_types@VVector@@@std@@@std@@@std@@QBE_NABV01@@Z 1002c990 f i grenadetracer.obj
 0001:0002b9d0       ??9recursive_directory_iterator@filesystem@std@@QBE_NABV012@@Z 1002c9d0 f i Config.obj
 0001:0002b9f0       ??A?$array@D$0BB@@std@@QBEABDI@Z 1002c9f0 f i Aimbot.obj
 0001:0002b9f0       ??A?$array@D$0EA@@std@@QAEAADI@Z 1002c9f0 f i Config.obj
 0001:0002b9f0       ??A?$array@D$0BJ@@std@@QBEABDI@Z 1002c9f0 f i Aimbot.obj
 0001:0002b9f0       ??A?$array@D$06@std@@QBEABDI@Z 1002c9f0 f i Aimbot.obj
 0001:0002b9f0       ??A?$array@D$05@std@@QBEABDI@Z 1002c9f0 f i Aimbot.obj
 0001:0002b9f0       ??A?$array@D$09@std@@QAEAADI@Z 1002c9f0 f i NetvarManager.obj
 0001:0002b9f0       ??A?$array@E$0BJA@@std@@QBEABEI@Z 1002c9f0 f i Config.obj
 0001:0002b9f0       ??AColor@@QAEAAEH@Z        1002c9f0 f i Config.obj
 0001:0002b9f0       ??A?$array@D$0L@@std@@QBEABDI@Z 1002c9f0 f i Aimbot.obj
 0001:0002b9f0       ??A?$array@D$04@std@@QBEABDI@Z 1002c9f0 f i Aimbot.obj
 0001:0002b9f0       ??A?$array@D$0M@@std@@QAEAADI@Z 1002c9f0 f i Hooks.obj
 0001:0002b9f0       ??A?$array@D$09@std@@QBEABDI@Z 1002c9f0 f i LagComp.obj
 0001:0002b9f0       ??A?$array@D$0CAA@@std@@QAEAADI@Z 1002c9f0 f i Config.obj
 0001:0002b9f0       ??A?$array@D$0O@@std@@QBEABDI@Z 1002c9f0 f i LagComp.obj
 0001:0002ba10       ??A?$basic_json@Vmap@std@@Vvector@2@V?$basic_string@DU?$char_traits@D@std@@V?$allocator@D@2@@2@_N_J_KNVallocator@2@Uadl_serializer@nlohmann@@@nlohmann@@QAEAAV01@ABV?$basic_string@DU?$char_traits@D@std@@V?$allocator@D@2@@std@@@Z 1002ca10 f i Config.obj
 0001:0002bb30       ??A?$basic_string@DU?$char_traits@D@std@@V?$allocator@D@2@@std@@QAEAADI@Z 1002cb30 f i Config.obj
 0001:0002bb30       ??A?$basic_string@DU?$char_traits@D@std@@V?$allocator@D@2@@std@@QBEABDI@Z 1002cb30 f i Config.obj
 0001:0002bb80       ??A?$map@V?$basic_string@DU?$char_traits@D@std@@V?$allocator@D@2@@std@@V?$basic_json@Vmap@std@@Vvector@2@V?$basic_string@DU?$char_traits@D@std@@V?$allocator@D@2@@2@_N_J_KNVallocator@2@Uadl_serializer@nlohmann@@@nlohmann@@U?$less@X@2@V?$allocator@U?$pair@$$CBV?$basic_string@DU?$char_traits@D@std@@V?$allocator@D@2@@std@@V?$basic_json@Vmap@std@@Vvector@2@V?$basic_string@DU?$char_traits@D@std@@V?$allocator@D@2@@2@_N_J_KNVallocator@2@Uadl_serializer@nlohmann@@@nlohmann@@@std@@@2@@std@@QAEAAV?$basic_json@Vmap@std@@Vvector@2@V?$basic_string@DU?$char_traits@D@std@@V?$allocator@D@2@@2@_N_J_KNVallocator@2@Uadl_serializer@nlohmann@@@nlohmann@@$$QAV?$basic_string@DU?$char_traits@D@std@@V?$allocator@D@2@@1@@Z 1002cb80 f i Config.obj
 0001:0002bbb0       ??A?$map@V?$basic_string@DU?$char_traits@D@std@@V?$allocator@D@2@@std@@V?$basic_json@Vmap@std@@Vvector@2@V?$basic_string@DU?$char_traits@D@std@@V?$allocator@D@2@@2@_N_J_KNVallocator@2@Uadl_serializer@nlohmann@@@nlohmann@@U?$less@X@2@V?$allocator@U?$pair@$$CBV?$basic_string@DU?$char_traits@D@std@@V?$allocator@D@2@@std@@V?$basic_json@Vmap@std@@Vvector@2@V?$basic_string@DU?$char_traits@D@std@@V?$allocator@D@2@@2@_N_J_KNVallocator@2@Uadl_serializer@nlohmann@@@nlohmann@@@std@@@2@@std@@QAEAAV?$basic_json@Vmap@std@@Vvector@2@V?$basic_string@DU?$char_traits@D@std@@V?$allocator@D@2@@2@_N_J_KNVallocator@2@Uadl_serializer@nlohmann@@@nlohmann@@ABV?$basic_string@DU?$char_traits@D@std@@V?$allocator@D@2@@1@@Z 1002cbb0 f i Config.obj
 0001:0002bbe0       ??B?$Var@VColor@@@@QAE?AVColor@@XZ 1002cbe0 f i Config.obj
 0001:0002bc10       ??B?$Var@VColor@@@@QAEPAVColor@@XZ 1002cc10 f i Config.obj
 0001:0002bc30       ??B?$basic_json@Vmap@std@@Vvector@2@V?$basic_string@DU?$char_traits@D@std@@V?$allocator@D@2@@2@_N_J_KNVallocator@2@Uadl_serializer@nlohmann@@@nlohmann@@QBE?AW4value_t@detail@1@XZ 1002cc30 f i Config.obj
 0001:0002bc40       ??B?$basic_string@_WU?$char_traits@_W@std@@V?$allocator@_W@2@@std@@QBE?AV?$basic_string_view@_WU?$char_traits@_W@std@@@1@XZ 1002cc40 f i Config.obj
 0001:0002bca0       ??B?$fpos@U_Mbstatet@@@std@@QBE_JXZ 1002cca0 f i Config.obj
 0001:0002bcd0       ??B?$function@$$A6AXXZ@std@@QBE_NXZ 1002ccd0 f i Input.obj
 0001:0002bcd0       ??B?$function@$$A6A_NHW4parse_event_t@?$parser@V?$basic_json@Vmap@std@@Vvector@2@V?$basic_string@DU?$char_traits@D@std@@V?$allocator@D@2@@2@_N_J_KNVallocator@2@Uadl_serializer@nlohmann@@@nlohmann@@@detail@nlohmann@@AAV?$basic_json@Vmap@std@@Vvector@2@V?$basic_string@DU?$char_traits@D@std@@V?$allocator@D@2@@2@_N_J_KNVallocator@2@Uadl_serializer@nlohmann@@@4@@Z@std@@QBE_NXZ 1002ccd0 f i Config.obj
 0001:0002bd00       ??Binput_adapter@detail@nlohmann@@QAE?AV?$shared_ptr@Uinput_adapter_protocol@detail@nlohmann@@@std@@XZ 1002cd00 f i Config.obj
 0001:0002bd00       ??B?$output_adapter@D@detail@nlohmann@@QAE?AV?$shared_ptr@U?$output_adapter_protocol@D@detail@nlohmann@@@std@@XZ 1002cd00 f i Config.obj
 0001:0002bd30       ?path@directory_entry@filesystem@std@@QBEABV023@XZ 1002cd30 f i Config.obj
 0001:0002bd30       ??Bdirectory_entry@filesystem@std@@QBEABVpath@12@XZ 1002cd30 f i Config.obj
 0001:0002bd30       ?get_entity_spawn_time@c_cs_inferno@@QAEAAMXZ 1002cd30 f i Hooks.obj
 0001:0002bd50       ??Berror_code@std@@QBE_NXZ 1002cd50 f i Config.obj
 0001:0002bd80       ??Bsentry@?$basic_ostream@_WU?$char_traits@_W@std@@@std@@QBE_NXZ 1002cd80 f i Hooks.obj
 0001:0002bd80       ??Bsentry@?$basic_ostream@DU?$char_traits@D@std@@@std@@QBE_NXZ 1002cd80 f i Config.obj
 0001:0002bda0       ??C?$_Tree_const_iterator@V?$_Tree_val@U?$_Tree_simple_types@U?$pair@$$CBV?$basic_string@DU?$char_traits@D@std@@V?$allocator@D@2@@std@@V?$basic_json@Vmap@std@@Vvector@2@V?$basic_string@DU?$char_traits@D@std@@V?$allocator@D@2@@2@_N_J_KNVallocator@2@Uadl_serializer@nlohmann@@@nlohmann@@@std@@@std@@@std@@@std@@QBEPBU?$pair@$$CBV?$basic_string@DU?$char_traits@D@std@@V?$allocator@D@2@@std@@V?$basic_json@Vmap@std@@Vvector@2@V?$basic_string@DU?$char_traits@D@std@@V?$allocator@D@2@@2@_N_J_KNVallocator@2@Uadl_serializer@nlohmann@@@nlohmann@@@1@XZ 1002cda0 f i Config.obj
 0001:0002bdc0       ??C?$_Vector_const_iterator@V?$_Vector_val@U?$_Simple_types@U?$pair@VVector@@VQAngle@@@std@@@std@@@std@@@std@@QBEPBU?$pair@VVector@@VQAngle@@@1@XZ 1002cdc0 f i grenadetracer.obj
 0001:0002bdc0       ?GetTrampoline@?$cDetour@P6EXPAXAAVIRecipientFilter@@HHPBDI2MHMHHPBVVector@@30_NMHH@Z@@QBEP6EXPAXAAVIRecipientFilter@@HHPBDI2MHMHHPBVVector@@30_NMHH@ZXZ 1002cdc0 f i Hooks.obj
 0001:0002bdc0       ?_Unchecked_begin@?$vector@DV?$allocator@D@std@@@std@@QBEPBDXZ 1002cdc0 f i Config.obj
 0001:0002bdc0       ?_Unchecked_begin@?$vector@UField@@V?$allocator@UField@@@std@@@std@@QAEPAUField@@XZ 1002cdc0 f i Protobuffs.obj
 0001:0002bdc0       ?begin@?$initializer_list@V?$json_ref@V?$basic_json@Vmap@std@@Vvector@2@V?$basic_string@DU?$char_traits@D@std@@V?$allocator@D@2@@2@_N_J_KNVallocator@2@Uadl_serializer@nlohmann@@@nlohmann@@@detail@nlohmann@@@std@@QBEPBV?$json_ref@V?$basic_json@Vmap@std@@Vvector@2@V?$basic_string@DU?$char_traits@D@std@@V?$allocator@D@2@@2@_N_J_KNVallocator@2@Uadl_serializer@nlohmann@@@nlohmann@@@detail@nlohmann@@XZ 1002cdc0 f i tab_Login.obj
 0001:0002bdc0       ?get@?$_Ptr_base@Uinput_adapter_protocol@detail@nlohmann@@@std@@IBEPAUinput_adapter_protocol@detail@nlohmann@@XZ 1002cdc0 f i Config.obj
 0001:0002bdc0       ?GetTrampoline@?$cDetour@P6GXW4ClientFrameStage_t@@@Z@@QBEP6GXW4ClientFrameStage_t@@@ZXZ 1002cdc0 f i Hooks.obj
 0001:0002bdc0       ??C?$GenericMemberIterator@$0A@U?$UTF8@D@rapidjson@@V?$MemoryPoolAllocator@VCrtAllocator@rapidjson@@@2@@rapidjson@@QBEPAU?$GenericMember@U?$UTF8@D@rapidjson@@V?$MemoryPoolAllocator@VCrtAllocator@rapidjson@@@2@@1@XZ 1002cdc0 f i http.obj
 0001:0002bdc0       ?_Unchecked_begin@?$vector@U?$pair@V?$basic_string@DU?$char_traits@D@std@@V?$allocator@D@2@@std@@VColor@@@std@@V?$allocator@U?$pair@V?$basic_string@DU?$char_traits@D@std@@V?$allocator@D@2@@std@@VColor@@@std@@@2@@std@@QAEPAU?$pair@V?$basic_string@DU?$char_traits@D@std@@V?$allocator@D@2@@std@@VColor@@@2@XZ 1002cdc0 f i Visuals.obj
 0001:0002bdc0       ??B?$GenericStringRef@D@rapidjson@@QBEPBDXZ 1002cdc0 f i http.obj
 0001:0002bdc0       ?_Unchecked_begin@?$vector@V?$basic_string@DU?$char_traits@D@std@@V?$allocator@D@2@@std@@V?$allocator@V?$basic_string@DU?$char_traits@D@std@@V?$allocator@D@2@@std@@@2@@std@@QAEPAV?$basic_string@DU?$char_traits@D@std@@V?$allocator@D@2@@2@XZ 1002cdc0 f i Drop.obj
 0001:0002bdc0       ??D?$_Vector_const_iterator@V?$_Vector_val@U?$_Simple_types@VVector@@@std@@@std@@@std@@QBEABVVector@@XZ 1002cdc0 f i grenadetracer.obj
 0001:0002bdc0       ?GetTrampoline@?$cDetour@P6EXPAXPAVIMatRenderContext@@ABUDrawModelState_t@@ABUModelRenderInfo_t@@PAVmatrix3x4_t@@@Z@@QBEP6EXPAXPAVIMatRenderContext@@ABUDrawModelState_t@@ABUModelRenderInfo_t@@PAVmatrix3x4_t@@@ZXZ 1002cdc0 f i Hooks.obj
 0001:0002bdc0       ?_Unchecked_begin@?$vector@V?$vector@UField@@V?$allocator@UField@@@std@@@std@@V?$allocator@V?$vector@UField@@V?$allocator@UField@@@std@@@std@@@2@@std@@QAEPAV?$vector@UField@@V?$allocator@UField@@@std@@@2@XZ 1002cdc0 f i Protobuffs.obj
 0001:0002bdc0       ?type@file_status@filesystem@std@@QBE?AW4file_type@23@XZ 1002cdc0 f i Config.obj
 0001:0002bdc0       ??D?$_Vector_const_iterator@V?$_Vector_val@U?$_Simple_types@PAVDot@@@std@@@std@@@std@@QBEABQAVDot@@XZ 1002cdc0 f i Drops+.obj
 0001:0002bdc0       ?GetTrampoline@?$cDetour@P6EXPAXPAD@Z@@QBEP6EXPAXPAD@ZXZ 1002cdc0 f i Hooks.obj
 0001:0002bdc0       ??C?$_Vector_const_iterator@V?$_Vector_val@U?$_Simple_types@VConfigFile@@@std@@@std@@@std@@QBEPBVConfigFile@@XZ 1002cdc0 f i Config.obj
 0001:0002bdc0       ?_Unwrapped@?$_Array_const_iterator@D$0EA@@std@@QBEPBDXZ 1002cdc0 f i Config.obj
 0001:0002bdc0       ?begin@?$initializer_list@H@std@@QBEPBHXZ 1002cdc0 f i Config.obj
 0001:0002bdc0       ?GetTrampoline@?$cDetour@P6IXPAX0PAVCViewSetup@@@Z@@QBEP6IXPAX0PAVCViewSetup@@@ZXZ 1002cdc0 f i Hooks.obj
 0001:0002bdc0       ?get@?$_Ptr_base@U?$output_adapter_protocol@D@detail@nlohmann@@@std@@IBEPAU?$output_adapter_protocol@D@detail@nlohmann@@XZ 1002cdc0 f i Config.obj
 0001:0002bdc0       ?GetTrampoline@?$cDetour@P6IXPAX0@Z@@QBEP6IXPAX0@ZXZ 1002cdc0 f i Hooks.obj
 0001:0002bdc0       ?_Unchecked_begin@?$vector@HV?$allocator@H@std@@@std@@QAEPAHXZ 1002cdc0 f i Aimbot.obj
 0001:0002bdc0       ?GetMainWindow@InputSys@@QBEPAUHWND__@@XZ 1002cdc0 f i Hooks.obj
 0001:0002bdc0       ?GetTrampoline@?$cDetour@P6I_NPAVIClientMode@@PAXMPAVCUserCmd@@@Z@@QBEP6I_NPAVIClientMode@@PAXMPAVCUserCmd@@@ZXZ 1002cdc0 f i Hooks.obj
 0001:0002bdc0       ?GetTrampoline@?$cDetour@P6E_NPAXPAVIGameEvent@@@Z@@QBEP6E_NPAXPAVIGameEvent@@@ZXZ 1002cdc0 f i Hooks.obj
 0001:0002bdc0       ?data@?$basic_string_view@_WU?$char_traits@_W@std@@@std@@QBEPB_WXZ 1002cdc0 f i Config.obj
 0001:0002bdc0       ?GetRawColor@Color@@QBEHXZ 1002cdc0 f i Controls.obj
 0001:0002bdc0       ?GetTrampoline@?$cDetour@P6IXPAVISurface@@PAX@Z@@QBEP6IXPAVISurface@@PAX@ZXZ 1002cdc0 f i Hooks.obj
 0001:0002bdc0       ?GetTrampoline@?$cDetour@P6GMXZ@@QBEP6GMXZXZ 1002cdc0 f i Hooks.obj
 0001:0002bdc0       ??C?$unique_ptr@VNetvarDatabase@@U?$default_delete@VNetvarDatabase@@@std@@@std@@QBEPAVNetvarDatabase@@XZ 1002cdc0 f i NetvarManager.obj
 0001:0002bdc0       ?GetTrampoline@?$cDetour@P6GXPAUIDirect3DDevice9@@@Z@@QBEP6GXPAUIDirect3DDevice9@@@ZXZ 1002cdc0 f i Hooks.obj
 0001:0002bdc0       ?begin@?$initializer_list@I@std@@QBEPBIXZ 1002cdc0 f i Protobuffs.obj
 0001:0002bdc0       ??C?$GenericMemberIterator@$00U?$UTF8@D@rapidjson@@V?$MemoryPoolAllocator@VCrtAllocator@rapidjson@@@2@@rapidjson@@QBEPBU?$GenericMember@U?$UTF8@D@rapidjson@@V?$MemoryPoolAllocator@VCrtAllocator@rapidjson@@@2@@1@XZ 1002cdc0 f i http.obj
 0001:0002bdc0       ?GetAllocator@?$Stack@VCrtAllocator@rapidjson@@@internal@rapidjson@@QAEAAVCrtAllocator@3@XZ 1002cdc0 f i http.obj
 0001:0002bdc0       ?GetTrampoline@?$cDetour@P6EXPAXI_N1@Z@@QBEP6EXPAXI_N1@ZXZ 1002cdc0 f i Hooks.obj
 0001:0002bdc0       ?begin@?$initializer_list@V?$basic_string@DU?$char_traits@D@std@@V?$allocator@D@2@@std@@@std@@QBEPBV?$basic_string@DU?$char_traits@D@std@@V?$allocator@D@2@@2@XZ 1002cdc0 f i NetvarManager.obj
 0001:0002bdc0       ??D?$_Vector_const_iterator@V?$_Vector_val@U?$_Simple_types@V?$basic_string@DU?$char_traits@D@std@@V?$allocator@D@2@@std@@@std@@@std@@@std@@QBEABV?$basic_string@DU?$char_traits@D@std@@V?$allocator@D@2@@1@XZ 1002cdc0 f i NetvarManager.obj
 0001:0002bdc0       ?begin@?$initializer_list@Uwskin@@@std@@QBEPBUwskin@@XZ 1002cdc0 f i Protobuffs.obj
 0001:0002bdc0       ?get@?$unique_ptr@UNetvarTable@@U?$default_delete@UNetvarTable@@@std@@@std@@QBEPAUNetvarTable@@XZ 1002cdc0 f i NetvarManager.obj
 0001:0002bdc0       ?_Unchecked_begin@?$vector@U?$pair@HPBD@std@@V?$allocator@U?$pair@HPBD@std@@@2@@std@@QAEPAU?$pair@HPBD@2@XZ 1002cdc0 f i tab_Legitbot.obj
 0001:0002bdc0       ?begin@?$initializer_list@U?$pair@HPBD@std@@@std@@QBEPBU?$pair@HPBD@2@XZ 1002cdc0 f i Config.obj
 0001:0002bdc0       ?_Unchecked_begin@?$vector@PBDV?$allocator@PBD@std@@@std@@QAEPAPBDXZ 1002cdc0 f i Hooks.obj
 0001:0002bdc0       ?get@?$unique_ptr@$$BY0A@_WU?$default_delete@$$BY0A@_W@std@@@std@@QBEPA_WXZ 1002cdc0 f i grenadetracer.obj
 0001:0002bdc0       ??D?$_Vector_const_iterator@V?$_Vector_val@U?$_Simple_types@V?$basic_json@Vmap@std@@Vvector@2@V?$basic_string@DU?$char_traits@D@std@@V?$allocator@D@2@@2@_N_J_KNVallocator@2@Uadl_serializer@nlohmann@@@nlohmann@@@std@@@std@@@std@@QBEABV?$basic_json@Vmap@std@@Vvector@2@V?$basic_string@DU?$char_traits@D@std@@V?$allocator@D@2@@2@_N_J_KNVallocator@2@Uadl_serializer@nlohmann@@@nlohmann@@XZ 1002cdc0 f i Config.obj
 0001:0002bdc0       ?value@error_code@std@@QBEHXZ 1002cdc0 f i Config.obj
 0001:0002bdc0       ?begin@?$initializer_list@PBD@std@@QBEPBQBDXZ 1002cdc0 f i Hooks.obj
 0001:0002bdc0       ?get@?$_Ptr_base@VColor@@@std@@IBEPAVColor@@XZ 1002cdc0 f i Config.obj
 0001:0002bdc0       ?GetTrampoline@?$cDetour@P6GJPAUIDirect3DDevice9@@PBUtagRECT@@1PAUHWND__@@PBU_RGNDATA@@@Z@@QBEP6GJPAUIDirect3DDevice9@@PBUtagRECT@@1PAUHWND__@@PBU_RGNDATA@@@ZXZ 1002cdc0 f i Hooks.obj
 0001:0002bdc0       ?value@error_condition@std@@QBEHXZ 1002cdc0 f i Config.obj
 0001:0002bdc0       ?base@?$reverse_iterator@PB_W@std@@QBEPB_WXZ 1002cdc0 f i Config.obj
 0001:0002bdc0       ??C?$unique_ptr@UNetvarTable@@U?$default_delete@UNetvarTable@@@std@@@std@@QBEPAUNetvarTable@@XZ 1002cdc0 f i NetvarManager.obj
 0001:0002bdc0       ?get@?$_Ptr_base@U_Recursive_dir_enum_impl@filesystem@std@@@std@@IBEPAU_Recursive_dir_enum_impl@filesystem@2@XZ 1002cdc0 f i Config.obj
 0001:0002bdc0       ?_Unchecked_begin@?$vector@U?$pair@HPBD@std@@V?$allocator@U?$pair@HPBD@std@@@2@@std@@QBEPBU?$pair@HPBD@2@XZ 1002cdc0 f i Config.obj
 0001:0002bdc0       ?GetTrampoline@?$cDetour@P6GJPAUIDirect3DDevice9@@PAU_D3DPRESENT_PARAMETERS_@@@Z@@QBEP6GJPAUIDirect3DDevice9@@PAU_D3DPRESENT_PARAMETERS_@@@ZXZ 1002cdc0 f i Hooks.obj
 0001:0002bdc0       ?data@?$basic_string_view@DU?$char_traits@D@std@@@std@@QBEPBDXZ 1002cdc0 f i Config.obj
 0001:0002bdd0       ??C?$_Vector_iterator@V?$_Vector_val@U?$_Simple_types@VConfigFile@@@std@@@std@@@std@@QBEPAVConfigFile@@XZ 1002cdd0 f i Config.obj
 0001:0002bdd0       ??C?$_Vector_iterator@V?$_Vector_val@U?$_Simple_types@U?$pair@VVector@@VQAngle@@@std@@@std@@@std@@@std@@QBEPAU?$pair@VVector@@VQAngle@@@1@XZ 1002cdd0 f i grenadetracer.obj
 0001:0002bdf0       ??Crecursive_directory_iterator@filesystem@std@@QBEPBVdirectory_entry@12@XZ 1002cdf0 f i Config.obj
 0001:0002be10       ??D?$_Tree_const_iterator@V?$_Tree_val@U?$_Tree_simple_types@U?$pair@$$CBV?$basic_string@DU?$char_traits@D@std@@V?$allocator@D@2@@std@@V?$basic_json@Vmap@std@@Vvector@2@V?$basic_string@DU?$char_traits@D@std@@V?$allocator@D@2@@2@_N_J_KNVallocator@2@Uadl_serializer@nlohmann@@@nlohmann@@@std@@@std@@@std@@@std@@QBEABU?$pair@$$CBV?$basic_string@DU?$char_traits@D@std@@V?$allocator@D@2@@std@@V?$basic_json@Vmap@std@@Vvector@2@V?$basic_string@DU?$char_traits@D@std@@V?$allocator@D@2@@2@_N_J_KNVallocator@2@Uadl_serializer@nlohmann@@@nlohmann@@@1@XZ 1002ce10 f i Config.obj
 0001:0002be10       ??D?$_Tree_const_iterator@V?$_Tree_val@U?$_Tree_simple_types@U?$pair@QAXU?$pair@V?$basic_string@DU?$char_traits@D@std@@V?$allocator@D@2@@std@@V?$vector@V?$basic_string@DU?$char_traits@D@std@@V?$allocator@D@2@@std@@V?$allocator@V?$basic_string@DU?$char_traits@D@std@@V?$allocator@D@2@@std@@@2@@2@@std@@@std@@@std@@@std@@@std@@QBEABU?$pair@QAXU?$pair@V?$basic_string@DU?$char_traits@D@std@@V?$allocator@D@2@@std@@V?$vector@V?$basic_string@DU?$char_traits@D@std@@V?$allocator@D@2@@std@@V?$allocator@V?$basic_string@DU?$char_traits@D@std@@V?$allocator@D@2@@std@@@2@@2@@std@@@1@XZ 1002ce10 f i NetvarManager.obj
 0001:0002be30       ??D?$reverse_iterator@PB_W@std@@QBEAB_WXZ 1002ce30 f i Config.obj
 0001:0002be60       ??Drecursive_directory_iterator@filesystem@std@@QBEABVdirectory_entry@12@XZ 1002ce60 f i Config.obj
 0001:0002be80       ??E?$_Tree_const_iterator@V?$_Tree_val@U?$_Tree_simple_types@U?$pair@$$CBV?$basic_string@DU?$char_traits@D@std@@V?$allocator@D@2@@std@@V?$basic_json@Vmap@std@@Vvector@2@V?$basic_string@DU?$char_traits@D@std@@V?$allocator@D@2@@2@_N_J_KNVallocator@2@Uadl_serializer@nlohmann@@@nlohmann@@@std@@@std@@@std@@@std@@QAEAAV01@XZ 1002ce80 f i Config.obj
 0001:0002be80       ??E?$_Tree_const_iterator@V?$_Tree_val@U?$_Tree_simple_types@U?$pair@QAXU?$pair@V?$basic_string@DU?$char_traits@D@std@@V?$allocator@D@2@@std@@V?$vector@V?$basic_string@DU?$char_traits@D@std@@V?$allocator@D@2@@std@@V?$allocator@V?$basic_string@DU?$char_traits@D@std@@V?$allocator@D@2@@std@@@2@@2@@std@@@std@@@std@@@std@@@std@@QAEAAV01@XZ 1002ce80 f i NetvarManager.obj
 0001:0002bea0       ??E?$_Tree_unchecked_const_iterator@V?$_Tree_val@U?$_Tree_simple_types@U?$pair@$$CBV?$basic_string@DU?$char_traits@D@std@@V?$allocator@D@2@@std@@V?$basic_json@Vmap@std@@Vvector@2@V?$basic_string@DU?$char_traits@D@std@@V?$allocator@D@2@@2@_N_J_KNVallocator@2@Uadl_serializer@nlohmann@@@nlohmann@@@std@@@std@@@std@@U_Iterator_base0@2@@std@@QAEAAV01@XZ 1002cea0 f i Config.obj
 0001:0002bea0       ??E?$_Tree_unchecked_const_iterator@V?$_Tree_val@U?$_Tree_simple_types@U?$pair@QAXU?$pair@V?$basic_string@DU?$char_traits@D@std@@V?$allocator@D@2@@std@@V?$vector@V?$basic_string@DU?$char_traits@D@std@@V?$allocator@D@2@@std@@V?$allocator@V?$basic_string@DU?$char_traits@D@std@@V?$allocator@D@2@@std@@@2@@2@@std@@@std@@@std@@@std@@U_Iterator_base0@2@@std@@QAEAAV01@XZ 1002cea0 f i NetvarManager.obj
 0001:0002bf10       ??E?$_Vector_const_iterator@V?$_Vector_val@U?$_Simple_types@V?$basic_json@Vmap@std@@Vvector@2@V?$basic_string@DU?$char_traits@D@std@@V?$allocator@D@2@@2@_N_J_KNVallocator@2@Uadl_serializer@nlohmann@@@nlohmann@@@std@@@std@@@std@@QAEAAV01@XZ 1002cf10 f i Config.obj
 0001:0002bf30       ??E?$_Vector_const_iterator@V?$_Vector_val@U?$_Simple_types@VConfigFile@@@std@@@std@@@std@@QAEAAV01@XZ 1002cf30 f i Config.obj
 0001:0002bf50       ??E?$_Vector_iterator@V?$_Vector_val@U?$_Simple_types@VConfigFile@@@std@@@std@@@std@@QAE?AV01@H@Z 1002cf50 f i Config.obj
 0001:0002bf80       ??E?$reverse_iterator@PB_W@std@@QAEAAV01@XZ 1002cf80 f i Config.obj
 0001:0002bfa0       ??Erecursive_directory_iterator@filesystem@std@@QAE?AU_Directory_entry_proxy@12@H@Z 1002cfa0 f i Config.obj
 0001:0002c040       ??Erecursive_directory_iterator@filesystem@std@@QAEAAV012@XZ 1002d040 f i Config.obj
 0001:0002c080       ??G?$_Vector_const_iterator@V?$_Vector_val@U?$_Simple_types@V?$basic_json@Vmap@std@@Vvector@2@V?$basic_string@DU?$char_traits@D@std@@V?$allocator@D@2@@2@_N_J_KNVallocator@2@Uadl_serializer@nlohmann@@@nlohmann@@@std@@@std@@@std@@QBE?AV01@H@Z 1002d080 f i Config.obj
 0001:0002c0b0       ??H?$_String_iterator@V?$_String_val@U?$_Simple_types@D@std@@@std@@@std@@QBE?AV01@H@Z 1002d0b0 f i Drop.obj
 0001:0002c0b0       ??H?$_Array_iterator@D$0EA@@std@@QBE?AV01@H@Z 1002d0b0 f i Config.obj
 0001:0002c0e0       ??I@YA?AW4__std_fs_file_attr@@W40@0@Z 1002d0e0 f i Config.obj
 0001:0002c0e0       ??Ifilesystem@std@@YA?AW4directory_options@01@W4201@0@Z 1002d0e0 f i Config.obj
 0001:0002c0f0       ??R<lambda_1>@?1???$create@V?$basic_string@DU?$char_traits@D@std@@V?$allocator@D@2@@std@@AAY00$$CBD@?$basic_json@Vmap@std@@Vvector@2@V?$basic_string@DU?$char_traits@D@std@@V?$allocator@D@2@@2@_N_J_KNVallocator@2@Uadl_serializer@nlohmann@@@nlohmann@@CAPAV?$basic_string@DU?$char_traits@D@std@@V?$allocator@D@2@@std@@AAY00$$CBD@Z@QBEXPAV34@@Z 1002d0f0 f i Config.obj
 0001:0002c0f0       ??R<lambda_1>@?1???$create@V?$basic_string@DU?$char_traits@D@std@@V?$allocator@D@2@@std@@AAY04$$CBD@?$basic_json@Vmap@std@@Vvector@2@V?$basic_string@DU?$char_traits@D@std@@V?$allocator@D@2@@2@_N_J_KNVallocator@2@Uadl_serializer@nlohmann@@@nlohmann@@CAPAV?$basic_string@DU?$char_traits@D@std@@V?$allocator@D@2@@std@@AAY04$$CBD@Z@QBEXPAV34@@Z 1002d0f0 f i tab_Login.obj
 0001:0002c0f0       ??R<lambda_1>@?1???$create@V?$basic_string@DU?$char_traits@D@std@@V?$allocator@D@2@@std@@V12@@?$basic_json@Vmap@std@@Vvector@2@V?$basic_string@DU?$char_traits@D@std@@V?$allocator@D@2@@2@_N_J_KNVallocator@2@Uadl_serializer@nlohmann@@@nlohmann@@CAPAV?$basic_string@DU?$char_traits@D@std@@V?$allocator@D@2@@std@@$$QAV34@@Z@QBEXPAV34@@Z 1002d0f0 f i Config.obj
 0001:0002c0f0       ??R<lambda_1>@?1???$create@V?$basic_string@DU?$char_traits@D@std@@V?$allocator@D@2@@std@@AAY0PP@$$CBD@?$basic_json@Vmap@std@@Vvector@2@V?$basic_string@DU?$char_traits@D@std@@V?$allocator@D@2@@2@_N_J_KNVallocator@2@Uadl_serializer@nlohmann@@@nlohmann@@CAPAV?$basic_string@DU?$char_traits@D@std@@V?$allocator@D@2@@std@@AAY0PP@$$CBD@Z@QBEXPAV34@@Z 1002d0f0 f i tab_Login.obj
 0001:0002c0f0       ??R<lambda_1>@?1???$create@V?$basic_string@DU?$char_traits@D@std@@V?$allocator@D@2@@std@@ABV12@@?$basic_json@Vmap@std@@Vvector@2@V?$basic_string@DU?$char_traits@D@std@@V?$allocator@D@2@@2@_N_J_KNVallocator@2@Uadl_serializer@nlohmann@@@nlohmann@@CAPAV?$basic_string@DU?$char_traits@D@std@@V?$allocator@D@2@@std@@ABV34@@Z@QBEXPAV34@@Z 1002d0f0 f i Config.obj
 0001:0002c120       ??R<lambda_1>@?1???$create@V?$map@V?$basic_string@DU?$char_traits@D@std@@V?$allocator@D@2@@std@@V?$basic_json@Vmap@std@@Vvector@2@V?$basic_string@DU?$char_traits@D@std@@V?$allocator@D@2@@2@_N_J_KNVallocator@2@Uadl_serializer@nlohmann@@@nlohmann@@U?$less@X@2@V?$allocator@U?$pair@$$CBV?$basic_string@DU?$char_traits@D@std@@V?$allocator@D@2@@std@@V?$basic_json@Vmap@std@@Vvector@2@V?$basic_string@DU?$char_traits@D@std@@V?$allocator@D@2@@2@_N_J_KNVallocator@2@Uadl_serializer@nlohmann@@@nlohmann@@@std@@@2@@std@@$$V@?$basic_json@Vmap@std@@Vvector@2@V?$basic_string@DU?$char_traits@D@std@@V?$allocator@D@2@@2@_N_J_KNVallocator@2@Uadl_serializer@nlohmann@@@nlohmann@@CAPAV?$map@V?$basic_string@DU?$char_traits@D@std@@V?$allocator@D@2@@std@@V?$basic_json@Vmap@std@@Vvector@2@V?$basic_string@DU?$char_traits@D@std@@V?$allocator@D@2@@2@_N_J_KNVallocator@2@Uadl_serializer@nlohmann@@@nlohmann@@U?$less@X@2@V?$allocator@U?$pair@$$CBV?$basic_string@DU?$char_traits@D@std@@V?$allocator@D@2@@std@@V?$basic_json@Vmap@std@@Vvector@2@V?$basic_string@DU?$char_traits@D@std@@V?$allocator@D@2@@2@_N_J_KNVallocator@2@Uadl_serializer@nlohmann@@@nlohmann@@@std@@@2@@std@@XZ@QBEXPAV34@@Z 1002d120 f i Config.obj
 0001:0002c120       ??R<lambda_1>@?1???$create@V?$map@V?$basic_string@DU?$char_traits@D@std@@V?$allocator@D@2@@std@@V?$basic_json@Vmap@std@@Vvector@2@V?$basic_string@DU?$char_traits@D@std@@V?$allocator@D@2@@2@_N_J_KNVallocator@2@Uadl_serializer@nlohmann@@@nlohmann@@U?$less@X@2@V?$allocator@U?$pair@$$CBV?$basic_string@DU?$char_traits@D@std@@V?$allocator@D@2@@std@@V?$basic_json@Vmap@std@@Vvector@2@V?$basic_string@DU?$char_traits@D@std@@V?$allocator@D@2@@2@_N_J_KNVallocator@2@Uadl_serializer@nlohmann@@@nlohmann@@@std@@@2@@std@@ABV12@@?$basic_json@Vmap@std@@Vvector@2@V?$basic_string@DU?$char_traits@D@std@@V?$allocator@D@2@@2@_N_J_KNVallocator@2@Uadl_serializer@nlohmann@@@nlohmann@@CAPAV?$map@V?$basic_string@DU?$char_traits@D@std@@V?$allocator@D@2@@std@@V?$basic_json@Vmap@std@@Vvector@2@V?$basic_string@DU?$char_traits@D@std@@V?$allocator@D@2@@2@_N_J_KNVallocator@2@Uadl_serializer@nlohmann@@@nlohmann@@U?$less@X@2@V?$allocator@U?$pair@$$CBV?$basic_string@DU?$char_traits@D@std@@V?$allocator@D@2@@std@@V?$basic_json@Vmap@std@@Vvector@2@V?$basic_string@DU?$char_traits@D@std@@V?$allocator@D@2@@2@_N_J_KNVallocator@2@Uadl_serializer@nlohmann@@@nlohmann@@@std@@@2@@std@@ABV34@@Z@QBEXPAV34@@Z 1002d120 f i tab_Login.obj
 0001:0002c150       ??R<lambda_1>@?1???$create@V?$vector@V?$basic_json@Vmap@std@@Vvector@2@V?$basic_string@DU?$char_traits@D@std@@V?$allocator@D@2@@2@_N_J_KNVallocator@2@Uadl_serializer@nlohmann@@@nlohmann@@V?$allocator@V?$basic_json@Vmap@std@@Vvector@2@V?$basic_string@DU?$char_traits@D@std@@V?$allocator@D@2@@2@_N_J_KNVallocator@2@Uadl_serializer@nlohmann@@@nlohmann@@@std@@@std@@$$V@?$basic_json@Vmap@std@@Vvector@2@V?$basic_string@DU?$char_traits@D@std@@V?$allocator@D@2@@2@_N_J_KNVallocator@2@Uadl_serializer@nlohmann@@@nlohmann@@CAPAV?$vector@V?$basic_json@Vmap@std@@Vvector@2@V?$basic_string@DU?$char_traits@D@std@@V?$allocator@D@2@@2@_N_J_KNVallocator@2@Uadl_serializer@nlohmann@@@nlohmann@@V?$allocator@V?$basic_json@Vmap@std@@Vvector@2@V?$basic_string@DU?$char_traits@D@std@@V?$allocator@D@2@@2@_N_J_KNVallocator@2@Uadl_serializer@nlohmann@@@nlohmann@@@std@@@std@@XZ@QBEXPAV34@@Z 1002d150 f i Config.obj
 0001:0002c150       ??R<lambda_1>@?1???$create@V?$vector@V?$basic_json@Vmap@std@@Vvector@2@V?$basic_string@DU?$char_traits@D@std@@V?$allocator@D@2@@2@_N_J_KNVallocator@2@Uadl_serializer@nlohmann@@@nlohmann@@V?$allocator@V?$basic_json@Vmap@std@@Vvector@2@V?$basic_string@DU?$char_traits@D@std@@V?$allocator@D@2@@2@_N_J_KNVallocator@2@Uadl_serializer@nlohmann@@@nlohmann@@@std@@@std@@ABV12@@?$basic_json@Vmap@std@@Vvector@2@V?$basic_string@DU?$char_traits@D@std@@V?$allocator@D@2@@2@_N_J_KNVallocator@2@Uadl_serializer@nlohmann@@@nlohmann@@CAPAV?$vector@V?$basic_json@Vmap@std@@Vvector@2@V?$basic_string@DU?$char_traits@D@std@@V?$allocator@D@2@@2@_N_J_KNVallocator@2@Uadl_serializer@nlohmann@@@nlohmann@@V?$allocator@V?$basic_json@Vmap@std@@Vvector@2@V?$basic_string@DU?$char_traits@D@std@@V?$allocator@D@2@@2@_N_J_KNVallocator@2@Uadl_serializer@nlohmann@@@nlohmann@@@std@@@std@@ABV34@@Z@QBEXPAV34@@Z 1002d150 f i tab_Login.obj
